EXPORTS
	NPN_CreateObject @ 1 NONAME
	NPN_Evaluate @ 2 NONAME
	NPN_GetIntIdentifier @ 3 NONAME
	NPN_GetProperty @ 4 NONAME
	NPN_GetStringIdentifier @ 5 NONAME
	NPN_GetStringIdentifiers @ 6 NONAME
	NPN_HasMethod @ 7 NONAME
	NPN_HasProperty @ 8 NONAME
	NPN_IdentifierIsString @ 9 NONAME
	NPN_IntFromIdentifier @ 10 NONAME
	NPN_Invoke @ 11 NONAME
	NPN_InvokeDefault @ 12 NONAME
	NPN_ReleaseObject @ 13 NONAME
	NPN_ReleaseVariantValue @ 14 NONAME
	NPN_RemoveProperty @ 15 NONAME
	NPN_RetainObject @ 16 NONAME
	NPN_SetException @ 17 NONAME
	NPN_SetProperty @ 18 NONAME
	NPN_UTF8FromIdentifier @ 19 NONAME
	JSClassCreate @ 20 NONAME
	JSContextGetGlobalObject @ 21 NONAME
	JSValueToNumber @ 22 NONAME
	JSValueToObject @ 23 NONAME
	JSValueToStringCopy @ 24 NONAME
	JSValueUnprotect @ 25 NONAME
	_NPN_CreateObject @ 26 NONAME
	_NPN_DeallocateObject @ 27 NONAME
	_NPN_Enumerate @ 28 NONAME
	_NPN_Evaluate @ 29 NONAME
	_NPN_GetIntIdentifier @ 30 NONAME
	_NPN_GetProperty @ 31 NONAME
	_NPN_GetStringIdentifier @ 32 NONAME
	_NPN_GetStringIdentifiers @ 33 NONAME
	_NPN_HasMethod @ 34 NONAME
	_NPN_HasProperty @ 35 NONAME
	_NPN_IdentifierIsString @ 36 NONAME
	_NPN_IntFromIdentifier @ 37 NONAME
	_NPN_Invoke @ 38 NONAME
	_NPN_InvokeDefault @ 39 NONAME
	_NPN_ReleaseObject @ 40 NONAME
	_NPN_ReleaseVariantValue @ 41 NONAME
	_NPN_RemoveProperty @ 42 NONAME
	_NPN_RetainObject @ 43 NONAME
	_NPN_SetException @ 44 NONAME
	_NPN_SetProperty @ 45 NONAME
	_NPN_UTF8FromIdentifier @ 46 NONAME
	_Z23_NPN_CreateScriptObjectP4_NPPPN3KJS8JSObjectEN3WTF10PassRefPtrINS1_8Bindings10RootObjectEEES8_ @ 47 NONAME
	_Z25_NPN_CreateNoScriptObjectv @ 48 NONAME
	_ZN3KJS10Identifier3addEPKNS_5UCharEi @ 49 NONAME
	_ZN3KJS10Identifier3addEPKc @ 50 NONAME
	_ZN3KJS10Identifier3addEPNS_7UString3RepE @ 51 NONAME
	_ZN3KJS10Identifier5equalEPKNS_7UString3RepEPKc @ 52 NONAME
	_ZN3KJS10roundValueEPNS_9ExecStateEPNS_7JSValueE @ 53 NONAME
	_ZN3KJS10throwErrorEPNS_9ExecStateENS_9ErrorTypeE @ 54 NONAME
	_ZN3KJS10throwErrorEPNS_9ExecStateENS_9ErrorTypeEPKc @ 55 NONAME
	_ZN3KJS10throwErrorEPNS_9ExecStateENS_9ErrorTypeERKNS_7UStringE @ 56 NONAME
	_ZN3KJS11Interpreter10globalExecEv @ 57 NONAME
	_ZN3KJS11Interpreter15restoreBuiltinsERKNS_13SavedBuiltinsE @ 58 NONAME
	_ZN3KJS11Interpreter16initGlobalObjectEv @ 59 NONAME
	_ZN3KJS11Interpreter16stopTimeoutCheckEv @ 60 NONAME
	_ZN3KJS11Interpreter17startTimeoutCheckEv @ 61 NONAME
	_ZN3KJS11Interpreter21shouldPrintExceptionsEv @ 62 NONAME
	_ZN3KJS11Interpreter24setShouldPrintExceptionsEb @ 63 NONAME
	_ZN3KJS11Interpreter4markEv @ 64 NONAME
	_ZN3KJS11Interpreter8evaluateERKNS_7UStringEiPKNS_5UCharEiPNS_7JSValueE @ 65 NONAME
	_ZN3KJS11Interpreter8evaluateERKNS_7UStringEiS3_PNS_7JSValueE @ 66 NONAME
	_ZN3KJS11InterpreterC1EPNS_8JSObjectE @ 67 NONAME
	_ZN3KJS11InterpreterC2EPNS_8JSObjectE @ 68 NONAME
	_ZN3KJS11InterpreterD0Ev @ 69 NONAME
	_ZN3KJS11InterpreterD1Ev @ 70 NONAME
	_ZN3KJS11InterpreterD2Ev @ 71 NONAME
	_ZN3KJS11JSImmediate4typeEPKNS_7JSValueE @ 72 NONAME
	_ZN3KJS11JSImmediate8toObjectEPKNS_7JSValueEPNS_9ExecStateE @ 73 NONAME
	_ZN3KJS11JSImmediate8toStringEPKNS_7JSValueE @ 74 NONAME
	_ZN3KJS11PropertyMap11getLocationERKNS_10IdentifierE @ 75 NONAME
	_ZN3KJS11PropertyMap5clearEv @ 76 NONAME
	_ZN3KJS11PropertyMap7restoreERKNS_15SavedPropertiesE @ 77 NONAME
	_ZN3KJS11PropertyMapD1Ev @ 78 NONAME
	_ZN3KJS11PropertyMapD2Ev @ 79 NONAME
	_ZN3KJS12PropertySlot15undefinedGetterEPNS_9ExecStateEPNS_8JSObjectERKNS_10IdentifierERKS0_ @ 80 NONAME
	_ZN3KJS12jsNumberCellEd @ 81 NONAME
	_ZN3KJS13SavedBuiltinsC1Ev @ 82 NONAME
	_ZN3KJS13SavedBuiltinsC2Ev @ 83 NONAME
	_ZN3KJS13SavedBuiltinsD1Ev @ 84 NONAME
	_ZN3KJS13SavedBuiltinsD2Ev @ 85 NONAME
	_ZN3KJS13jsOwnedStringERKNS_7UStringE @ 86 NONAME
	_ZN3KJS14StringInstance14deletePropertyEPNS_9ExecStateERKNS_10IdentifierE @ 87 NONAME
	_ZN3KJS14StringInstance16getPropertyNamesEPNS_9ExecStateERNS_17PropertyNameArrayE @ 88 NONAME
	_ZN3KJS14StringInstance18getOwnPropertySlotEPNS_9ExecStateERKNS_10IdentifierERNS_12PropertySlotE @ 89 NONAME
	_ZN3KJS14StringInstance3putEPNS_9ExecStateERKNS_10IdentifierEPNS_7JSValueEi @ 90 NONAME
	_ZN3KJS14StringInstanceC1EPNS_8JSObjectEPNS_9StringImpE @ 91 NONAME
	_ZN3KJS14StringInstanceC1EPNS_8JSObjectERKNS_7UStringE @ 92 NONAME
	_ZN3KJS14StringInstanceC2EPNS_8JSObjectEPNS_9StringImpE @ 93 NONAME
	_ZN3KJS14StringInstanceC2EPNS_8JSObjectERKNS_7UStringE @ 94 NONAME
	_ZN3KJS15JSWrapperObject4markEv @ 95 NONAME
	_ZN3KJS15SavedPropertiesC1Ev @ 96 NONAME
	_ZN3KJS15SavedPropertiesC2Ev @ 97 NONAME
	_ZN3KJS15SavedPropertiesD1Ev @ 98 NONAME
	_ZN3KJS15SavedPropertiesD2Ev @ 99 NONAME
	_ZN3KJS16RuntimeObjectImpC1EPNS_8Bindings8InstanceE @ 100 NONAME
	_ZN3KJS16RuntimeObjectImpC2EPNS_8Bindings8InstanceE @ 101 NONAME
	_ZN3KJS19InternalFunctionImpC2EPNS_17FunctionPrototypeERKNS_10IdentifierE @ 102 NONAME
	_ZN3KJS21JSCallbackConstructorC1EPNS_9ExecStateEP13OpaqueJSClassPFYP13OpaqueJSValuePK15OpaqueJSContextS6_jPKPKS5_PSB_E @ 103 NONAME
	_ZN3KJS21JSCallbackConstructorC2EPNS_9ExecStateEP13OpaqueJSClassPFYP13OpaqueJSValuePK15OpaqueJSContextS6_jPKPKS5_PSB_E @ 104 NONAME
	_ZN3KJS4List6appendEPNS_7JSValueE @ 105 NONAME
	_ZN3KJS4List7releaseEv @ 106 NONAME
	_ZN3KJS4ListC1Ev @ 107 NONAME
	_ZN3KJS4ListC2Ev @ 108 NONAME
	_ZN3KJS5isInfEd @ 109 NONAME
	_ZN3KJS5isNaNEd @ 110 NONAME
	_ZN3KJS6JSCell9getObjectEv @ 111 NONAME
	_ZN3KJS6JSCellnwEj @ 112 NONAME
	_ZN3KJS6JSLock12DropAllLocksC1Ev @ 113 NONAME
	_ZN3KJS6JSLock12DropAllLocksC2Ev @ 114 NONAME
	_ZN3KJS6JSLock12DropAllLocksD1Ev @ 115 NONAME
	_ZN3KJS6JSLock12DropAllLocksD2Ev @ 116 NONAME
	_ZN3KJS6JSLock14registerThreadEv @ 117 NONAME
	_ZN3KJS6JSLock4lockEv @ 118 NONAME
	_ZN3KJS6JSLock6unlockEv @ 119 NONAME
	_ZN3KJS6Lookup9findEntryEPKNS_9HashTableERKNS_10IdentifierE @ 120 NONAME
	_ZN3KJS7UString3Rep7destroyEv @ 121 NONAME
	_ZN3KJS7UString6appendERKS0_ @ 122 NONAME
	_ZN3KJS7UStringC1EPKNS_5UCharEi @ 123 NONAME
	_ZN3KJS7UStringC1EPKc @ 124 NONAME
	_ZN3KJS7UStringC1ERKS0_S2_ @ 125 NONAME
	_ZN3KJS7UStringC1Ev @ 126 NONAME
	_ZN3KJS7UStringC2EPKNS_5UCharEi @ 127 NONAME
	_ZN3KJS7UStringC2EPKc @ 128 NONAME
	_ZN3KJS7UStringC2ERKS0_S2_ @ 129 NONAME
	_ZN3KJS7UStringC2Ev @ 130 NONAME
	_ZN3KJS7UStringaSEPKc @ 131 NONAME
	_ZN3KJS8Bindings10RootObject10invalidateEv @ 132 NONAME
	_ZN3KJS8Bindings10RootObject6createEPKvN3WTF10PassRefPtrINS_11InterpreterEEE @ 133 NONAME
	_ZN3KJS8Bindings10RootObjectD1Ev @ 134 NONAME
	_ZN3KJS8Bindings10RootObjectD2Ev @ 135 NONAME
	_ZN3KJS8Bindings8Instance21setDidExecuteFunctionEPFvPNS_9ExecStateEPNS_8JSObjectEE @ 136 NONAME
	_ZN3KJS8Bindings8Instance32createBindingForLanguageInstanceENS1_15BindingLanguageEPvN3WTF10PassRefPtrINS0_10RootObjectEEE @ 137 NONAME
	_ZN3KJS8JSObject11hasInstanceEPNS_9ExecStateEPNS_7JSValueE @ 138 NONAME
	_ZN3KJS8JSObject12removeDirectERKNS_10IdentifierE @ 139 NONAME
	_ZN3KJS8JSObject14callAsFunctionEPNS_9ExecStateEPS0_RKNS_4ListE @ 140 NONAME
	_ZN3KJS8JSObject14deletePropertyEPNS_9ExecStateERKNS_10IdentifierE @ 141 NONAME
	_ZN3KJS8JSObject14deletePropertyEPNS_9ExecStateEj @ 142 NONAME
	_ZN3KJS8JSObject16getPropertyNamesEPNS_9ExecStateERNS_17PropertyNameArrayE @ 143 NONAME
	_ZN3KJS8JSObject18getOwnPropertySlotEPNS_9ExecStateEjRNS_12PropertySlotE @ 144 NONAME
	_ZN3KJS8JSObject22fillGetterPropertySlotERNS_12PropertySlotEPPNS_7JSValueE @ 145 NONAME
	_ZN3KJS8JSObject3putEPNS_9ExecStateERKNS_10IdentifierEPNS_7JSValueEi @ 146 NONAME
	_ZN3KJS8JSObject3putEPNS_9ExecStateEjPNS_7JSValueEi @ 147 NONAME
	_ZN3KJS8JSObject4callEPNS_9ExecStateEPS0_RKNS_4ListE @ 148 NONAME
	_ZN3KJS8JSObject4markEv @ 149 NONAME
	_ZN3KJS8JSObject9constructEPNS_9ExecStateERKNS_4ListE @ 150 NONAME
	_ZN3KJS8JSObject9constructEPNS_9ExecStateERKNS_4ListERKNS_10IdentifierERKNS_7UStringEi @ 151 NONAME
	_ZN3KJS8JSObject9putDirectERKNS_10IdentifierEPNS_7JSValueEi @ 152 NONAME
	_ZN3KJS8JSObject9putDirectERKNS_10IdentifierEii @ 153 NONAME
	_ZN3KJS8jsStringEPKc @ 154 NONAME
	_ZN3KJS8jsStringERKNS_7UStringE @ 155 NONAME
	_ZN3KJS9Collector10cellOffsetEPKNS_6JSCellE @ 156 NONAME
	_ZN3KJS9Collector23collectOnMainThreadOnlyEPNS_7JSValueE @ 157 NONAME
	_ZN3KJS9Collector7collectEv @ 158 NONAME
	_ZN3KJS9Collector7protectEPNS_7JSValueE @ 159 NONAME
	_ZN3KJS9Collector9cellBlockEPKNS_6JSCellE @ 160 NONAME
	_ZN3KJS9Collector9cellBlockEPNS_6JSCellE @ 161 NONAME
	_ZN3KJS9Collector9unprotectEPNS_7JSValueE @ 162 NONAME
	_ZN3WTF10fastCallocEjj @ 163 NONAME
	_ZN3WTF10fastMallocEj @ 164 NONAME
	_ZN3WTF11fastReallocEPvj @ 165 NONAME
	_ZN3WTF8fastFreeEPv @ 166 NONAME
	_ZNK3KJS11Interpreter12builtinArrayEv @ 167 NONAME
	_ZNK3KJS11Interpreter12globalObjectEv @ 168 NONAME
	_ZNK3KJS11Interpreter12saveBuiltinsERNS_13SavedBuiltinsE @ 169 NONAME
	_ZNK3KJS11Interpreter15builtinFunctionEv @ 170 NONAME
	_ZNK3KJS11Interpreter22builtinObjectPrototypeEv @ 171 NONAME
	_ZNK3KJS11Interpreter22builtinStringPrototypeEv @ 172 NONAME
	_ZNK3KJS11Interpreter24builtinFunctionPrototypeEv @ 173 NONAME
	_ZNK3KJS11PropertyMap3getERKNS_10IdentifierE @ 174 NONAME
	_ZNK3KJS11PropertyMap4saveERNS_15SavedPropertiesE @ 175 NONAME
	_ZNK3KJS14StringInstance9classInfoEv @ 176 NONAME
	_ZNK3KJS19InternalFunctionImp14implementsCallEv @ 177 NONAME
	_ZNK3KJS19InternalFunctionImp21implementsHasInstanceEv @ 178 NONAME
	_ZNK3KJS19InternalFunctionImp9classInfoEv @ 179 NONAME
	_ZNK3KJS4List2atEi @ 180 NONAME
	_ZNK3KJS4List8copyTailEv @ 181 NONAME
	_ZNK3KJS6JSCell9getNumberEv @ 182 NONAME
	_ZNK3KJS6JSCell9getStringERNS_7UStringE @ 183 NONAME
	_ZNK3KJS6JSCell9getUInt32ERj @ 184 NONAME
	_ZNK3KJS7JSValue7toFloatEPNS_9ExecStateE @ 185 NONAME
	_ZNK3KJS7JSValue7toInt32EPNS_9ExecStateE @ 186 NONAME
	_ZNK3KJS7JSValue7toInt32EPNS_9ExecStateERb @ 187 NONAME
	_ZNK3KJS7JSValue8toUInt32EPNS_9ExecStateE @ 188 NONAME
	_ZNK3KJS7JSValue8toUInt32EPNS_9ExecStateERb @ 189 NONAME
	_ZNK3KJS7UString10UTF8StringEv @ 190 NONAME
	_ZNK3KJS7UString14toStrictUInt32EPb @ 191 NONAME
	_ZNK3KJS7UString6is8BitEv @ 192 NONAME
	_ZNK3KJS7UString6isNullEv @ 193 NONAME
	_ZNK3KJS7UString8toUInt32EPb @ 194 NONAME
	_ZNK3KJS7UString8toUInt32EPbb @ 195 NONAME
	_ZNK3KJS8Bindings8Instance10rootObjectEv @ 196 NONAME
	_ZNK3KJS8JSObject11hasPropertyEPNS_9ExecStateERKNS_10IdentifierE @ 197 NONAME
	_ZNK3KJS8JSObject12defaultValueEPNS_9ExecStateENS_6JSTypeE @ 198 NONAME
	_ZNK3KJS8JSObject14implementsCallEv @ 199 NONAME
	_ZNK3KJS8JSObject19implementsConstructEv @ 200 NONAME
	_ZNK3KJS8JSObject21implementsHasInstanceEv @ 201 NONAME
	_ZNK3KJS8JSObject3getEPNS_9ExecStateERKNS_10IdentifierE @ 202 NONAME
	_ZNK3KJS8JSObject3getEPNS_9ExecStateEj @ 203 NONAME
	_ZNK3KJS8JSObject4typeEv @ 204 NONAME
	_ZNK3KJS8JSObject6canPutEPNS_9ExecStateERKNS_10IdentifierE @ 205 NONAME
	_ZNK3KJS8JSObject8toNumberEPNS_9ExecStateE @ 206 NONAME
	_ZNK3KJS8JSObject8toObjectEPNS_9ExecStateE @ 207 NONAME
	_ZNK3KJS8JSObject8toStringEPNS_9ExecStateE @ 208 NONAME
	_ZNK3KJS8JSObject9classInfoEv @ 209 NONAME
	_ZNK3KJS8JSObject9classNameEv @ 210 NONAME
	_ZNK3KJS8JSObject9toBooleanEPNS_9ExecStateE @ 211 NONAME
	_ZNK3KJS9ExecState18lexicalInterpreterEv @ 212 NONAME
	_ZTIN3KJS10NegateNodeE @ 213 NONAME ; #<TI>#
	_ZTIN3KJS10NumberNodeE @ 214 NONAME ; #<TI>#
	_ZTIN3KJS10RegExpNodeE @ 215 NONAME ; #<TI>#
	_ZTIN3KJS10ReturnNodeE @ 216 NONAME ; #<TI>#
	_ZTIN3KJS10StringNodeE @ 217 NONAME ; #<TI>#
	_ZTIN3KJS10SwitchNodeE @ 218 NONAME ; #<TI>#
	_ZTIN3KJS11BitOperNodeE @ 219 NONAME ; #<TI>#
	_ZTIN3KJS11BooleanNodeE @ 220 NONAME ; #<TI>#
	_ZTIN3KJS11DoWhileNodeE @ 221 NONAME ; #<TI>#
	_ZTIN3KJS11ElementNodeE @ 222 NONAME ; #<TI>#
	_ZTIN3KJS11FunctionImpE @ 223 NONAME ; #<TI>#
	_ZTIN3KJS11InterpreterE @ 224 NONAME ; #<TI>#
	_ZTIN3KJS11MathFuncImpE @ 225 NONAME ; #<TI>#
	_ZTIN3KJS11NewExprNodeE @ 226 NONAME ; #<TI>#
	_ZTIN3KJS11ResolveNodeE @ 227 NONAME ; #<TI>#
	_ZTIN3KJS11VarDeclNodeE @ 228 NONAME ; #<TI>#
	_ZTIN3KJS12ContinueNodeE @ 229 NONAME ; #<TI>#
	_ZTIN3KJS12FuncDeclNodeE @ 230 NONAME ; #<TI>#
	_ZTIN3KJS12FuncExprNodeE @ 231 NONAME ; #<TI>#
	_ZTIN3KJS12PropertyNodeE @ 232 NONAME ; #<TI>#
	_ZTIN3KJS12RuntimeArrayE @ 233 NONAME ; #<TI>#
	_ZTIN3KJS13ActivationImpE @ 234 NONAME ; #<TI>#
	_ZTIN3KJS13ArgumentsNodeE @ 235 NONAME ; #<TI>#
	_ZTIN3KJS13ArrayInstanceE @ 236 NONAME ; #<TI>#
	_ZTIN3KJS13AssignDotNodeE @ 237 NONAME ; #<TI>#
	_ZTIN3KJS13CaseBlockNodeE @ 238 NONAME ; #<TI>#
	_ZTIN3KJS13DateObjectImpE @ 239 NONAME ; #<TI>#
	_ZTIN3KJS13DateProtoFuncE @ 240 NONAME ; #<TI>#
	_ZTIN3KJS13DatePrototypeE @ 241 NONAME ; #<TI>#
	_ZTIN3KJS13DeleteDotNodeE @ 242 NONAME ; #<TI>#
	_ZTIN3KJS13GlobalFuncImpE @ 243 NONAME ; #<TI>#
	_ZTIN3KJS13MathObjectImpE @ 244 NONAME ; #<TI>#
	_ZTIN3KJS13ParameterNodeE @ 245 NONAME ; #<TI>#
	_ZTIN3KJS13PrefixDotNodeE @ 246 NONAME ; #<TI>#
	_ZTIN3KJS13RuntimeMethodE @ 247 NONAME ; #<TI>#
	_ZTIN3KJS13StatementNodeE @ 248 NONAME ; #<TI>#
	_ZTIN3KJS13UnaryPlusNodeE @ 249 NONAME ; #<TI>#
	_ZTIN3KJS14ArrayObjectImpE @ 250 NONAME ; #<TI>#
	_ZTIN3KJS14ArrayProtoFuncE @ 251 NONAME ; #<TI>#
	_ZTIN3KJS14ArrayPrototypeE @ 252 NONAME ; #<TI>#
	_ZTIN3KJS14AssignExprNodeE @ 253 NONAME ; #<TI>#
	_ZTIN3KJS14BitwiseNotNodeE @ 254 NONAME ; #<TI>#
	_ZTIN3KJS14CaseClauseNodeE @ 255 NONAME ; #<TI>#
	_ZTIN3KJS14ClauseListNodeE @ 256 NONAME ; #<TI>#
	_ZTIN3KJS14ErrorObjectImpE @ 257 NONAME ; #<TI>#
	_ZTIN3KJS14ErrorProtoFuncE @ 258 NONAME ; #<TI>#
	_ZTIN3KJS14LogicalNotNodeE @ 259 NONAME ; #<TI>#
	_ZTIN3KJS14NativeErrorImpE @ 260 NONAME ; #<TI>#
	_ZTIN3KJS14PostfixDotNodeE @ 261 NONAME ; #<TI>#
	_ZTIN3KJS14RelationalNodeE @ 262 NONAME ; #<TI>#
	_ZTIN3KJS14StringInstanceE @ 263 NONAME ; #<TI>#
	_ZTIN3KJS15AssignErrorNodeE @ 264 NONAME ; #<TI>#
	_ZTIN3KJS15ConditionalNodeE @ 265 NONAME ; #<TI>#
	_ZTIN3KJS15DeleteValueNodeE @ 266 NONAME ; #<TI>#
	_ZTIN3KJS15DotAccessorNodeE @ 267 NONAME ; #<TI>#
	_ZTIN3KJS15GetterSetterImpE @ 268 NONAME ; #<TI>#
	_ZTIN3KJS15JSWrapperObjectE @ 269 NONAME ; #<TI>#
	_ZTIN3KJS15NumberObjectImpE @ 270 NONAME ; #<TI>#
	_ZTIN3KJS15NumberProtoFuncE @ 271 NONAME ; #<TI>#
	_ZTIN3KJS15ObjectObjectImpE @ 272 NONAME ; #<TI>#
	_ZTIN3KJS15ObjectProtoFuncE @ 273 NONAME ; #<TI>#
	_ZTIN3KJS15PrefixErrorNodeE @ 274 NONAME ; #<TI>#
	_ZTIN3KJS15RegExpObjectImpE @ 275 NONAME ; #<TI>#
	_ZTIN3KJS15RegExpProtoFuncE @ 276 NONAME ; #<TI>#
	_ZTIN3KJS15StringObjectImpE @ 277 NONAME ; #<TI>#
	_ZTIN3KJS15StringProtoFuncE @ 278 NONAME ; #<TI>#
	_ZTIN3KJS15StringPrototypeE @ 279 NONAME ; #<TI>#
	_ZTIN3KJS15TypeOfValueNodeE @ 280 NONAME ; #<TI>#
	_ZTIN3KJS15VarDeclListNodeE @ 281 NONAME ; #<TI>#
	_ZTIN3KJS16ArgumentListNodeE @ 282 NONAME ; #<TI>#
	_ZTIN3KJS16BooleanObjectImpE @ 283 NONAME ; #<TI>#
	_ZTIN3KJS16BooleanProtoFuncE @ 284 NONAME ; #<TI>#
	_ZTIN3KJS16FunctionBodyNodeE @ 285 NONAME ; #<TI>#
	_ZTIN3KJS16JSCallbackObjectE @ 286 NONAME ; #<TI>#
	_ZTIN3KJS16PostfixErrorNodeE @ 287 NONAME ; #<TI>#
	_ZTIN3KJS16PropertyListNodeE @ 288 NONAME ; #<TI>#
	_ZTIN3KJS16PropertyNameNodeE @ 289 NONAME ; #<TI>#
	_ZTIN3KJS16RuntimeObjectImpE @ 290 NONAME ; #<TI>#
	_ZTIN3KJS16VarStatementNodeE @ 291 NONAME ; #<TI>#
	_ZTIN3KJS17AssignBracketNodeE @ 292 NONAME ; #<TI>#
	_ZTIN3KJS17AssignResolveNodeE @ 293 NONAME ; #<TI>#
	_ZTIN3KJS17BinaryLogicalNodeE @ 294 NONAME ; #<TI>#
	_ZTIN3KJS17DateObjectFuncImpE @ 295 NONAME ; #<TI>#
	_ZTIN3KJS17DeleteBracketNodeE @ 296 NONAME ; #<TI>#
	_ZTIN3KJS17DeleteResolveNodeE @ 297 NONAME ; #<TI>#
	_ZTIN3KJS17ExprStatementNodeE @ 298 NONAME ; #<TI>#
	_ZTIN3KJS17FunctionObjectImpE @ 299 NONAME ; #<TI>#
	_ZTIN3KJS17FunctionProtoFuncE @ 300 NONAME ; #<TI>#
	_ZTIN3KJS17FunctionPrototypeE @ 301 NONAME ; #<TI>#
	_ZTIN3KJS17ObjectLiteralNodeE @ 302 NONAME ; #<TI>#
	_ZTIN3KJS17PrefixBracketNodeE @ 303 NONAME ; #<TI>#
	_ZTIN3KJS17PrefixResolveNodeE @ 304 NONAME ; #<TI>#
	_ZTIN3KJS17TypeOfResolveNodeE @ 305 NONAME ; #<TI>#
	_ZTIN3KJS18EmptyStatementNodeE @ 306 NONAME ; #<TI>#
	_ZTIN3KJS18JSCallbackFunctionE @ 307 NONAME ; #<TI>#
	_ZTIN3KJS18PostfixBracketNodeE @ 308 NONAME ; #<TI>#
	_ZTIN3KJS18PostfixResolveNodeE @ 309 NONAME ; #<TI>#
	_ZTIN3KJS18SourceElementsNodeE @ 310 NONAME ; #<TI>#
	_ZTIN3KJS19BracketAccessorNodeE @ 311 NONAME ; #<TI>#
	_ZTIN3KJS19DeclaredFunctionImpE @ 312 NONAME ; #<TI>#
	_ZTIN3KJS19FunctionCallDotNodeE @ 313 NONAME ; #<TI>#
	_ZTIN3KJS19InternalFunctionImpE @ 314 NONAME ; #<TI>#
	_ZTIN3KJS19StringObjectFuncImpE @ 315 NONAME ; #<TI>#
	_ZTIN3KJS21FunctionCallValueNodeE @ 316 NONAME ; #<TI>#
	_ZTIN3KJS21JSCallbackConstructorE @ 317 NONAME ; #<TI>#
	_ZTIN3KJS23FunctionCallBracketNodeE @ 318 NONAME ; #<TI>#
	_ZTIN3KJS23FunctionCallResolveNodeE @ 319 NONAME ; #<TI>#
	_ZTIN3KJS24FunctionCallParenDotNodeE @ 320 NONAME ; #<TI>#
	_ZTIN3KJS28FunctionCallParenBracketNodeE @ 321 NONAME ; #<TI>#
	_ZTIN3KJS4NodeE @ 322 NONAME ; #<TI>#
	_ZTIN3KJS6IfNodeE @ 323 NONAME ; #<TI>#
	_ZTIN3KJS6JSCellE @ 324 NONAME ; #<TI>#
	_ZTIN3KJS7AddNodeE @ 325 NONAME ; #<TI>#
	_ZTIN3KJS7ForNodeE @ 326 NONAME ; #<TI>#
	_ZTIN3KJS7TryNodeE @ 327 NONAME ; #<TI>#
	_ZTIN3KJS8Bindings5ArrayE @ 328 NONAME ; #<TI>#
	_ZTIN3KJS8Bindings6CClassE @ 329 NONAME ; #<TI>#
	_ZTIN3KJS8Bindings6CFieldE @ 330 NONAME ; #<TI>#
	_ZTIN3KJS8Bindings7CMethodE @ 331 NONAME ; #<TI>#
	_ZTIN3KJS8Bindings8InstanceE @ 332 NONAME ; #<TI>#
	_ZTIN3KJS8Bindings9CInstanceE @ 333 NONAME ; #<TI>#
	_ZTIN3KJS8DebuggerE @ 334 NONAME ; #<TI>#
	_ZTIN3KJS8JSObjectE @ 335 NONAME ; #<TI>#
	_ZTIN3KJS8MultNodeE @ 336 NONAME ; #<TI>#
	_ZTIN3KJS8NullNodeE @ 337 NONAME ; #<TI>#
	_ZTIN3KJS8ThisNodeE @ 338 NONAME ; #<TI>#
	_ZTIN3KJS8VoidNodeE @ 339 NONAME ; #<TI>#
	_ZTIN3KJS8WithNodeE @ 340 NONAME ; #<TI>#
	_ZTIN3KJS9ArgumentsE @ 341 NONAME ; #<TI>#
	_ZTIN3KJS9ArrayNodeE @ 342 NONAME ; #<TI>#
	_ZTIN3KJS9BlockNodeE @ 343 NONAME ; #<TI>#
	_ZTIN3KJS9BreakNodeE @ 344 NONAME ; #<TI>#
	_ZTIN3KJS9CommaNodeE @ 345 NONAME ; #<TI>#
	_ZTIN3KJS9EqualNodeE @ 346 NONAME ; #<TI>#
	_ZTIN3KJS9ForInNodeE @ 347 NONAME ; #<TI>#
	_ZTIN3KJS9GroupNodeE @ 348 NONAME ; #<TI>#
	_ZTIN3KJS9LabelNodeE @ 349 NONAME ; #<TI>#
	_ZTIN3KJS9NumberImpE @ 350 NONAME ; #<TI>#
	_ZTIN3KJS9RegExpImpE @ 351 NONAME ; #<TI>#
	_ZTIN3KJS9ShiftNodeE @ 352 NONAME ; #<TI>#
	_ZTIN3KJS9StringImpE @ 353 NONAME ; #<TI>#
	_ZTIN3KJS9ThrowNodeE @ 354 NONAME ; #<TI>#
	_ZTIN3KJS9WhileNodeE @ 355 NONAME ; #<TI>#
	_ZTVN3KJS10NegateNodeE @ 356 NONAME ; #<VT>#
	_ZTVN3KJS10NumberNodeE @ 357 NONAME ; #<VT>#
	_ZTVN3KJS10RegExpNodeE @ 358 NONAME ; #<VT>#
	_ZTVN3KJS10ReturnNodeE @ 359 NONAME ; #<VT>#
	_ZTVN3KJS10StringNodeE @ 360 NONAME ; #<VT>#
	_ZTVN3KJS10SwitchNodeE @ 361 NONAME ; #<VT>#
	_ZTVN3KJS11BitOperNodeE @ 362 NONAME ; #<VT>#
	_ZTVN3KJS11BooleanNodeE @ 363 NONAME ; #<VT>#
	_ZTVN3KJS11DoWhileNodeE @ 364 NONAME ; #<VT>#
	_ZTVN3KJS11ElementNodeE @ 365 NONAME ; #<VT>#
	_ZTVN3KJS11FunctionImpE @ 366 NONAME ; #<VT>#
	_ZTVN3KJS11InterpreterE @ 367 NONAME ; #<VT>#
	_ZTVN3KJS11MathFuncImpE @ 368 NONAME ; #<VT>#
	_ZTVN3KJS11NewExprNodeE @ 369 NONAME ; #<VT>#
	_ZTVN3KJS11ResolveNodeE @ 370 NONAME ; #<VT>#
	_ZTVN3KJS11VarDeclNodeE @ 371 NONAME ; #<VT>#
	_ZTVN3KJS12ContinueNodeE @ 372 NONAME ; #<VT>#
	_ZTVN3KJS12FuncDeclNodeE @ 373 NONAME ; #<VT>#
	_ZTVN3KJS12FuncExprNodeE @ 374 NONAME ; #<VT>#
	_ZTVN3KJS12PropertyNodeE @ 375 NONAME ; #<VT>#
	_ZTVN3KJS12RuntimeArrayE @ 376 NONAME ; #<VT>#
	_ZTVN3KJS13ActivationImpE @ 377 NONAME ; #<VT>#
	_ZTVN3KJS13ArgumentsNodeE @ 378 NONAME ; #<VT>#
	_ZTVN3KJS13ArrayInstanceE @ 379 NONAME ; #<VT>#
	_ZTVN3KJS13AssignDotNodeE @ 380 NONAME ; #<VT>#
	_ZTVN3KJS13CaseBlockNodeE @ 381 NONAME ; #<VT>#
	_ZTVN3KJS13DateObjectImpE @ 382 NONAME ; #<VT>#
	_ZTVN3KJS13DateProtoFuncE @ 383 NONAME ; #<VT>#
	_ZTVN3KJS13DatePrototypeE @ 384 NONAME ; #<VT>#
	_ZTVN3KJS13DeleteDotNodeE @ 385 NONAME ; #<VT>#
	_ZTVN3KJS13GlobalFuncImpE @ 386 NONAME ; #<VT>#
	_ZTVN3KJS13MathObjectImpE @ 387 NONAME ; #<VT>#
	_ZTVN3KJS13ParameterNodeE @ 388 NONAME ; #<VT>#
	_ZTVN3KJS13PrefixDotNodeE @ 389 NONAME ; #<VT>#
	_ZTVN3KJS13RuntimeMethodE @ 390 NONAME ; #<VT>#
	_ZTVN3KJS13StatementNodeE @ 391 NONAME ; #<VT>#
	_ZTVN3KJS13UnaryPlusNodeE @ 392 NONAME ; #<VT>#
	_ZTVN3KJS14ArrayObjectImpE @ 393 NONAME ; #<VT>#
	_ZTVN3KJS14ArrayProtoFuncE @ 394 NONAME ; #<VT>#
	_ZTVN3KJS14ArrayPrototypeE @ 395 NONAME ; #<VT>#
	_ZTVN3KJS14AssignExprNodeE @ 396 NONAME ; #<VT>#
	_ZTVN3KJS14BitwiseNotNodeE @ 397 NONAME ; #<VT>#
	_ZTVN3KJS14CaseClauseNodeE @ 398 NONAME ; #<VT>#
	_ZTVN3KJS14ClauseListNodeE @ 399 NONAME ; #<VT>#
	_ZTVN3KJS14ErrorObjectImpE @ 400 NONAME ; #<VT>#
	_ZTVN3KJS14ErrorProtoFuncE @ 401 NONAME ; #<VT>#
	_ZTVN3KJS14LogicalNotNodeE @ 402 NONAME ; #<VT>#
	_ZTVN3KJS14NativeErrorImpE @ 403 NONAME ; #<VT>#
	_ZTVN3KJS14PostfixDotNodeE @ 404 NONAME ; #<VT>#
	_ZTVN3KJS14RelationalNodeE @ 405 NONAME ; #<VT>#
	_ZTVN3KJS14StringInstanceE @ 406 NONAME ; #<VT>#
	_ZTVN3KJS15AssignErrorNodeE @ 407 NONAME ; #<VT>#
	_ZTVN3KJS15ConditionalNodeE @ 408 NONAME ; #<VT>#
	_ZTVN3KJS15DeleteValueNodeE @ 409 NONAME ; #<VT>#
	_ZTVN3KJS15DotAccessorNodeE @ 410 NONAME ; #<VT>#
	_ZTVN3KJS15GetterSetterImpE @ 411 NONAME ; #<VT>#
	_ZTVN3KJS15JSWrapperObjectE @ 412 NONAME ; #<VT>#
	_ZTVN3KJS15NumberObjectImpE @ 413 NONAME ; #<VT>#
	_ZTVN3KJS15NumberProtoFuncE @ 414 NONAME ; #<VT>#
	_ZTVN3KJS15ObjectObjectImpE @ 415 NONAME ; #<VT>#
	_ZTVN3KJS15ObjectProtoFuncE @ 416 NONAME ; #<VT>#
	_ZTVN3KJS15PrefixErrorNodeE @ 417 NONAME ; #<VT>#
	_ZTVN3KJS15RegExpObjectImpE @ 418 NONAME ; #<VT>#
	_ZTVN3KJS15RegExpProtoFuncE @ 419 NONAME ; #<VT>#
	_ZTVN3KJS15StringObjectImpE @ 420 NONAME ; #<VT>#
	_ZTVN3KJS15StringProtoFuncE @ 421 NONAME ; #<VT>#
	_ZTVN3KJS15StringPrototypeE @ 422 NONAME ; #<VT>#
	_ZTVN3KJS15TypeOfValueNodeE @ 423 NONAME ; #<VT>#
	_ZTVN3KJS15VarDeclListNodeE @ 424 NONAME ; #<VT>#
	_ZTVN3KJS16ArgumentListNodeE @ 425 NONAME ; #<VT>#
	_ZTVN3KJS16BooleanObjectImpE @ 426 NONAME ; #<VT>#
	_ZTVN3KJS16BooleanProtoFuncE @ 427 NONAME ; #<VT>#
	_ZTVN3KJS16FunctionBodyNodeE @ 428 NONAME ; #<VT>#
	_ZTVN3KJS16JSCallbackObjectE @ 429 NONAME ; #<VT>#
	_ZTVN3KJS16PostfixErrorNodeE @ 430 NONAME ; #<VT>#
	_ZTVN3KJS16PropertyListNodeE @ 431 NONAME ; #<VT>#
	_ZTVN3KJS16PropertyNameNodeE @ 432 NONAME ; #<VT>#
	_ZTVN3KJS16RuntimeObjectImpE @ 433 NONAME ; #<VT>#
	_ZTVN3KJS16VarStatementNodeE @ 434 NONAME ; #<VT>#
	_ZTVN3KJS17AssignBracketNodeE @ 435 NONAME ; #<VT>#
	_ZTVN3KJS17AssignResolveNodeE @ 436 NONAME ; #<VT>#
	_ZTVN3KJS17BinaryLogicalNodeE @ 437 NONAME ; #<VT>#
	_ZTVN3KJS17DateObjectFuncImpE @ 438 NONAME ; #<VT>#
	_ZTVN3KJS17DeleteBracketNodeE @ 439 NONAME ; #<VT>#
	_ZTVN3KJS17DeleteResolveNodeE @ 440 NONAME ; #<VT>#
	_ZTVN3KJS17ExprStatementNodeE @ 441 NONAME ; #<VT>#
	_ZTVN3KJS17FunctionObjectImpE @ 442 NONAME ; #<VT>#
	_ZTVN3KJS17FunctionProtoFuncE @ 443 NONAME ; #<VT>#
	_ZTVN3KJS17FunctionPrototypeE @ 444 NONAME ; #<VT>#
	_ZTVN3KJS17ObjectLiteralNodeE @ 445 NONAME ; #<VT>#
	_ZTVN3KJS17PrefixBracketNodeE @ 446 NONAME ; #<VT>#
	_ZTVN3KJS17PrefixResolveNodeE @ 447 NONAME ; #<VT>#
	_ZTVN3KJS17TypeOfResolveNodeE @ 448 NONAME ; #<VT>#
	_ZTVN3KJS18EmptyStatementNodeE @ 449 NONAME ; #<VT>#
	_ZTVN3KJS18JSCallbackFunctionE @ 450 NONAME ; #<VT>#
	_ZTVN3KJS18PostfixBracketNodeE @ 451 NONAME ; #<VT>#
	_ZTVN3KJS18PostfixResolveNodeE @ 452 NONAME ; #<VT>#
	_ZTVN3KJS18SourceElementsNodeE @ 453 NONAME ; #<VT>#
	_ZTVN3KJS19BracketAccessorNodeE @ 454 NONAME ; #<VT>#
	_ZTVN3KJS19DeclaredFunctionImpE @ 455 NONAME ; #<VT>#
	_ZTVN3KJS19FunctionCallDotNodeE @ 456 NONAME ; #<VT>#
	_ZTVN3KJS19InternalFunctionImpE @ 457 NONAME ; #<VT>#
	_ZTVN3KJS19StringObjectFuncImpE @ 458 NONAME ; #<VT>#
	_ZTVN3KJS21FunctionCallValueNodeE @ 459 NONAME ; #<VT>#
	_ZTVN3KJS21JSCallbackConstructorE @ 460 NONAME ; #<VT>#
	_ZTVN3KJS23FunctionCallBracketNodeE @ 461 NONAME ; #<VT>#
	_ZTVN3KJS23FunctionCallResolveNodeE @ 462 NONAME ; #<VT>#
	_ZTVN3KJS24FunctionCallParenDotNodeE @ 463 NONAME ; #<VT>#
	_ZTVN3KJS28FunctionCallParenBracketNodeE @ 464 NONAME ; #<VT>#
	_ZTVN3KJS4NodeE @ 465 NONAME ; #<VT>#
	_ZTVN3KJS6IfNodeE @ 466 NONAME ; #<VT>#
	_ZTVN3KJS6JSCellE @ 467 NONAME ; #<VT>#
	_ZTVN3KJS7AddNodeE @ 468 NONAME ; #<VT>#
	_ZTVN3KJS7ForNodeE @ 469 NONAME ; #<VT>#
	_ZTVN3KJS7TryNodeE @ 470 NONAME ; #<VT>#
	_ZTVN3KJS8Bindings5ArrayE @ 471 NONAME ; #<VT>#
	_ZTVN3KJS8Bindings6CClassE @ 472 NONAME ; #<VT>#
	_ZTVN3KJS8Bindings6CFieldE @ 473 NONAME ; #<VT>#
	_ZTVN3KJS8Bindings7CMethodE @ 474 NONAME ; #<VT>#
	_ZTVN3KJS8Bindings8InstanceE @ 475 NONAME ; #<VT>#
	_ZTVN3KJS8Bindings9CInstanceE @ 476 NONAME ; #<VT>#
	_ZTVN3KJS8DebuggerE @ 477 NONAME ; #<VT>#
	_ZTVN3KJS8JSObjectE @ 478 NONAME ; #<VT>#
	_ZTVN3KJS8MultNodeE @ 479 NONAME ; #<VT>#
	_ZTVN3KJS8NullNodeE @ 480 NONAME ; #<VT>#
	_ZTVN3KJS8ThisNodeE @ 481 NONAME ; #<VT>#
	_ZTVN3KJS8VoidNodeE @ 482 NONAME ; #<VT>#
	_ZTVN3KJS8WithNodeE @ 483 NONAME ; #<VT>#
	_ZTVN3KJS9ArgumentsE @ 484 NONAME ; #<VT>#
	_ZTVN3KJS9ArrayNodeE @ 485 NONAME ; #<VT>#
	_ZTVN3KJS9BlockNodeE @ 486 NONAME ; #<VT>#
	_ZTVN3KJS9BreakNodeE @ 487 NONAME ; #<VT>#
	_ZTVN3KJS9CommaNodeE @ 488 NONAME ; #<VT>#
	_ZTVN3KJS9EqualNodeE @ 489 NONAME ; #<VT>#
	_ZTVN3KJS9ForInNodeE @ 490 NONAME ; #<VT>#
	_ZTVN3KJS9GroupNodeE @ 491 NONAME ; #<VT>#
	_ZTVN3KJS9LabelNodeE @ 492 NONAME ; #<VT>#
	_ZTVN3KJS9NumberImpE @ 493 NONAME ; #<VT>#
	_ZTVN3KJS9RegExpImpE @ 494 NONAME ; #<VT>#
	_ZTVN3KJS9ShiftNodeE @ 495 NONAME ; #<VT>#
	_ZTVN3KJS9StringImpE @ 496 NONAME ; #<VT>#
	_ZTVN3KJS9ThrowNodeE @ 497 NONAME ; #<VT>#
	_ZTVN3KJS9WhileNodeE @ 498 NONAME ; #<VT>#
	kjs_dtoa @ 499 NONAME
	kjs_freedtoa @ 500 NONAME
	kjs_pcre_compile @ 501 NONAME
	kjs_pcre_compile2 @ 502 NONAME
	kjs_pcre_config @ 503 NONAME
	kjs_pcre_exec @ 504 NONAME
	kjs_pcre_free_substring @ 505 NONAME
	kjs_pcre_fullinfo @ 506 NONAME
	kjs_pcre_get_substring @ 507 NONAME
	kjs_pcre_info @ 508 NONAME
	kjs_pcre_ord2utf8 @ 509 NONAME
	kjs_pcre_refcount @ 510 NONAME
	kjs_pcre_study @ 511 NONAME
	kjs_pcre_try_flipped @ 512 NONAME
	kjs_pcre_ucp_findchar @ 513 NONAME
	kjs_pcre_version @ 514 NONAME
	kjs_pcre_xclass @ 515 NONAME
	kjs_strtod @ 516 NONAME
	snprintf @ 517 NONAME
	vsnprintf @ 518 NONAME
	_ZN3KJS7UString4fromEi @ 519 NONAME
	_ZN3KJS7UString4fromEj @ 520 NONAME
	_ZNK3KJS7UString4findERKS0_i @ 521 NONAME
	_ZN3KJS7UString6appendEPKc @ 522 NONAME
	JSObjectCallAsConstructor @ 523 NONAME
	JSObjectCallAsFunction @ 524 NONAME
	JSObjectGetPrivate @ 525 NONAME
	JSObjectGetProperty @ 526 NONAME
	JSObjectMake @ 527 NONAME
	JSObjectSetPrivate @ 528 NONAME
	JSObjectSetProperty @ 529 NONAME
	JSStringCreateWithCharacters @ 530 NONAME
	JSStringCreateWithUTF8CString @ 531 NONAME
	JSStringGetCharactersPtr @ 532 NONAME
	JSStringGetLength @ 533 NONAME
	JSStringRelease @ 534 NONAME
	JSValueIsNumber @ 535 NONAME
	JSValueIsString @ 536 NONAME
	JSValueMakeBoolean @ 537 NONAME
	JSValueMakeNumber @ 538 NONAME
	JSValueMakeString @ 539 NONAME
	JSValueMakeUndefined @ 540 NONAME
	JSValueProtect @ 541 NONAME
	NPN_Enumerate @ 542 NONAME

