EXPORTS
	_ZN10SmfGallery11descriptionER10SmfPicture @ 1 NONAME
	_ZN10SmfGallery11postCommentE10SmfPicture10SmfComment @ 2 NONAME
	_ZN10SmfGallery11qt_metacallEN11QMetaObject4CallEiPPv @ 3 NONAME
	_ZN10SmfGallery11qt_metacastEPKc @ 4 NONAME
	_ZN10SmfGallery13cancelRequestEv @ 5 NONAME
	_ZN10SmfGallery13customRequestERKiP10QByteArray @ 6 NONAME
	_ZN10SmfGallery14uploadFinishedE5QListI8SmfErrorE @ 7 NONAME
	_ZN10SmfGallery15albumsAvailableEP5QListI15SmfPictureAlbumE8SmfError13SmfResultPage @ 8 NONAME
	_ZN10SmfGallery16staticMetaObjectE @ 9 NONAME DATA 16
	_ZN10SmfGallery17picturesAvailableEP5QListI10SmfPictureE8SmfError13SmfResultPage @ 10 NONAME
	_ZN10SmfGallery19customDataAvailableEiP10QByteArray @ 11 NONAME
	_ZN10SmfGallery19getStaticMetaObjectEv @ 12 NONAME
	_ZN10SmfGallery20descriptionAvailableE7QString8SmfError @ 13 NONAME
	_ZN10SmfGallery6albumsE11QStringListP10SmfContactii @ 14 NONAME
	_ZN10SmfGallery6uploadEP10SmfPictureP15SmfPictureAlbum @ 15 NONAME
	_ZN10SmfGallery6uploadEP5QListI10SmfPictureEP15SmfPictureAlbum @ 16 NONAME
	_ZN10SmfGallery8picturesER5QListI15SmfPictureAlbumEii @ 17 NONAME
	_ZN10SmfGalleryC1EP11SmfProvider @ 18 NONAME
	_ZN10SmfGalleryC2EP11SmfProvider @ 19 NONAME
	_ZN10SmfGalleryD0Ev @ 20 NONAME
	_ZN10SmfGalleryD1Ev @ 21 NONAME
	_ZN10SmfGalleryD2Ev @ 22 NONAME
	_ZN14SmfMusicSearch11qt_metacallEN11QMetaObject4CallEiPPv @ 23 NONAME
	_ZN14SmfMusicSearch11qt_metacastEPKc @ 24 NONAME
	_ZN14SmfMusicSearch13cancelRequestEv @ 25 NONAME
	_ZN14SmfMusicSearch13customRequestERKiP10QByteArray @ 26 NONAME
	_ZN14SmfMusicSearch13tracksOfAlbumE8SmfAlbumii @ 27 NONAME
	_ZN14SmfMusicSearch13tracksSimilarE12SmfTrackInfoii @ 28 NONAME
	_ZN14SmfMusicSearch14tracksOfArtistE10SmfArtistsii @ 29 NONAME
	_ZN14SmfMusicSearch15recommendationsE12SmfTrackInfoii @ 30 NONAME
	_ZN14SmfMusicSearch16staticMetaObjectE @ 31 NONAME DATA 16
	_ZN14SmfMusicSearch19customDataAvailableERKiP10QByteArray @ 32 NONAME
	_ZN14SmfMusicSearch19getStaticMetaObjectEv @ 33 NONAME
	_ZN14SmfMusicSearch20storeSearchAvailableEP5QListI11SmfProviderE8SmfError13SmfResultPage @ 34 NONAME
	_ZN14SmfMusicSearch20trackSearchAvailableEP5QListI12SmfTrackInfoE8SmfError13SmfResultPage @ 35 NONAME
	_ZN14SmfMusicSearch6storesE12SmfTrackInfoii @ 36 NONAME
	_ZN14SmfMusicSearch9trackInfoE19SmfMusicFingerPrintii @ 37 NONAME
	_ZN14SmfMusicSearchC1EP11SmfProvider @ 38 NONAME
	_ZN14SmfMusicSearchC2EP11SmfProvider @ 39 NONAME
	_ZN14SmfMusicSearchD0Ev @ 40 NONAME
	_ZN14SmfMusicSearchD1Ev @ 41 NONAME
	_ZN14SmfMusicSearchD2Ev @ 42 NONAME
	_ZN14SmfRelationMgr10searchByIdERK7QString @ 43 NONAME
	_ZN14SmfRelationMgr11qt_metacallEN11QMetaObject4CallEiPPv @ 44 NONAME
	_ZN14SmfRelationMgr11qt_metacastEPKc @ 45 NONAME
	_ZN14SmfRelationMgr15getAllRelationsEv @ 46 NONAME
	_ZN14SmfRelationMgr15searchByContactE10SmfContact @ 47 NONAME
	_ZN14SmfRelationMgr16staticMetaObjectE @ 48 NONAME DATA 16
	_ZN14SmfRelationMgr19getStaticMetaObjectEv @ 49 NONAME
	_ZN14SmfRelationMgr3getER7QStringj @ 50 NONAME
	_ZN14SmfRelationMgr5countE7QString @ 51 NONAME
	_ZN14SmfRelationMgr6DeleteER7QString @ 52 NONAME
	_ZN14SmfRelationMgr6createEP11SmfProviderP10SmfContact @ 53 NONAME
	_ZN14SmfRelationMgr6getAllER7QString @ 54 NONAME
	_ZN14SmfRelationMgr6removeER7QStringPK10SmfContact @ 55 NONAME
	_ZN14SmfRelationMgr9associateER7QStringPK10SmfContactP11SmfProvider @ 56 NONAME
	_ZN14SmfRelationMgrC1EP7QObject @ 57 NONAME
	_ZN14SmfRelationMgrC2EP7QObject @ 58 NONAME
	_ZN14SmfRelationMgrD0Ev @ 59 NONAME
	_ZN14SmfRelationMgrD1Ev @ 60 NONAME
	_ZN14SmfRelationMgrD2Ev @ 61 NONAME
	_ZN15SmfMusicService10postRatingE12SmfTrackInfo14SmfMusicRating @ 62 NONAME
	_ZN15SmfMusicService10searchUserE11SmfLocationii @ 63 NONAME
	_ZN15SmfMusicService11qt_metacallEN11QMetaObject4CallEiPPv @ 64 NONAME
	_ZN15SmfMusicService11qt_metacastEPKc @ 65 NONAME
	_ZN15SmfMusicService11searchAlbumE8SmfAlbumii @ 66 NONAME
	_ZN15SmfMusicService11searchVenueE11SmfLocationii @ 67 NONAME
	_ZN15SmfMusicService12postCommentsE12SmfTrackInfo10SmfComment @ 68 NONAME
	_ZN15SmfMusicService12postfinishedE8SmfError @ 69 NONAME
	_ZN15SmfMusicService12searchArtistE10SmfArtistsii @ 70 NONAME
	_ZN15SmfMusicService12searchEventsE8SmfEventii @ 71 NONAME
	_ZN15SmfMusicService13cancelRequestEv @ 72 NONAME
	_ZN15SmfMusicService13customRequestERKiP10QByteArray @ 73 NONAME
	_ZN15SmfMusicService13userMusicInfoEv @ 74 NONAME
	_ZN15SmfMusicService16staticMetaObjectE @ 75 NONAME DATA 16
	_ZN15SmfMusicService18postCurrentPlayingE12SmfTrackInfo @ 76 NONAME
	_ZN15SmfMusicService19customDataAvailableERKiP10QByteArray @ 77 NONAME
	_ZN15SmfMusicService19getStaticMetaObjectEv @ 78 NONAME
	_ZN15SmfMusicService22userMusicInfoAvailableEP15SmfMusicProfile8SmfError @ 79 NONAME
	_ZN15SmfMusicService23searchUserInfoAvailableEP5QListI15SmfMusicProfileE8SmfError13SmfResultPage @ 80 NONAME
	_ZN15SmfMusicService24searchAlbumInfoAvailableEP5QListI8SmfAlbumE8SmfError13SmfResultPage @ 81 NONAME
	_ZN15SmfMusicService24searchVenueInfoAvailableEP5QListI11SmfLocationE8SmfError13SmfResultPage @ 82 NONAME
	_ZN15SmfMusicService25searchArtistInfoAvailableEP5QListI10SmfArtistsE8SmfError13SmfResultPage @ 83 NONAME
	_ZN15SmfMusicService25searchEventsInfoAvailableEP5QListI8SmfEventE8SmfError13SmfResultPage @ 84 NONAME
	_ZN15SmfMusicServiceC1EP11SmfProvider @ 85 NONAME
	_ZN15SmfMusicServiceC2EP11SmfProvider @ 86 NONAME
	_ZN15SmfMusicServiceD0Ev @ 87 NONAME
	_ZN15SmfMusicServiceD1Ev @ 88 NONAME
	_ZN15SmfMusicServiceD2Ev @ 89 NONAME
	_ZN15SmfPostProvider10updatePostER7SmfPost @ 90 NONAME
	_ZN15SmfPostProvider11qt_metacallEN11QMetaObject4CallEiPPv @ 91 NONAME
	_ZN15SmfPostProvider11qt_metacastEPKc @ 92 NONAME
	_ZN15SmfPostProvider12postDirectedER7SmfPostR10SmfContactP11SmfLocation @ 93 NONAME
	_ZN15SmfPostProvider12postFinishedE8SmfError @ 94 NONAME
	_ZN15SmfPostProvider13cancelRequestEv @ 95 NONAME
	_ZN15SmfPostProvider13customRequestERKiP10QByteArray @ 96 NONAME
	_ZN15SmfPostProvider14commentOnAPostER7SmfPostS1_P11SmfLocation @ 97 NONAME
	_ZN15SmfPostProvider14postAppearenceE17SmfAppearenceInfoRK7QString @ 98 NONAME
	_ZN15SmfPostProvider14postsAvailableEP5QListI7SmfPostE8SmfError13SmfResultPage @ 99 NONAME
	_ZN15SmfPostProvider16staticMetaObjectE @ 100 NONAME DATA 16
	_ZN15SmfPostProvider19customDataAvailableEiP10QByteArray @ 101 NONAME
	_ZN15SmfPostProvider19getStaticMetaObjectEv @ 102 NONAME
	_ZN15SmfPostProvider4postER7SmfPostR11SmfLocation @ 103 NONAME
	_ZN15SmfPostProvider5postsEP10SmfContactii @ 104 NONAME
	_ZN15SmfPostProvider9sharePostER7SmfPostR10SmfContactb @ 105 NONAME
	_ZN15SmfPostProviderC1EP11SmfProvider @ 106 NONAME
	_ZN15SmfPostProviderC2EP11SmfProvider @ 107 NONAME
	_ZN15SmfPostProviderD0Ev @ 108 NONAME
	_ZN15SmfPostProviderD1Ev @ 109 NONAME
	_ZN15SmfPostProviderD2Ev @ 110 NONAME
	_ZN15SmfRelationItem10setContactER10SmfContact @ 111 NONAME
	_ZN15SmfRelationItem11setProviderER11SmfProvider @ 112 NONAME
	_ZN15SmfRelationItem8setIndexEj @ 113 NONAME
	_ZN15SmfRelationItemC1Ev @ 114 NONAME
	_ZN15SmfRelationItemC2Ev @ 115 NONAME
	_ZN16SmfEventsFetcher10postEventsE5QListI8SmfEventE @ 116 NONAME
	_ZN16SmfEventsFetcher11qt_metacallEN11QMetaObject4CallEiPPv @ 117 NONAME
	_ZN16SmfEventsFetcher11qt_metacastEPKc @ 118 NONAME
	_ZN16SmfEventsFetcher13cancelRequestEv @ 119 NONAME
	_ZN16SmfEventsFetcher13customRequestERKiP10QByteArray @ 120 NONAME
	_ZN16SmfEventsFetcher13eventsUpdatedE8SmfError @ 121 NONAME
	_ZN16SmfEventsFetcher15eventsAvailableEP5QListI8SmfEventE8SmfError13SmfResultPage @ 122 NONAME
	_ZN16SmfEventsFetcher15venuesAvailableEP5QListI11SmfLocationE8SmfError13SmfResultPage @ 123 NONAME
	_ZN16SmfEventsFetcher16staticMetaObjectE @ 124 NONAME DATA 16
	_ZN16SmfEventsFetcher18attendeesAvailableEP5QListI10SmfContactE8SmfError13SmfResultPage @ 125 NONAME
	_ZN16SmfEventsFetcher19customDataAvailableERKiP10QByteArray @ 126 NONAME
	_ZN16SmfEventsFetcher19getStaticMetaObjectEv @ 127 NONAME
	_ZN16SmfEventsFetcher6eventsE11SmfLocationii @ 128 NONAME
	_ZN16SmfEventsFetcher6venuesE11SmfLocationii @ 129 NONAME
	_ZN16SmfEventsFetcher9attendeesE8SmfEventii @ 130 NONAME
	_ZN16SmfEventsFetcherC1EP11SmfProvider @ 131 NONAME
	_ZN16SmfEventsFetcherC2EP11SmfProvider @ 132 NONAME
	_ZN16SmfEventsFetcherD0Ev @ 133 NONAME
	_ZN16SmfEventsFetcherD1Ev @ 134 NONAME
	_ZN16SmfEventsFetcherD2Ev @ 135 NONAME
	_ZN16SmfLyricsService11qt_metacallEN11QMetaObject4CallEiPPv @ 136 NONAME
	_ZN16SmfLyricsService11qt_metacastEPKc @ 137 NONAME
	_ZN16SmfLyricsService13cancelRequestEv @ 138 NONAME
	_ZN16SmfLyricsService13customRequestERKiP10QByteArray @ 139 NONAME
	_ZN16SmfLyricsService15lyricsAvailableEP5QListI9SmfLyricsE8SmfError13SmfResultPage @ 140 NONAME
	_ZN16SmfLyricsService16staticMetaObjectE @ 141 NONAME DATA 16
	_ZN16SmfLyricsService17subtitleAvailableEP5QListI11SmfSubtitleE8SmfError13SmfResultPage @ 142 NONAME
	_ZN16SmfLyricsService19customDataAvailableERKiP10QByteArray @ 143 NONAME
	_ZN16SmfLyricsService19getStaticMetaObjectEv @ 144 NONAME
	_ZN16SmfLyricsService6lyricsE12SmfTrackInfoii @ 145 NONAME
	_ZN16SmfLyricsService9subtitlesE12SmfTrackInfo23SmfSubtitleSearchFilterii @ 146 NONAME
	_ZN16SmfLyricsServiceC1EP11SmfProvider @ 147 NONAME
	_ZN16SmfLyricsServiceC2EP11SmfProvider @ 148 NONAME
	_ZN16SmfLyricsServiceD0Ev @ 149 NONAME
	_ZN16SmfLyricsServiceD1Ev @ 150 NONAME
	_ZN16SmfLyricsServiceD2Ev @ 151 NONAME
	_ZN17SmfContactFetcher10searchNearEP11SmfLocation25SmfLocationSearchBoundaryii @ 152 NONAME
	_ZN17SmfContactFetcher11qt_metacallEN11QMetaObject4CallEiPPv @ 153 NONAME
	_ZN17SmfContactFetcher11qt_metacastEPKc @ 154 NONAME
	_ZN17SmfContactFetcher13cancelRequestEv @ 155 NONAME
	_ZN17SmfContactFetcher13customRequestERKiP10QByteArray @ 156 NONAME
	_ZN17SmfContactFetcher13searchInGroupE8SmfGroupP10SmfContactii @ 157 NONAME
	_ZN17SmfContactFetcher16staticMetaObjectE @ 158 NONAME DATA 16
	_ZN17SmfContactFetcher18groupListAvailableEP5QListI8SmfGroupE8SmfError13SmfResultPage @ 159 NONAME
	_ZN17SmfContactFetcher18searchNearFinishedEP5QListI10SmfContactE8SmfError13SmfResultPage @ 160 NONAME
	_ZN17SmfContactFetcher19customDataAvailableEiP10QByteArray @ 161 NONAME
	_ZN17SmfContactFetcher19getStaticMetaObjectEv @ 162 NONAME
	_ZN17SmfContactFetcher20friendsListAvailableEP5QListI10SmfContactE8SmfError13SmfResultPage @ 163 NONAME
	_ZN17SmfContactFetcher21searchContactFinishedEP5QListI10SmfContactE8SmfError13SmfResultPage @ 164 NONAME
	_ZN17SmfContactFetcher21searchInGroupFinishedEP5QListI10SmfContactE8SmfError13SmfResultPage @ 165 NONAME
	_ZN17SmfContactFetcher22followersListAvailableEP5QListI10SmfContactE8SmfError13SmfResultPage @ 166 NONAME
	_ZN17SmfContactFetcher6groupsEii @ 167 NONAME
	_ZN17SmfContactFetcher6searchEP10SmfContactii @ 168 NONAME
	_ZN17SmfContactFetcher7friendsEii @ 169 NONAME
	_ZN17SmfContactFetcher9followersEii @ 170 NONAME
	_ZN17SmfContactFetcherC1EP11SmfProvider @ 171 NONAME
	_ZN17SmfContactFetcherC1EP11SmfProviderP10SmfContact @ 172 NONAME
	_ZN17SmfContactFetcherC2EP11SmfProvider @ 173 NONAME
	_ZN17SmfContactFetcherC2EP11SmfProviderP10SmfContact @ 174 NONAME
	_ZN17SmfContactFetcherD0Ev @ 175 NONAME
	_ZN17SmfContactFetcherD1Ev @ 176 NONAME
	_ZN17SmfContactFetcherD2Ev @ 177 NONAME
	_ZN18SmfActivityFetcher11qt_metacallEN11QMetaObject4CallEiPPv @ 178 NONAME
	_ZN18SmfActivityFetcher11qt_metacastEPKc @ 179 NONAME
	_ZN18SmfActivityFetcher13cancelRequestEv @ 180 NONAME
	_ZN18SmfActivityFetcher13customRequestERKiP10QByteArray @ 181 NONAME
	_ZN18SmfActivityFetcher14selfActivitiesEii @ 182 NONAME
	_ZN18SmfActivityFetcher16resultsAvailableEP5QListI16SmfActivityEntryE8SmfError13SmfResultPage @ 183 NONAME
	_ZN18SmfActivityFetcher16staticMetaObjectE @ 184 NONAME DATA 16
	_ZN18SmfActivityFetcher17friendsActivitiesERK10SmfContactii @ 185 NONAME
	_ZN18SmfActivityFetcher19customDataAvailableERKiP10QByteArray @ 186 NONAME
	_ZN18SmfActivityFetcher19getStaticMetaObjectEv @ 187 NONAME
	_ZN18SmfActivityFetcher8filteredE5QListI21SmfActivityObjectTypeEii @ 188 NONAME
	_ZN18SmfActivityFetcherC1EP11SmfProvider @ 189 NONAME
	_ZN18SmfActivityFetcherC2EP11SmfProvider @ 190 NONAME
	_ZN18SmfActivityFetcherD0Ev @ 191 NONAME
	_ZN18SmfActivityFetcherD1Ev @ 192 NONAME
	_ZN18SmfActivityFetcherD2Ev @ 193 NONAME
	_ZN18SmfPlaylistService11playlistsOfEP10SmfContactii @ 194 NONAME
	_ZN18SmfPlaylistService11qt_metacallEN11QMetaObject4CallEiPPv @ 195 NONAME
	_ZN18SmfPlaylistService11qt_metacastEPKc @ 196 NONAME
	_ZN18SmfPlaylistService13addToPlaylistE11SmfPlaylistP5QListI12SmfTrackInfoE @ 197 NONAME
	_ZN18SmfPlaylistService13cancelRequestEv @ 198 NONAME
	_ZN18SmfPlaylistService13customRequestERKiP10QByteArray @ 199 NONAME
	_ZN18SmfPlaylistService15playlistUpdatedE8SmfError @ 200 NONAME
	_ZN18SmfPlaylistService16staticMetaObjectE @ 201 NONAME DATA 16
	_ZN18SmfPlaylistService19customDataAvailableERKiP10QByteArray @ 202 NONAME
	_ZN18SmfPlaylistService19getStaticMetaObjectEv @ 203 NONAME
	_ZN18SmfPlaylistService22playlistsListAvailableEP5QListI11SmfPlaylistE8SmfError13SmfResultPage @ 204 NONAME
	_ZN18SmfPlaylistService26postCurrentPlayingPlaylistE11SmfPlaylist @ 205 NONAME
	_ZN18SmfPlaylistService9playlistsEii @ 206 NONAME
	_ZN18SmfPlaylistServiceC1EP11SmfProvider @ 207 NONAME
	_ZN18SmfPlaylistServiceC2EP11SmfProvider @ 208 NONAME
	_ZN18SmfPlaylistServiceD0Ev @ 209 NONAME
	_ZN18SmfPlaylistServiceD1Ev @ 210 NONAME
	_ZN18SmfPlaylistServiceD2Ev @ 211 NONAME
	_ZN9SmfClient11GetServicesERK7QString @ 212 NONAME
	_ZN9SmfClientC1Ev @ 213 NONAME
	_ZN9SmfClientC2Ev @ 214 NONAME
	_ZN9SmfClientD1Ev @ 215 NONAME
	_ZN9SmfClientD2Ev @ 216 NONAME
	_ZNK10SmfGallery10metaObjectEv @ 217 NONAME
	_ZNK10SmfGallery11getProviderEv @ 218 NONAME
	_ZNK14SmfMusicSearch10metaObjectEv @ 219 NONAME
	_ZNK14SmfMusicSearch11getProviderEv @ 220 NONAME
	_ZNK14SmfRelationMgr10metaObjectEv @ 221 NONAME
	_ZNK15SmfMusicService10metaObjectEv @ 222 NONAME
	_ZNK15SmfMusicService11getProviderEv @ 223 NONAME
	_ZNK15SmfPostProvider10metaObjectEv @ 224 NONAME
	_ZNK15SmfPostProvider11getProviderEv @ 225 NONAME
	_ZNK15SmfPostProvider14maxCharsInPostEv @ 226 NONAME
	_ZNK15SmfPostProvider16supportedFormatsEv @ 227 NONAME
	_ZNK15SmfPostProvider18supportsAppearenceEv @ 228 NONAME
	_ZNK15SmfPostProvider8maxItemsEv @ 229 NONAME
	_ZNK15SmfRelationItem10getContactEv @ 230 NONAME
	_ZNK15SmfRelationItem11getProviderEv @ 231 NONAME
	_ZNK15SmfRelationItem8getIndexEv @ 232 NONAME
	_ZNK16SmfEventsFetcher10metaObjectEv @ 233 NONAME
	_ZNK16SmfEventsFetcher11getProviderEv @ 234 NONAME
	_ZNK16SmfLyricsService10metaObjectEv @ 235 NONAME
	_ZNK16SmfLyricsService11getProviderEv @ 236 NONAME
	_ZNK17SmfContactFetcher10metaObjectEv @ 237 NONAME
	_ZNK17SmfContactFetcher11getProviderEv @ 238 NONAME
	_ZNK18SmfActivityFetcher10metaObjectEv @ 239 NONAME
	_ZNK18SmfActivityFetcher11getProviderEv @ 240 NONAME
	_ZNK18SmfPlaylistService10metaObjectEv @ 241 NONAME
	_ZNK18SmfPlaylistService11getProviderEv @ 242 NONAME
	_ZNK9SmfClient11errorStringERK8SmfError @ 243 NONAME
	_ZTI10SmfGallery @ 244 NONAME
	_ZTI14SmfMusicSearch @ 245 NONAME
	_ZTI14SmfRelationMgr @ 246 NONAME
	_ZTI15SmfMusicService @ 247 NONAME
	_ZTI15SmfPostProvider @ 248 NONAME
	_ZTI16SmfEventsFetcher @ 249 NONAME
	_ZTI16SmfLyricsService @ 250 NONAME
	_ZTI17SmfContactFetcher @ 251 NONAME
	_ZTI18SmfActivityFetcher @ 252 NONAME
	_ZTI18SmfPlaylistService @ 253 NONAME
	_ZTV10SmfGallery @ 254 NONAME
	_ZTV14SmfMusicSearch @ 255 NONAME
	_ZTV14SmfRelationMgr @ 256 NONAME
	_ZTV15SmfMusicService @ 257 NONAME
	_ZTV15SmfPostProvider @ 258 NONAME
	_ZTV16SmfEventsFetcher @ 259 NONAME
	_ZTV16SmfLyricsService @ 260 NONAME
	_ZTV17SmfContactFetcher @ 261 NONAME
	_ZTV18SmfActivityFetcher @ 262 NONAME
	_ZTV18SmfPlaylistService @ 263 NONAME
	_ZlsR11QDataStreamRK15SmfRelationItem @ 264 NONAME
	_ZrsR11QDataStreamR15SmfRelationItem @ 265 NONAME

