EXPORTS
	??0RWidgetRegistryClientSession@@QAE@XZ @ 1 NONAME ; RWidgetRegistryClientSession::RWidgetRegistryClientSession(void)
	?Connect@RWidgetRegistryClientSession@@QAEHXZ @ 2 NONAME ; int RWidgetRegistryClientSession::Connect(void)
	?DeRegisterWidgetL@RWidgetRegistryClientSession@@QAEXABVTUid@@@Z @ 3 NONAME ; void RWidgetRegistryClientSession::DeRegisterWidgetL(class TUid const &)
	?Disconnect@RWidgetRegistryClientSession@@QAEHXZ @ 4 NONAME ; int RWidgetRegistryClientSession::Disconnect(void)
	?GetAvailableUidL@RWidgetRegistryClientSession@@QAE?AVTUid@@I@Z @ 5 NONAME ; class TUid RWidgetRegistryClientSession::GetAvailableUidL(unsigned int)
	?GetLprojName@RWidgetRegistryClientSession@@QAEXAAVTDes16@@@Z @ 6 NONAME ; void RWidgetRegistryClientSession::GetLprojName(class TDes16 &)
	?GetWidgetBundleId@RWidgetRegistryClientSession@@QAEXABVTUid@@AAVTDes16@@@Z @ 7 NONAME ; void RWidgetRegistryClientSession::GetWidgetBundleId(class TUid const &, class TDes16 &)
	?GetWidgetBundleName@RWidgetRegistryClientSession@@QAEXABVTUid@@AAVTDes16@@@Z @ 8 NONAME ; void RWidgetRegistryClientSession::GetWidgetBundleName(class TUid const &, class TDes16 &)
	?GetWidgetPath@RWidgetRegistryClientSession@@QAEXABVTUid@@AAVTDes16@@@Z @ 9 NONAME ; void RWidgetRegistryClientSession::GetWidgetPath(class TUid const &, class TDes16 &)
	?GetWidgetPropertyValueL@RWidgetRegistryClientSession@@QAEPAVCWidgetPropertyValue@@ABVTUid@@W4TWidgetPropertyId@@@Z @ 10 NONAME ; class CWidgetPropertyValue * RWidgetRegistryClientSession::GetWidgetPropertyValueL(class TUid const &, enum TWidgetPropertyId)
	?GetWidgetUidForUrl@RWidgetRegistryClientSession@@QAEHABVTDesC16@@@Z @ 11 NONAME ; int RWidgetRegistryClientSession::GetWidgetUidForUrl(class TDesC16 const &)
	?GetWidgetUidL@RWidgetRegistryClientSession@@QAEHABVTDesC16@@@Z @ 12 NONAME ; int RWidgetRegistryClientSession::GetWidgetUidL(class TDesC16 const &)
	?InstalledWidgetsL@RWidgetRegistryClientSession@@QAEHAAV?$RPointerArray@VCWidgetInfo@@@@@Z @ 13 NONAME ; int RWidgetRegistryClientSession::InstalledWidgetsL(class RPointerArray<class CWidgetInfo> &)
	?IsWidget@RWidgetRegistryClientSession@@QAEHABVTUid@@@Z @ 14 NONAME ; int RWidgetRegistryClientSession::IsWidget(class TUid const &)
	?IsWidgetRunning@RWidgetRegistryClientSession@@QAEHABVTUid@@@Z @ 15 NONAME ; int RWidgetRegistryClientSession::IsWidgetRunning(class TUid const &)
	?RegisterWidgetL@RWidgetRegistryClientSession@@QAEXABV?$RPointerArray@VCWidgetPropertyValue@@@@@Z @ 16 NONAME ; void RWidgetRegistryClientSession::RegisterWidgetL(class RPointerArray<class CWidgetPropertyValue> const &)
	?RunningWidgetsL@RWidgetRegistryClientSession@@QAEHAAV?$RPointerArray@VCWidgetInfo@@@@@Z @ 17 NONAME ; int RWidgetRegistryClientSession::RunningWidgetsL(class RPointerArray<class CWidgetInfo> &)
	?SetActive@RWidgetRegistryClientSession@@QAEXABVTUid@@H@Z @ 18 NONAME ; void RWidgetRegistryClientSession::SetActive(class TUid const &, int)
	?Version@RWidgetRegistryClientSession@@QBE?AVTVersion@@XZ @ 19 NONAME ; class TVersion RWidgetRegistryClientSession::Version(void) const
	?WidgetCount@RWidgetRegistryClientSession@@QAEHAAH@Z @ 20 NONAME ; int RWidgetRegistryClientSession::WidgetCount(int &)
	?WidgetExistsL@RWidgetRegistryClientSession@@QAEHABVTDesC16@@@Z @ 21 NONAME ; int RWidgetRegistryClientSession::WidgetExistsL(class TDesC16 const &)
	?SecurityPolicyId@RWidgetRegistryClientSession@@QAEHXZ @ 22 NONAME ; int RWidgetRegistryClientSession::SecurityPolicyId(void)
	?IsBlanketPermGranted@RWidgetRegistryClientSession@@QAEHABVTUid@@@Z @ 23 NONAME ; int RWidgetRegistryClientSession::IsBlanketPermGranted(class TUid const &)
	?IsWidgetInFullView@RWidgetRegistryClientSession@@QAEHABVTUid@@@Z @ 24 NONAME ; int RWidgetRegistryClientSession::IsWidgetInFullView(class TUid const &)
	?IsWidgetInMiniView@RWidgetRegistryClientSession@@QAEHABVTUid@@@Z @ 25 NONAME ; int RWidgetRegistryClientSession::IsWidgetInMiniView(class TUid const &)
	?SetBlanketPermissionL@RWidgetRegistryClientSession@@QAEXABVTUid@@H@Z @ 26 NONAME ; void RWidgetRegistryClientSession::SetBlanketPermissionL(class TUid const &, int)
	?SetFullViewL@RWidgetRegistryClientSession@@QAEXABVTUid@@H@Z @ 27 NONAME ; void RWidgetRegistryClientSession::SetFullViewL(class TUid const &, int)
	?SetMiniViewL@RWidgetRegistryClientSession@@QAEXABVTUid@@H@Z @ 28 NONAME ; void RWidgetRegistryClientSession::SetMiniViewL(class TUid const &, int)
	?WidgetSapiAccessState@RWidgetRegistryClientSession@@QAEHABVTUid@@@Z @ 29 NONAME ; int RWidgetRegistryClientSession::WidgetSapiAccessState(class TUid const &)

