EXPORTS
	_ZN11CCodEngBase11SetObserverEP16MCodLoadObserver @ 1 NONAME
	_ZN11CCodEngBase4SetLERK6TDesC8P14TRequestStatusPK20CAiwGenericParamListPK13RPointerArrayI9CBodyPartE @ 2 NONAME
	_ZN11CCodEngBase4StopEv @ 3 NONAME
	_ZN11CCodEngBase6AcceptEP14TRequestStatus @ 4 NONAME
	_ZN11CCodEngBase6RejectEP14TRequestStatus @ 5 NONAME
	_ZN11CCodEngBaseD0Ev @ 6 NONAME
	_ZN11CCodEngBaseD1Ev @ 7 NONAME
	_ZN11CCodEngBaseD2Ev @ 8 NONAME
	_ZN6CDdEng4NewLEP11CEikProcessP16MCodLoadObserver @ 9 NONAME
	_ZN6CDdEngD0Ev @ 10 NONAME
	_ZN6CDdEngD1Ev @ 11 NONAME
	_ZN6CDdEngD2Ev @ 12 NONAME
	_ZN7CCodEng4NewLEP11CEikProcessP16MCodLoadObserver @ 13 NONAME
	_ZN7CCodEngD0Ev @ 14 NONAME
	_ZN7CCodEngD1Ev @ 15 NONAME
	_ZN7CCodEngD2Ev @ 16 NONAME
	_ZN7CodUtil11GetIntParamERiiRK20CAiwGenericParamList @ 17 NONAME
	_ZN7CodUtil12GetBoolParamERiiRK20CAiwGenericParamList @ 18 NONAME
	_ZN7CodUtil13AbsoluteUrlLCERK6TDesC8S2_ @ 19 NONAME
	_ZN7CodUtil13GetDesParamLCER6TPtrC8iRK20CAiwGenericParamList @ 20 NONAME
	_ZN7CodUtil14GetUint32ParamERmiRK20CAiwGenericParamList @ 21 NONAME
	_ZN7CodUtil8ConvertLERK6TDesC8 @ 22 NONAME
	_ZN7CodUtil8ConvertLERK7TDesC16 @ 23 NONAME
	_ZN7CodUtil9ConvertLCERK6TDesC8 @ 24 NONAME
	_ZN7CodUtil9ConvertLCERK7TDesC16 @ 25 NONAME
	_ZN8CCodData4NewLEv @ 26 NONAME
	_ZN8CCodData5ResetEv @ 27 NONAME
	_ZN8CCodDataD0Ev @ 28 NONAME
	_ZN8CCodDataD1Ev @ 29 NONAME
	_ZN8CCodDataD2Ev @ 30 NONAME
	_ZNK11CCodEngBase10GetHandlerEv @ 31 NONAME
	_ZNK11CCodEngBase11GetRoapDataEv @ 32 NONAME
	_ZNK11CCodEngBase13GetStatusCodeEv @ 33 NONAME
	_ZNK11CCodEngBase4DataEv @ 34 NONAME
	_ZNK11CCodEngBase7GetPathEv @ 35 NONAME
	_ZNK11CCodEngBase7GetTypeEv @ 36 NONAME
	_ZNK8CCodData11DescriptionEv @ 37 NONAME
	_ZNK8CCodData13InstallNotifyEv @ 38 NONAME
	_ZNK8CCodData14NextUrlAtErrorEv @ 39 NONAME
	_ZNK8CCodData3UrlEv @ 40 NONAME ABSENT
	_ZNK8CCodData4IconEv @ 41 NONAME
	_ZNK8CCodData4NameEv @ 42 NONAME
	_ZNK8CCodData4SizeEv @ 43 NONAME
	_ZNK8CCodData4TypeEv @ 44 NONAME ABSENT
	_ZNK8CCodData5PriceEv @ 45 NONAME
	_ZNK8CCodData5TypesEv @ 46 NONAME ABSENT
	_ZNK8CCodData6VendorEv @ 47 NONAME
	_ZNK8CCodData7InfoUrlEv @ 48 NONAME
	_ZNK8CCodData7IsValidEv @ 49 NONAME
	_ZNK8CCodData7NextUrlEv @ 50 NONAME
	_ZNK8CCodData7VersionEv @ 51 NONAME
	_ZNK8CCodData9SourceUriEv @ 52 NONAME
	_ZN7CodUtil8CanOpenLERK7TDesC16 @ 53 NONAME
	_ZNK11CCodEngBase14RemovableMediaEv @ 54 NONAME
	_ZN7CodUtil11GetDesParamER7TPtrC16iRK20CAiwGenericParamList @ 55 NONAME
	_ZN7CodUtil8CanOpenLER5RFile @ 56 NONAME
	_ZNK8CCodData11IsPostOrderEv @ 57 NONAME
	_ZNK8CCodData19ProgressiveDownloadEv @ 58 NONAME ABSENT
	_ZN11CCodEngBase16SetCodDlAttachedEi @ 59 NONAME
	_ZNK8CCodData15SuppressConfirmEv @ 60 NONAME
	_ZNK8CCodData13UpdatedDDUriLEv @ 61 NONAME
	_ZN11CCodEngBase5PauseEv @ 62 NONAME
	_ZN11CCodEngBase8PausableEv @ 63 NONAME
	_ZN11CCodEngBase14ActiveDownloadEv @ 64 NONAME
	_ZN11CCodEngBase17UpdatedTrackDataLERi @ 65 NONAME
	_ZN11CCodEngBase20UpdatedDownloadDataLEv @ 66 NONAME
	_ZN11CCodEngBase4SetLEi4TUidPK13RPointerArrayI9CBodyPartE @ 67 NONAME
	_ZN11CCodEngBase5StartEPK20CAiwGenericParamListP14TRequestStatus @ 68 NONAME
	_ZN16CMediaObjectData4NewLEv @ 69 NONAME
	_ZN16CMediaObjectData5ResetEv @ 70 NONAME
	_ZN16CMediaObjectDataD0Ev @ 71 NONAME
	_ZN16CMediaObjectDataD1Ev @ 72 NONAME
	_ZN16CMediaObjectDataD2Ev @ 73 NONAME
	_ZN8CCodDataixEi @ 74 NONAME
	_ZNK11CCodEngBase15GetDestFilePathEi @ 75 NONAME
	_ZNK11CCodEngBase20GetProductStatusCodeEv @ 76 NONAME
	_ZNK16CMediaObjectData11DescriptionEv @ 77 NONAME
	_ZNK16CMediaObjectData11IsPostOrderEv @ 78 NONAME
	_ZNK16CMediaObjectData13InstallNotifyEv @ 79 NONAME
	_ZNK16CMediaObjectData14DownloadedSizeEv @ 80 NONAME
	_ZNK16CMediaObjectData19ProgressiveDownloadEv @ 81 NONAME
	_ZNK16CMediaObjectData3UrlEv @ 82 NONAME
	_ZNK16CMediaObjectData4IconEv @ 83 NONAME
	_ZNK16CMediaObjectData4NameEv @ 84 NONAME
	_ZNK16CMediaObjectData4SizeEv @ 85 NONAME
	_ZNK16CMediaObjectData4TypeEv @ 86 NONAME
	_ZNK16CMediaObjectData5PriceEv @ 87 NONAME
	_ZNK16CMediaObjectData5StateEv @ 88 NONAME
	_ZNK16CMediaObjectData5TypesEv @ 89 NONAME
	_ZNK16CMediaObjectData7InfoUrlEv @ 90 NONAME
	_ZNK16CMediaObjectData7IsValidEv @ 91 NONAME
	_ZNK16CMediaObjectData9SourceUriEv @ 92 NONAME
	_ZNK8CCodData14ActiveDownloadEv @ 93 NONAME
	_ZNK8CCodDataixEi @ 94 NONAME

