EXPORTS
	_ZN10TUPnPTable5TableEv @ 1 NONAME
	_ZN12TSigParamSet19GetVDataTableStaticEv @ 2 NONAME
	_ZN12TSigSsdpInfo19GetVDataTableStaticEv @ 3 NONAME
	_ZN12TUpnpMessage10DeRegisterEv @ 4 NONAME
	_ZN12TUpnpMessage9RegisterLEPN3Den19CCommonWorkerThreadE @ 5 NONAME
	_ZN14TSigTUint8Size19GetVDataTableStaticEv @ 6 NONAME
	_ZN14TUPnPFlowQuery19GetVDataTableStaticEv @ 7 NONAME
	_ZN14TUPnPFlowQuery5MatchERN9Factories18TFactoryObjectInfoE @ 8 NONAME
	_ZN15TSigParamSetAny19GetVDataTableStaticEv @ 9 NONAME
	_ZN16TSigParamSetFlow19GetVDataTableStaticEv @ 10 NONAME
	_ZN17THttpUdpFlowQuery19GetVDataTableStaticEv @ 11 NONAME
	_ZN17TSigRMemChunkFlow19GetVDataTableStaticEv @ 12 NONAME
	_ZN18TSigNumberMemChunk19GetVDataTableStaticEv @ 13 NONAME
	_ZN19SMetaDataNetCtorExt5LoadLER6TPtrC8 @ 14 NONAME
	_ZN20THttpClientFlowQuery19GetVDataTableStaticEv @ 15 NONAME
	_ZN20THttpServerFlowQuery19GetVDataTableStaticEv @ 16 NONAME
	_ZN20TSigUPnPResponseInfo19GetVDataTableStaticEv @ 17 NONAME
	_ZN21TSubscribeRequestInfo19GetVDataTableStaticEv @ 18 NONAME
	_ZN21TSubsribeResponseInfo19GetVDataTableStaticEv @ 19 NONAME
	_ZN23TEventNotifyRequestInfo19GetVDataTableStaticEv @ 20 NONAME
	_ZN25TSigNumberVersionMemChunk19GetVDataTableStaticEv @ 21 NONAME
	_ZN25TSigUPnPClientRequestInfo19GetVDataTableStaticEv @ 22 NONAME
	_ZNK12TSigParamSet12GetAttribPtrEi @ 23 NONAME
	_ZNK12TSigParamSet13GetVDataTableEv @ 24 NONAME
	_ZNK12TSigSsdpInfo12GetAttribPtrEi @ 25 NONAME
	_ZNK12TSigSsdpInfo13GetVDataTableEv @ 26 NONAME
	_ZNK14TSigTUint8Size12GetAttribPtrEi @ 27 NONAME
	_ZNK14TSigTUint8Size13GetVDataTableEv @ 28 NONAME
	_ZNK14TUPnPFlowQuery12GetAttribPtrEi @ 29 NONAME
	_ZNK14TUPnPFlowQuery13GetVDataTableEv @ 30 NONAME
	_ZNK15TSigParamSetAny12GetAttribPtrEi @ 31 NONAME
	_ZNK15TSigParamSetAny13GetVDataTableEv @ 32 NONAME
	_ZNK16TSigParamSetFlow12GetAttribPtrEi @ 33 NONAME
	_ZNK16TSigParamSetFlow13GetVDataTableEv @ 34 NONAME
	_ZNK17THttpUdpFlowQuery12GetAttribPtrEi @ 35 NONAME
	_ZNK17THttpUdpFlowQuery13GetVDataTableEv @ 36 NONAME
	_ZNK17TSigRMemChunkFlow12GetAttribPtrEi @ 37 NONAME
	_ZNK17TSigRMemChunkFlow13GetVDataTableEv @ 38 NONAME
	_ZNK18TSigNumberMemChunk12GetAttribPtrEi @ 39 NONAME
	_ZNK18TSigNumberMemChunk13GetVDataTableEv @ 40 NONAME
	_ZNK20THttpClientFlowQuery12GetAttribPtrEi @ 41 NONAME
	_ZNK20THttpClientFlowQuery13GetVDataTableEv @ 42 NONAME
	_ZNK20THttpServerFlowQuery12GetAttribPtrEi @ 43 NONAME
	_ZNK20THttpServerFlowQuery13GetVDataTableEv @ 44 NONAME
	_ZNK20TSigUPnPResponseInfo12GetAttribPtrEi @ 45 NONAME
	_ZNK20TSigUPnPResponseInfo13GetVDataTableEv @ 46 NONAME
	_ZNK21TSubscribeRequestInfo12GetAttribPtrEi @ 47 NONAME
	_ZNK21TSubscribeRequestInfo13GetVDataTableEv @ 48 NONAME
	_ZNK21TSubsribeResponseInfo12GetAttribPtrEi @ 49 NONAME
	_ZNK21TSubsribeResponseInfo13GetVDataTableEv @ 50 NONAME
	_ZNK23TEventNotifyRequestInfo12GetAttribPtrEi @ 51 NONAME
	_ZNK23TEventNotifyRequestInfo13GetVDataTableEv @ 52 NONAME
	_ZNK25TSigNumberVersionMemChunk12GetAttribPtrEi @ 53 NONAME
	_ZNK25TSigNumberVersionMemChunk13GetVDataTableEv @ 54 NONAME
	_ZNK25TSigUPnPClientRequestInfo12GetAttribPtrEi @ 55 NONAME
	_ZNK25TSigUPnPClientRequestInfo13GetVDataTableEv @ 56 NONAME
	_ZTI12TSigParamSet @ 57 NONAME
	_ZTI12TSigSsdpInfo @ 58 NONAME
	_ZTI14TSigTUint8Size @ 59 NONAME
	_ZTI14TUPnPFlowQuery @ 60 NONAME
	_ZTI15TSigParamSetAny @ 61 NONAME
	_ZTI16TSigParamSetFlow @ 62 NONAME
	_ZTI17THttpUdpFlowQuery @ 63 NONAME
	_ZTI17TSigRMemChunkFlow @ 64 NONAME
	_ZTI18TSigNumberMemChunk @ 65 NONAME
	_ZTI20THttpClientFlowQuery @ 66 NONAME
	_ZTI20THttpServerFlowQuery @ 67 NONAME
	_ZTI20TSigUPnPResponseInfo @ 68 NONAME
	_ZTI21TSubscribeRequestInfo @ 69 NONAME
	_ZTI21TSubsribeResponseInfo @ 70 NONAME
	_ZTI23TEventNotifyRequestInfo @ 71 NONAME
	_ZTI25TSigNumberVersionMemChunk @ 72 NONAME
	_ZTI25TSigUPnPClientRequestInfo @ 73 NONAME
	_ZTIN4Meta5TMetaI12TAppProtAddrEE @ 74 NONAME
	_ZTIN4Meta5TMetaI8TVersionEE @ 75 NONAME
	_ZTIN4Meta5TMetaI9RMemChunkEE @ 76 NONAME
	_ZTIN4Meta5TMetaI9TSsdpInfoEE @ 77 NONAME
	_ZTIN4Meta5TMetaIN8Messages7TNodeIdEEE @ 78 NONAME
	_ZTIN4Meta5TMetaIP12CTransactionEE @ 79 NONAME
	_ZTIN4Meta5TMetaIP28CSubConExtensionParameterSetEE @ 80 NONAME
	_ZTIN4Meta5TMetaIPhEE @ 81 NONAME
	_ZTIN4Meta5TMetaIPvEE @ 82 NONAME
	_ZTIN4Meta5TMetaIiEE @ 83 NONAME
	_ZTIN4Meta8TMetaPtrI19SMetaDataNetCtorExtEE @ 84 NONAME
	_ZTV12TSigParamSet @ 85 NONAME
	_ZTV12TSigSsdpInfo @ 86 NONAME
	_ZTV14TSigTUint8Size @ 87 NONAME
	_ZTV14TUPnPFlowQuery @ 88 NONAME
	_ZTV15TSigParamSetAny @ 89 NONAME
	_ZTV16TSigParamSetFlow @ 90 NONAME
	_ZTV17THttpUdpFlowQuery @ 91 NONAME
	_ZTV17TSigRMemChunkFlow @ 92 NONAME
	_ZTV18TSigNumberMemChunk @ 93 NONAME
	_ZTV20THttpClientFlowQuery @ 94 NONAME
	_ZTV20THttpServerFlowQuery @ 95 NONAME
	_ZTV20TSigUPnPResponseInfo @ 96 NONAME
	_ZTV21TSubscribeRequestInfo @ 97 NONAME
	_ZTV21TSubsribeResponseInfo @ 98 NONAME
	_ZTV23TEventNotifyRequestInfo @ 99 NONAME
	_ZTV25TSigNumberVersionMemChunk @ 100 NONAME
	_ZTV25TSigUPnPClientRequestInfo @ 101 NONAME
	_ZTVN4Meta5TMetaI12TAppProtAddrEE @ 102 NONAME
	_ZTVN4Meta5TMetaI8TVersionEE @ 103 NONAME
	_ZTVN4Meta5TMetaI9RMemChunkEE @ 104 NONAME
	_ZTVN4Meta5TMetaI9TSsdpInfoEE @ 105 NONAME
	_ZTVN4Meta5TMetaIN8Messages7TNodeIdEEE @ 106 NONAME
	_ZTVN4Meta5TMetaIP12CTransactionEE @ 107 NONAME
	_ZTVN4Meta5TMetaIP28CSubConExtensionParameterSetEE @ 108 NONAME
	_ZTVN4Meta5TMetaIPhEE @ 109 NONAME
	_ZTVN4Meta5TMetaIPvEE @ 110 NONAME
	_ZTVN4Meta5TMetaIiEE @ 111 NONAME
	_ZTVN4Meta8TMetaPtrI19SMetaDataNetCtorExtEE @ 112 NONAME
	_ZThn4_N14TUPnPFlowQuery5MatchERN9Factories18TFactoryObjectInfoE @ 113 NONAME

