EXPORTS
	??0CUpnpConnectionManagerNetworkEventProvider@@AAE@AAVMUpnpNetworkEventObserver@@@Z @ 1 NONAME ; CUpnpConnectionManagerNetworkEventProvider::CUpnpConnectionManagerNetworkEventProvider(class MUpnpNetworkEventObserver &)
	??0TUpnpConnectionManagerNetworkEvent@@QAE@W4TUpnpCmSubRsp@@@Z @ 2 NONAME ; TUpnpConnectionManagerNetworkEvent::TUpnpConnectionManagerNetworkEvent(enum TUpnpCmSubRsp)
	??0TUpnpConnectionManagerNetworkEvent@@QAE@W4TUpnpCmSubRsp@@VTInetAddr@@@Z @ 3 NONAME ; TUpnpConnectionManagerNetworkEvent::TUpnpConnectionManagerNetworkEvent(enum TUpnpCmSubRsp, class TInetAddr)
	??0TUpnpConnectionManagerNetworkEvent@@QAE@XZ @ 4 NONAME ; TUpnpConnectionManagerNetworkEvent::TUpnpConnectionManagerNetworkEvent(void)
	?ActiveIap@CUpnpConnectionManagerProxy@@QAEHXZ @ 5 NONAME ; int CUpnpConnectionManagerProxy::ActiveIap(void)
	?ConnectionL@CUpnpConnectionManagerProxy@@QAEAAVRConnection@@XZ @ 6 NONAME ; class RConnection & CUpnpConnectionManagerProxy::ConnectionL(void)
	?EnsureStart@CUpnpConnectionManagerProxy@@QAEHXZ @ 7 NONAME ; int CUpnpConnectionManagerProxy::EnsureStart(void)
	?GetActiveIapL@CUpnpConnectionManagerProxy@@SAHXZ @ 8 NONAME ; int CUpnpConnectionManagerProxy::GetActiveIapL(void)
	?Address@CUpnpNetworkEventAddressChange@@QAE?AVTInetAddr@@XZ @ 9 NONAME ; class TInetAddr CUpnpNetworkEventAddressChange::Address(void)
	?InetAddr@TUpnpConnectionManagerNetworkEvent@@QAE?AVTInetAddr@@XZ @ 10 NONAME ; class TInetAddr TUpnpConnectionManagerNetworkEvent::InetAddr(void)
	?LocalAddress@CUpnpConnectionManagerProxy@@QAE?AVTInetAddr@@XZ @ 11 NONAME ; class TInetAddr CUpnpConnectionManagerProxy::LocalAddress(void)
	?NewL@CUpnpConnectionManagerNetworkEventProvider@@SAPAV1@AAVMUpnpNetworkEventObserver@@@Z @ 12 NONAME ; class CUpnpConnectionManagerNetworkEventProvider * CUpnpConnectionManagerNetworkEventProvider::NewL(class MUpnpNetworkEventObserver &)
	?NewL@CUpnpConnectionManagerProxy@@SAPAV1@AAVRSocketServ@@@Z @ 13 NONAME ; class CUpnpConnectionManagerProxy * CUpnpConnectionManagerProxy::NewL(class RSocketServ &)
	?NewLC@CUpnpConnectionManagerProxy@@SAPAV1@AAVRSocketServ@@@Z @ 14 NONAME ; class CUpnpConnectionManagerProxy * CUpnpConnectionManagerProxy::NewLC(class RSocketServ &)
	?SetAddress@TUpnpConnectionManagerNetworkEvent@@QAEXVTInetAddr@@@Z @ 15 NONAME ; void TUpnpConnectionManagerNetworkEvent::SetAddress(class TInetAddr)
	?SetType@TUpnpConnectionManagerNetworkEvent@@QAEXW4TUpnpCmSubRsp@@@Z @ 16 NONAME ; void TUpnpConnectionManagerNetworkEvent::SetType(enum TUpnpCmSubRsp)
	?Subscribe@CUpnpConnectionManagerNetworkEventProvider@@QAEXXZ @ 17 NONAME ; void CUpnpConnectionManagerNetworkEventProvider::Subscribe(void)
	?SubscribeForNetworkEventsL@CUpnpConnectionManagerProxy@@QAEXPAVMUpnpNetworkEventObserver@@@Z @ 18 NONAME ; void CUpnpConnectionManagerProxy::SubscribeForNetworkEventsL(class MUpnpNetworkEventObserver *)
	?SubscriberError@CUpnpNetworkEventBase@@QAEHXZ @ 19 NONAME ; int CUpnpNetworkEventBase::SubscriberError(void)
	?Type@CUpnpNetworkEventBase@@QAE?AW4TUpnpCmSubRsp@@XZ @ 20 NONAME ; enum TUpnpCmSubRsp CUpnpNetworkEventBase::Type(void)
	?Type@TUpnpConnectionManagerNetworkEvent@@QAEAAW4TUpnpCmSubRsp@@XZ @ 21 NONAME ; enum TUpnpCmSubRsp & TUpnpConnectionManagerNetworkEvent::Type(void)

