EXPORTS
	?LibEntryL@@YAPAVCScriptBase@@AAVCTestModuleIf@@@Z @ 1  NONAME ; class CScriptBase * LibEntryL(class CTestModuleIf &)
	?AddCommandObserverL@CBrCtl@@UAEXPAVMBrCtlCommandObserver@@@Z @ 2  NONAME ; void CBrCtl::AddCommandObserverL(class MBrCtlCommandObserver *)
	?AddLoadEventObserverL@CBrCtl@@UAEXPAVMBrCtlLoadEventObserver@@@Z @ 3  NONAME ; void CBrCtl::AddLoadEventObserverL(class MBrCtlLoadEventObserver *)
	?AddOptionMenuItemsL@CBrCtl@@UAEXAAVCEikMenuPane@@HH@Z @ 4  NONAME ; void CBrCtl::AddOptionMenuItemsL(class CEikMenuPane &, int, int)
	?AddStateChangeObserverL@CBrCtl@@UAEXPAVMBrCtlStateChangeObserver@@@Z @ 5  NONAME ; void CBrCtl::AddStateChangeObserverL(class MBrCtlStateChangeObserver *)
	?BrowserSettingL@CBrCtl@@UAEII@Z @ 6  NONAME ; unsigned int CBrCtl::BrowserSettingL(unsigned int)
	?CertInfo@CBrCtl@@UAEPBVTCertInfo@@XZ @ 7  NONAME ; class TCertInfo const * CBrCtl::CertInfo(void)
	?ClearCache@CBrCtl@@UAEIXZ @ 8  NONAME ; unsigned int CBrCtl::ClearCache(void)
	?ClearItemInCache@CBrCtl@@UAEHAAVTDesC16@@@Z @ 9  NONAME ; int CBrCtl::ClearItemInCache(class TDesC16 &)
	?ContentSize@CBrCtl@@UAE?AVTSize@@XZ @ 10  NONAME ; class TSize CBrCtl::ContentSize(void)
	?CreateBrowserControlL@@YAPAVCBrCtlInterface@@PAVCCoeControl@@VTRect@@IIPAVMBrCtlSoftkeysObserver@@PAVMBrCtlLinkResolver@@PAVMBrCtlSpecialLoadObserver@@PAVMBrCtlLayoutObserver@@PAVMBrCtlDialogsProvider@@PAVMBrCtlWindowObserver@@PAVMBrCtlDownloadObserver@@@Z @ 11  NONAME ; class CBrCtlInterface * CreateBrowserControlL(class CCoeControl *, class TRect, unsigned int, unsigned int, class MBrCtlSoftkeysObserver *, class MBrCtlLinkResolver *, class MBrCtlSpecialLoadObserver *, class MBrCtlLayoutObserver *, class MBrCtlDialogsProvider *, class MBrCtlWindowObserver *, class MBrCtlDownloadObserver *)
	?CreateWidgetExtensionL@CBrCtl@@UAEPAVMWidgetExtension@@AAVMWidgetCallback@@@Z @ 12  NONAME ; class MWidgetExtension * CBrCtl::CreateWidgetExtensionL(class MWidgetCallback &)
	?FindKeyword@CBrCtl@@UAEHABVTDesC16@@@Z @ 13  NONAME ; int CBrCtl::FindKeyword(class TDesC16 const &)
	?FindKeywordAgain@CBrCtl@@UAE?AW4TBrCtlFindResponse@TBrCtlDefs@@H@Z @ 14  NONAME ; enum TBrCtlDefs::TBrCtlFindResponse CBrCtl::FindKeywordAgain(int)
	?FocusedElementType@CBrCtl@@UAE?AW4TBrCtlElementType@TBrCtlDefs@@XZ @ 15  NONAME ; enum TBrCtlDefs::TBrCtlElementType CBrCtl::FocusedElementType(void)
	?FocusedImageLC@CBrCtl@@UAEPAVTBrCtlImageCarrier@@XZ @ 16  NONAME ; class TBrCtlImageCarrier * CBrCtl::FocusedImageLC(void)
	?GetBitmapData@CBrCtl@@UAEPAVCGulIcon@@ABVTDesC16@@W4TBrCtlBitmapInfo@TBrCtlDefs@@@Z @ 17  NONAME ; class CGulIcon * CBrCtl::GetBitmapData(class TDesC16 const &, enum TBrCtlDefs::TBrCtlBitmapInfo)
	?HandleCommandL@CBrCtl@@UAEXH@Z @ 18  NONAME ; void CBrCtl::HandleCommandL(int)
	?HandleDownloadCommandL@CBrCtl@@UAEXGW4TBrCtlDownloadCmd@TBrCtlDefs@@@Z @ 19  NONAME ; void CBrCtl::HandleDownloadCommandL(unsigned short, enum TBrCtlDefs::TBrCtlDownloadCmd)
	?ImageCountL@CBrCtl@@UAEHXZ @ 20  NONAME ; int CBrCtl::ImageCountL(void)
	?InitLoadDataL@CBrCtl@@UAEXABVTDesC16@@ABVTDataType@@VTUid@@IPAVMBrCtlDataLoadSupplier@@PAPAVMBrCtlDataLoadConsumer@@@Z @ 21  NONAME ; void CBrCtl::InitLoadDataL(class TDesC16 const &, class TDataType const &, class TUid, unsigned int, class MBrCtlDataLoadSupplier *, class MBrCtlDataLoadConsumer * *)
	?IsUrlInCache@CBrCtl@@UAEHAAVTDesC16@@@Z @ 22  NONAME ; int CBrCtl::IsUrlInCache(class TDesC16 &)
	??1CBrCtl@@UAE@XZ @ 23  NONAME ; CBrCtl::~CBrCtl(void)
	?LoadDataL@CBrCtl@@UAEXABVTDesC16@@ABVTDesC8@@ABVTDataType@@VTUid@@@Z @ 24  NONAME ; void CBrCtl::LoadDataL(class TDesC16 const &, class TDesC8 const &, class TDataType const &, class TUid)
	?LoadFileL@CBrCtl@@UAEXAAVRFile@@@Z @ 25  NONAME ; void CBrCtl::LoadFileL(class RFile &)
	?LoadFileL@CBrCtl@@UAEXABVTDesC16@@@Z @ 26  NONAME ; void CBrCtl::LoadFileL(class TDesC16 const &)
	?LoadSavedPageL@CBrCtl@@UAEXABVTDesC16@@AAV2@@Z @ 27  NONAME ; void CBrCtl::LoadSavedPageL(class TDesC16 const &, class TDesC16 &)
	?LoadUrlL@CBrCtl@@UAEXABVTDesC16@@HW4TBrCtlCacheMode@TBrCtlDefs@@@Z @ 28  NONAME ; void CBrCtl::LoadUrlL(class TDesC16 const &, int, enum TBrCtlDefs::TBrCtlCacheMode)
	?MinimumSize@CBrCtl@@UAE?AVTSize@@XZ @ 29  NONAME ; class TSize CBrCtl::MinimumSize(void)
	?NavigationAvailable@CBrCtl@@UAEHW4TBrCtlNavigationDirection@TBrCtlDefs@@@Z @ 30  NONAME ; int CBrCtl::NavigationAvailable(enum TBrCtlDefs::TBrCtlNavigationDirection)
	?OfferKeyEventL@CBrCtl@@UAE?AW4TKeyResponse@@ABUTKeyEvent@@W4TEventCode@@@Z @ 31  NONAME ; enum TKeyResponse CBrCtl::OfferKeyEventL(struct TKeyEvent const &, enum TEventCode)
	?OkToExit@CBrCtl@@UAEHXZ @ 32  NONAME ; int CBrCtl::OkToExit(void)
	?PageInfoLC@CBrCtl@@UAEPAVHBufC16@@W4TBrCtlPageInfo@TBrCtlDefs@@@Z @ 33  NONAME ; class HBufC16 * CBrCtl::PageInfoLC(enum TBrCtlDefs::TBrCtlPageInfo)
	?PostUrlL@CBrCtl@@UAEXABVTDesC16@@ABVTDesC8@@1PBV3@PAX@Z @ 34  NONAME ; void CBrCtl::PostUrlL(class TDesC16 const &, class TDesC8 const &, class TDesC8 const &, class TDesC8 const *, void *)
	?RemoveCommandObserver@CBrCtl@@UAEXPAVMBrCtlCommandObserver@@@Z @ 35  NONAME ; void CBrCtl::RemoveCommandObserver(class MBrCtlCommandObserver *)
	?RemoveLoadEventObserver@CBrCtl@@UAEXPAVMBrCtlLoadEventObserver@@@Z @ 36  NONAME ; void CBrCtl::RemoveLoadEventObserver(class MBrCtlLoadEventObserver *)
	?RemoveStateChangeObserver@CBrCtl@@UAEXPAVMBrCtlStateChangeObserver@@@Z @ 37  NONAME ; void CBrCtl::RemoveStateChangeObserver(class MBrCtlStateChangeObserver *)
	?SaveToFileL@CBrCtl@@UAEGABVTDesC16@@@Z @ 38  NONAME ; unsigned short CBrCtl::SaveToFileL(class TDesC16 const &)
	?SetBrowserSettingL@CBrCtl@@UAEXII@Z @ 39  NONAME ; void CBrCtl::SetBrowserSettingL(unsigned int, unsigned int)
	?SetFocus@CBrCtl@@UAEXHW4TDrawNow@@@Z @ 40  NONAME ; void CBrCtl::SetFocus(int, enum TDrawNow)
	?SetParamL@CBrCtl@@UAEXW4TBrCtlParams@TBrCtlDefs@@ABVTDesC16@@@Z @ 41  NONAME ; void CBrCtl::SetParamL(enum TBrCtlDefs::TBrCtlParams, class TDesC16 const &)
	?SetSelfDownloadContentTypesL@CBrCtl@@UAEXAAVTDesC16@@@Z @ 42  NONAME ; void CBrCtl::SetSelfDownloadContentTypesL(class TDesC16 &)
	?SubscribeToMenuItemsL@CBrCtl@@UAEABV?$RPointerArray@VTBrCtlSubscribeTo@@@@XZ @ 43  NONAME ; class RPointerArray<class TBrCtlSubscribeTo> const & CBrCtl::SubscribeToMenuItemsL(void)
	?VersionInfoLC@CBrCtl@@UAEPAVHBufC16@@W4TBrCtlVersionInfo@TBrCtlDefs@@@Z @ 44  NONAME ; class HBufC16 * CBrCtl::VersionInfoLC(enum TBrCtlDefs::TBrCtlVersionInfo)
	?WMLOptionMenuItemsL@CBrCtl@@UAEPAV?$RPointerArray@VTBrCtlWmlServiceOption@@@@XZ @ 45  NONAME ; class RPointerArray<class TBrCtlWmlServiceOption> * CBrCtl::WMLOptionMenuItemsL(void)
	?ZoomLevels@CBrCtl@@UBEPAV?$RArray@I@@XZ @ 46  NONAME ; class RArray<unsigned int> * CBrCtl::ZoomLevels(void) const
	?getNumber@JSValue@KJS@@QBE_NAAN@Z @ 47  NONAME ; bool KJS::JSValue::getNumber(double &) const
	_E32Dll=__E32Dll	; Entry point for emulation

