EXPORTS
	_ZN11VPNAddrInfo16BuildVPNAddrInfoEPK16CInternalAddressRK9TInetAddrR11TVPNAddressR9MIkeDebug @ 1 NONAME
	_ZN12TIpsecSADataC1Ev @ 2 NONAME
	_ZN12TIpsecSADataC2Ev @ 3 NONAME
	_ZN14CPFKeySocketIf14AcquireSAErrorERK12TIpsecSADatai @ 4 NONAME
	_ZN14CPFKeySocketIf4NewLEP21MPFKeyMessageListenerR9MIkeDebug @ 5 NONAME
	_ZN14CPFKeySocketIf6AddSALERK12TIpsecSAData @ 6 NONAME
	_ZN14CPFKeySocketIf8DeleteSAEmRK9TInetAddrS2_h @ 7 NONAME
	_ZN14CPFKeySocketIf8FlushSAsEv @ 8 NONAME
	_ZN14CPFKeySocketIf9UpdateSALERK12TIpsecSAData @ 9 NONAME
	_ZN16CInternalAddress4NewLERKS_ @ 10 NONAME
	_ZN16CInternalAddress5CopyLERKS_ @ 11 NONAME
	_ZN16CInternalAddressC1Ei @ 12 NONAME
	_ZN16CInternalAddressC2Ei @ 13 NONAME
	_ZN16CIpsecPolicyUtil19GetIpseSaSpecListLCE9TInetAddrS0_S0_S0_im @ 14 NONAME
	_ZN16CIpsecPolicyUtil4NewLEv @ 15 NONAME
	_ZN16CIpsecSaSpecListC1Ev @ 16 NONAME
	_ZN16CIpsecSaSpecListC2Ev @ 17 NONAME
	_ZN16PFKeyExtDataUtil24BuildUdpEncExtensionDataER5TDes8miittRK9TInetAddrS4_ @ 18 NONAME
	_ZN16TIpsecSALifetimeC1EmRKxS1_S1_ @ 19 NONAME
	_ZN16TIpsecSALifetimeC2EmRKxS1_S1_ @ 20 NONAME
	_ZN16TIpsecSALifetimeaSERKS_ @ 21 NONAME
	_ZN17TIkeSendQueueItem5MatchERKS_S1_ @ 22 NONAME
	_ZN17TIkeSendQueueItem7UdpDataEv @ 23 NONAME
	_ZN17TIkeSendQueueItem8DestAddrEv @ 24 NONAME
	_ZN17TIkeSendQueueItemC1EP6HBufC8 @ 25 NONAME
	_ZN17TIkeSendQueueItemC1EP6HBufC8RK9TInetAddrih @ 26 NONAME
	_ZN17TIkeSendQueueItemC2EP6HBufC8 @ 27 NONAME
	_ZN17TIkeSendQueueItemC2EP6HBufC8RK9TInetAddrih @ 28 NONAME
	_ZN20CIpsecSaSpiRetriever13GetIpsecSaSpiEmhRK9TInetAddrS2_ @ 29 NONAME
	_ZN20CIpsecSaSpiRetriever4NewLER28MIpsecSaSpiRetrieverCallbackR14CPFKeySocketIf @ 30 NONAME
	_ZNK13TPfkeyAddress7AddressEv @ 31 NONAME
	_ZNK17TIkeSendQueueItem4DscpEv @ 32 NONAME
	_ZNK17TIkeSendQueueItem9LocalPortEv @ 33 NONAME
	_ZNK8TPfkeyTs13SelectorCountEv @ 34 NONAME
	_ZNK8TPfkeyTs8SelectorEi @ 35 NONAME
	_ZTI14CPFKeySocketIf @ 36 NONAME
	_ZTI16CInternalAddress @ 37 NONAME
	_ZTI16CIpsecPolicyUtil @ 38 NONAME
	_ZTI19TPfkeySupportedAuth @ 39 NONAME
	_ZTI20CIpsecSaSpiRetriever @ 40 NONAME
	_ZTI22TPfkeySupportedEncrypt @ 41 NONAME
	_ZTV14CPFKeySocketIf @ 42 NONAME
	_ZTV16CInternalAddress @ 43 NONAME
	_ZTV16CIpsecPolicyUtil @ 44 NONAME
	_ZTV19TPfkeySupportedAuth @ 45 NONAME
	_ZTV20CIpsecSaSpiRetriever @ 46 NONAME
	_ZTV22TPfkeySupportedEncrypt @ 47 NONAME

