EXPORTS
	?SetResourceStatusL@CUpnpRemotableApp@@QAEXABVTDesC8@@@Z @ 1 NONAME ; void CUpnpRemotableApp::SetResourceStatusL(class TDesC8 const &)
	?StopL@CUpnpTmServer@@QAEXXZ @ 2 NONAME ; void CUpnpTmServer::StopL(void)
	?NewL@CUpnpTmServer@@SAPAV1@AAVCUpnpTmServerDeviceInfo@@AAVMUpnpTmServerObserver@@@Z @ 3 NONAME ; class CUpnpTmServer * CUpnpTmServer::NewL(class CUpnpTmServerDeviceInfo &, class MUpnpTmServerObserver &)
	?AddTmInfoElementL@CUpnpTmInfoElement@@QAEXABVTDesC8@@0@Z @ 4 NONAME ; void CUpnpTmInfoElement::AddTmInfoElementL(class TDesC8 const &, class TDesC8 const &)
	?SetXmlSignatureL@CUpnpTmServer@@QAEXABVTDesC8@@@Z @ 5 NONAME ; void CUpnpTmServer::SetXmlSignatureL(class TDesC8 const &)
	?SetAppDescriptionL@CUpnpRemotableApp@@QAEXABVTDesC8@@@Z @ 6 NONAME ; void CUpnpRemotableApp::SetAppDescriptionL(class TDesC8 const &)
	?RegisterAppL@CUpnpTmServer@@QAEXPAVCUpnpRemotableApp@@@Z @ 7 NONAME ; void CUpnpTmServer::RegisterAppL(class CUpnpRemotableApp *)
	?NewL@CUpnpTerminalModeIcon@@SAPAV1@ABVTDesC16@@HHHABVTDesC8@@@Z @ 8 NONAME ; class CUpnpTerminalModeIcon * CUpnpTerminalModeIcon::NewL(class TDesC16 const &, int, int, int, class TDesC8 const &)
	?NewL@CUpnpTmClientIconPref@@SAPAV1@I@Z @ 9 NONAME ; class CUpnpTmClientIconPref * CUpnpTmClientIconPref::NewL(unsigned int)
	?SetDeviceInfoL@CUpnpTmServerDeviceInfo@@QAEXABVTDesC8@@@Z @ 10 NONAME ; void CUpnpTmServerDeviceInfo::SetDeviceInfoL(class TDesC8 const &)
	?AddDeviceIconL@CUpnpTmServerDeviceInfo@@QAEXPAVCUpnpTerminalModeIcon@@@Z @ 11 NONAME ; void CUpnpTmServerDeviceInfo::AddDeviceIconL(class CUpnpTerminalModeIcon *)
	?UpdateAppListL@CUpnpTmServer@@QAEXABV?$RArray@I@@@Z @ 12 NONAME ; void CUpnpTmServer::UpdateAppListL(class RArray<unsigned int> const &)
	?AddIconL@CUpnpRemotableApp@@QAEXPAVCUpnpTerminalModeIcon@@@Z @ 13 NONAME ; void CUpnpRemotableApp::AddIconL(class CUpnpTerminalModeIcon *)
	?CreateTmInfoElementL@CUpnpRemotableApp@@QAEAAVCUpnpTmInfoElement@@W4TTerminalModeInfoType@2@@Z @ 14 NONAME ; class CUpnpTmInfoElement & CUpnpRemotableApp::CreateTmInfoElementL(enum CUpnpTmInfoElement::TTerminalModeInfoType)
	?UnRegisterApp@CUpnpTmServer@@QAEHI@Z @ 15 NONAME ; int CUpnpTmServer::UnRegisterApp(unsigned int)
	?StartL@CUpnpTmServer@@QAEXXZ @ 16 NONAME ; void CUpnpTmServer::StartL(void)
	?NewL@CUpnpRemotableApp@@SAPAV1@IABVTDesC8@@@Z @ 17 NONAME ; class CUpnpRemotableApp * CUpnpRemotableApp::NewL(unsigned int, class TDesC8 const &)
	?UpdateUnusedProfileIdsL@CUpnpTmServer@@QAEXABV?$RArray@I@@@Z @ 18 NONAME ; void CUpnpTmServer::UpdateUnusedProfileIdsL(class RArray<unsigned int> const &)
	?GetRemotableApp@CUpnpTmServer@@QAEAAVCUpnpRemotableApp@@IAAH@Z @ 19 NONAME ; class CUpnpRemotableApp & CUpnpTmServer::GetRemotableApp(unsigned int, int &)
	?UpdateAppStatusL@CUpnpTmServer@@QAEXABV?$RArray@I@@@Z @ 20 NONAME ; void CUpnpTmServer::UpdateAppStatusL(class RArray<unsigned int> const &)
	?UnRegisterApps@CUpnpTmServer@@QAEHABV?$RArray@I@@@Z @ 21 NONAME ; int CUpnpTmServer::UnRegisterApps(class RArray<unsigned int> const &)
	?RegisterAppsL@CUpnpTmServer@@QAEXABV?$RPointerArray@VCUpnpRemotableApp@@@@@Z @ 22 NONAME ; void CUpnpTmServer::RegisterAppsL(class RPointerArray<class CUpnpRemotableApp> const &)
	?NewL@CUpnpTmServerDeviceInfo@@SAPAV1@K@Z @ 23 NONAME ; class CUpnpTmServerDeviceInfo * CUpnpTmServerDeviceInfo::NewL(unsigned long)
	?SetBtAddressL@CUpnpTmServerDeviceInfo@@QAEXABVTDesC8@@@Z @ 24 NONAME ; void CUpnpTmServerDeviceInfo::SetBtAddressL(class TDesC8 const &)
	?SetMimeTypeL@CUpnpTmClientIconPref@@QAEXABVTDesC8@@@Z @ 25 NONAME ; void CUpnpTmClientIconPref::SetMimeTypeL(class TDesC8 const &)
	?SetAllowedProfileIdListL@CUpnpRemotableApp@@QAEXABV?$RArray@I@@@Z @ 26 NONAME ; void CUpnpRemotableApp::SetAllowedProfileIdListL(class RArray<unsigned int> const &)

