EXPORTS
	??0CUpnpControlPoint@@IAE@AAVMUpnpCpStackRequestor@@AAVMUpnpCpHttpRequestor@@@Z @ 1 NONAME ; CUpnpControlPoint::CUpnpControlPoint(class MUpnpCpStackRequestor &, class MUpnpCpHttpRequestor &)
	??0CUpnpControlPoint@@IAE@XZ @ 2 NONAME ; CUpnpControlPoint::CUpnpControlPoint(void)
	??1CUpnpControlPoint@@UAE@XZ @ 3 NONAME ; CUpnpControlPoint::~CUpnpControlPoint(void)
	?ConstructL@CUpnpControlPoint@@IAEXABVCDesC8Array@@@Z @ 4 NONAME ; void CUpnpControlPoint::ConstructL(class CDesC8Array const &)
	?ConstructL@CUpnpControlPoint@@IAEXABVTDesC8@@@Z @ 5 NONAME ; void CUpnpControlPoint::ConstructL(class TDesC8 const &)
	?Device@CUpnpControlPoint@@QAEPBVCUpnpDevice@@ABVTDesC8@@@Z @ 6 NONAME ; class CUpnpDevice const * CUpnpControlPoint::Device(class TDesC8 const &)
	?DeviceFoundL@CUpnpControlPoint@@UAEXAAVCUpnpDevice@@@Z @ 7 NONAME ; void CUpnpControlPoint::DeviceFoundL(class CUpnpDevice &)
	?DeviceList@CUpnpControlPoint@@QBEABV?$RPointerArray@VCUpnpDevice@@@@XZ @ 8 NONAME ; class RPointerArray<class CUpnpDevice> const & CUpnpControlPoint::DeviceList(void) const
	?DeviceLostL@CUpnpControlPoint@@UAEXAAVCUpnpDevice@@@Z @ 9 NONAME ; void CUpnpControlPoint::DeviceLostL(class CUpnpDevice &)
	?DisableRadaDeviceL@CUpnpControlPoint@@QAEXXZ @ 10 NONAME ; void CUpnpControlPoint::DisableRadaDeviceL(void)
	?EnableRadaDeviceL@CUpnpControlPoint@@QAEHXZ @ 11 NONAME ; int CUpnpControlPoint::EnableRadaDeviceL(void)
	?EnableRadaDeviceL@CUpnpControlPoint@@QAEXAAVTRequestStatus@@@Z @ 12 NONAME ; void CUpnpControlPoint::EnableRadaDeviceL(class TRequestStatus &)
	?Path@CUpnpControlPoint@@UAEABVTDesC8@@XZ @ 13 NONAME ; class TDesC8 const & CUpnpControlPoint::Path(void)
	?SearchL@CUpnpControlPoint@@QAEXABVTDesC8@@@Z @ 14 NONAME ; void CUpnpControlPoint::SearchL(class TDesC8 const &)
	?SendL@CUpnpControlPoint@@QAEXPAVCUpnpAction@@@Z @ 15 NONAME ; void CUpnpControlPoint::SendL(class CUpnpAction *)
	?SendL@CUpnpControlPoint@@QAEXPAVCUpnpHttpMessage@@@Z @ 16 NONAME ; void CUpnpControlPoint::SendL(class CUpnpHttpMessage *)
	?StartIPFilteringL@CUpnpControlPoint@@QAEXW4TFilteringMode@1@@Z @ 17 NONAME ; void CUpnpControlPoint::StartIPFilteringL(enum CUpnpControlPoint::TFilteringMode)
	?StopIPFilteringL@CUpnpControlPoint@@QAEXW4TFilteringMode@1@@Z @ 18 NONAME ; void CUpnpControlPoint::StopIPFilteringL(enum CUpnpControlPoint::TFilteringMode)
	?SubscribeL@CUpnpControlPoint@@QAEXPAVCUpnpService@@@Z @ 19 NONAME ; void CUpnpControlPoint::SubscribeL(class CUpnpService *)
	?UnsubscribeL@CUpnpControlPoint@@QAEXPBVCUpnpService@@@Z @ 20 NONAME ; void CUpnpControlPoint::UnsubscribeL(class CUpnpService const *)
	?NetworkEvent@CUpnpControlPoint@@UAEXPAVCUpnpNetworkEventBase@@@Z @ 21 NONAME ; void CUpnpControlPoint::NetworkEvent(class CUpnpNetworkEventBase *)

