EXPORTS
	??0CSenMessageBase@@AAE@AAVCSenChunk@@@Z @ 1 NONAME ; CSenMessageBase::CSenMessageBase(class CSenChunk &)
	??0CSenSoapFault2@@IAE@XZ @ 2 NONAME ; CSenSoapFault2::CSenSoapFault2(void)
	??0CSenSoapMessage2@@IAE@XZ @ 3 NONAME ; CSenSoapMessage2::CSenSoapMessage2(void)
	??0CSenSoapMessageDom2@@IAE@XZ @ 4 NONAME ; CSenSoapMessageDom2::CSenSoapMessageDom2(void)
	??0CSenWsSecurityHeader2@@IAE@XZ @ 5 NONAME ; CSenWsSecurityHeader2::CSenWsSecurityHeader2(void)
	??1CSenMessageBase@@UAE@XZ @ 6 NONAME ; CSenMessageBase::~CSenMessageBase(void)
	??1CSenSoapEnvelope2@@UAE@XZ @ 7 NONAME ; CSenSoapEnvelope2::~CSenSoapEnvelope2(void)
	??1CSenSoapFault2@@UAE@XZ @ 8 NONAME ; CSenSoapFault2::~CSenSoapFault2(void)
	??1CSenSoapMessage2@@UAE@XZ @ 9 NONAME ; CSenSoapMessage2::~CSenSoapMessage2(void)
	??1CSenSoapMessageDom2@@UAE@XZ @ 10 NONAME ; CSenSoapMessageDom2::~CSenSoapMessageDom2(void)
	??1CSenWsSecurityHeader2@@UAE@XZ @ 11 NONAME ; CSenWsSecurityHeader2::~CSenWsSecurityHeader2(void)
	?AddHeaderL@CSenSoapEnvelope2@@UAE?AVTXmlEngElement@@V2@@Z @ 12 NONAME ; class TXmlEngElement CSenSoapEnvelope2::AddHeaderL(class TXmlEngElement)
	?AddSecurityTokenL@CSenSoapMessage2@@QAEHABVTDesC8@@@Z @ 13 NONAME ; int CSenSoapMessage2::AddSecurityTokenL(class TDesC8 const &)
	?BaseConstructL@CSenMessageBase@@IAEXXZ @ 14 NONAME ; void CSenMessageBase::BaseConstructL(void)
	?BaseConstructL@CSenSoapEnvelope2@@IAEXAAVMSenMessageContext@@@Z @ 15 NONAME ; void CSenSoapEnvelope2::BaseConstructL(class MSenMessageContext &)
	?BaseConstructL@CSenSoapEnvelope2@@IAEXAAVMSenMessageContext@@W4TSOAPVersion@@@Z @ 16 NONAME ; void CSenSoapEnvelope2::BaseConstructL(class MSenMessageContext &, enum TSOAPVersion)
	?BaseConstructL@CSenSoapEnvelope2@@IAEXW4TSOAPVersion@@@Z @ 17 NONAME ; void CSenSoapEnvelope2::BaseConstructL(enum TSOAPVersion)
	?BaseConstructL@CSenSoapEnvelope2@@IAEXXZ @ 18 NONAME ; void CSenSoapEnvelope2::BaseConstructL(void)
	?BaseConstructL@CSenSoapMessage2@@IAEXAAVMSenMessageContext@@@Z @ 19 NONAME ; void CSenSoapMessage2::BaseConstructL(class MSenMessageContext &)
	?BaseConstructL@CSenSoapMessage2@@IAEXAAVMSenMessageContext@@W4TSOAPVersion@@@Z @ 20 NONAME ; void CSenSoapMessage2::BaseConstructL(class MSenMessageContext &, enum TSOAPVersion)
	?BaseConstructL@CSenSoapMessage2@@IAEXAAVMSenMessageContext@@W4TSOAPVersion@@ABVTDesC8@@@Z @ 21 NONAME ; void CSenSoapMessage2::BaseConstructL(class MSenMessageContext &, enum TSOAPVersion, class TDesC8 const &)
	?BaseConstructL@CSenSoapMessage2@@IAEXW4TSOAPVersion@@@Z @ 22 NONAME ; void CSenSoapMessage2::BaseConstructL(enum TSOAPVersion)
	?BaseConstructL@CSenSoapMessage2@@IAEXW4TSOAPVersion@@ABVTDesC8@@@Z @ 23 NONAME ; void CSenSoapMessage2::BaseConstructL(enum TSOAPVersion, class TDesC8 const &)
	?BaseConstructL@CSenSoapMessage2@@IAEXXZ @ 24 NONAME ; void CSenSoapMessage2::BaseConstructL(void)
	?BaseConstructL@CSenWsSecurityHeader2@@IAEXABVTDesC8@@0VRSenDocument@@VTXmlEngElement@@@Z @ 25 NONAME ; void CSenWsSecurityHeader2::BaseConstructL(class TDesC8 const &, class TDesC8 const &, class RSenDocument, class TXmlEngElement)
	?BaseConstructL@CSenWsSecurityHeader2@@IAEXABVTDesC8@@VRSenDocument@@VTXmlEngElement@@@Z @ 26 NONAME ; void CSenWsSecurityHeader2::BaseConstructL(class TDesC8 const &, class RSenDocument, class TXmlEngElement)
	?BaseConstructL@CSenWsSecurityHeader2@@IAEXVRSenDocument@@VTXmlEngElement@@@Z @ 27 NONAME ; void CSenWsSecurityHeader2::BaseConstructL(class RSenDocument, class TXmlEngElement)
	?BodyAsStringL@CSenSoapEnvelope2@@UAEPAVHBufC8@@XZ @ 28 NONAME ; class HBufC8 * CSenSoapEnvelope2::BodyAsStringL(void)
	?BodyL@CSenSoapEnvelope2@@UAE?AVTXmlEngElement@@XZ @ 29 NONAME ; class TXmlEngElement CSenSoapEnvelope2::BodyL(void)
	?ConstructL@CSenSoapFault2@@IAEXAAVTXmlEngElement@@@Z @ 30 NONAME ; void CSenSoapFault2::ConstructL(class TXmlEngElement &)
	?ConstructL@CSenSoapFault2@@IAEXAAVTXmlEngElement@@AAVRSenDocument@@@Z @ 31 NONAME ; void CSenSoapFault2::ConstructL(class TXmlEngElement &, class RSenDocument &)
	?ConstructL@CSenSoapFault2@@IAEXABVTDesC8@@00ABV?$RArray@VRAttribute@Xml@@@@AAVTXmlEngElement@@AAVRSenDocument@@@Z @ 32 NONAME ; void CSenSoapFault2::ConstructL(class TDesC8 const &, class TDesC8 const &, class TDesC8 const &, class RArray<class Xml::RAttribute> const &, class TXmlEngElement &, class RSenDocument &)
	?Context@CSenSoapEnvelope2@@UAEPAVMSenMessageContext@@XZ @ 33 NONAME ; class MSenMessageContext * CSenSoapEnvelope2::Context(void)
	?CreateBodyFragmentL@CSenSoapEnvelope2@@MAEPAVCSenFragmentBase@@ABVTDesC8@@00ABV?$RArray@VRAttribute@Xml@@@@AAVTXmlEngElement@@AAVRSenDocument@@@Z @ 34 NONAME ; class CSenFragmentBase * CSenSoapEnvelope2::CreateBodyFragmentL(class TDesC8 const &, class TDesC8 const &, class TDesC8 const &, class RArray<class Xml::RAttribute> const &, class TXmlEngElement &, class RSenDocument &)
	?CreateBodyFragmentL@CSenSoapMessageDom2@@MAEPAVCSenFragmentBase@@ABVTDesC8@@00ABV?$RArray@VRAttribute@Xml@@@@AAVTXmlEngElement@@AAVRSenDocument@@@Z @ 35 NONAME ; class CSenFragmentBase * CSenSoapMessageDom2::CreateBodyFragmentL(class TDesC8 const &, class TDesC8 const &, class TDesC8 const &, class RArray<class Xml::RAttribute> const &, class TXmlEngElement &, class RSenDocument &)
	?DetachFaultL@CSenSoapEnvelope2@@UAEPAVCSenSoapFault2@@XZ @ 36 NONAME ; class CSenSoapFault2 * CSenSoapEnvelope2::DetachFaultL(void)
	?Detail@CSenSoapFault2@@QAE?AVTPtrC8@@XZ @ 37 NONAME ; class TPtrC8 CSenSoapFault2::Detail(void)
	?Direction@CSenSoapEnvelope2@@UAE?AW4TDirection@MSenMessage@@XZ @ 38 NONAME ; enum MSenMessage::TDirection CSenSoapEnvelope2::Direction(void)
	?FaultActor@CSenSoapFault2@@QAE?AVTPtrC8@@XZ @ 39 NONAME ; class TPtrC8 CSenSoapFault2::FaultActor(void)
	?FaultCode@CSenSoapFault2@@QAE?AVTPtrC8@@XZ @ 40 NONAME ; class TPtrC8 CSenSoapFault2::FaultCode(void)
	?FaultL@CSenSoapEnvelope2@@UAEPAVCSenSoapFault2@@XZ @ 41 NONAME ; class CSenSoapFault2 * CSenSoapEnvelope2::FaultL(void)
	?FaultString@CSenSoapFault2@@QAE?AVTPtrC8@@XZ @ 42 NONAME ; class TPtrC8 CSenSoapFault2::FaultString(void)
	?FaultSubcode@CSenSoapFault2@@QAE?AVTPtrC8@@XZ @ 43 NONAME ; class TPtrC8 CSenSoapFault2::FaultSubcode(void)
	?HasBody@CSenSoapEnvelope2@@QAEHXZ @ 44 NONAME ; int CSenSoapEnvelope2::HasBody(void)
	?HasHeader@CSenSoapEnvelope2@@QAEHXZ @ 45 NONAME ; int CSenSoapEnvelope2::HasHeader(void)
	?HeaderL@CSenSoapEnvelope2@@UAE?AVTXmlEngElement@@XZ @ 46 NONAME ; class TXmlEngElement CSenSoapEnvelope2::HeaderL(void)
	?IsFault@CSenSoapEnvelope2@@UAEHXZ @ 47 NONAME ; int CSenSoapEnvelope2::IsFault(void)
	?IsSafeToCast@CSenSoapEnvelope2@@UAEHW4TClass@MSenMessage@@@Z @ 48 NONAME ; int CSenSoapEnvelope2::IsSafeToCast(enum MSenMessage::TClass)
	?NewL@CSenMessageBase@@SAPAV1@AAVCSenChunk@@@Z @ 49 NONAME ; class CSenMessageBase * CSenMessageBase::NewL(class CSenChunk &)
	?NewL@CSenSoapEnvelope2@@SAPAV1@AAVMSenMessageContext@@@Z @ 50 NONAME ; class CSenSoapEnvelope2 * CSenSoapEnvelope2::NewL(class MSenMessageContext &)
	?NewL@CSenSoapEnvelope2@@SAPAV1@XZ @ 51 NONAME ; class CSenSoapEnvelope2 * CSenSoapEnvelope2::NewL(void)
	?NewL@CSenSoapFault2@@SAPAV1@AAVTXmlEngElement@@@Z @ 52 NONAME ; class CSenSoapFault2 * CSenSoapFault2::NewL(class TXmlEngElement &)
	?NewL@CSenSoapFault2@@SAPAV1@AAVTXmlEngElement@@AAVRSenDocument@@@Z @ 53 NONAME ; class CSenSoapFault2 * CSenSoapFault2::NewL(class TXmlEngElement &, class RSenDocument &)
	?NewL@CSenSoapFault2@@SAPAV1@ABVTDesC8@@00ABV?$RArray@VRAttribute@Xml@@@@AAVTXmlEngElement@@AAVRSenDocument@@@Z @ 54 NONAME ; class CSenSoapFault2 * CSenSoapFault2::NewL(class TDesC8 const &, class TDesC8 const &, class TDesC8 const &, class RArray<class Xml::RAttribute> const &, class TXmlEngElement &, class RSenDocument &)
	?NewL@CSenSoapMessage2@@SAPAV1@AAVMSenMessageContext@@@Z @ 55 NONAME ; class CSenSoapMessage2 * CSenSoapMessage2::NewL(class MSenMessageContext &)
	?NewL@CSenSoapMessage2@@SAPAV1@AAVMSenMessageContext@@W4TSOAPVersion@@@Z @ 56 NONAME ; class CSenSoapMessage2 * CSenSoapMessage2::NewL(class MSenMessageContext &, enum TSOAPVersion)
	?NewL@CSenSoapMessage2@@SAPAV1@AAVMSenMessageContext@@W4TSOAPVersion@@ABVTDesC8@@@Z @ 57 NONAME ; class CSenSoapMessage2 * CSenSoapMessage2::NewL(class MSenMessageContext &, enum TSOAPVersion, class TDesC8 const &)
	?NewL@CSenSoapMessage2@@SAPAV1@W4TSOAPVersion@@@Z @ 58 NONAME ; class CSenSoapMessage2 * CSenSoapMessage2::NewL(enum TSOAPVersion)
	?NewL@CSenSoapMessage2@@SAPAV1@W4TSOAPVersion@@ABVTDesC8@@@Z @ 59 NONAME ; class CSenSoapMessage2 * CSenSoapMessage2::NewL(enum TSOAPVersion, class TDesC8 const &)
	?NewL@CSenSoapMessage2@@SAPAV1@XZ @ 60 NONAME ; class CSenSoapMessage2 * CSenSoapMessage2::NewL(void)
	?NewL@CSenSoapMessageDom2@@SAPAV1@AAVMSenMessageContext@@@Z @ 61 NONAME ; class CSenSoapMessageDom2 * CSenSoapMessageDom2::NewL(class MSenMessageContext &)
	?NewL@CSenSoapMessageDom2@@SAPAV1@AAVMSenMessageContext@@W4TSOAPVersion@@@Z @ 62 NONAME ; class CSenSoapMessageDom2 * CSenSoapMessageDom2::NewL(class MSenMessageContext &, enum TSOAPVersion)
	?NewL@CSenSoapMessageDom2@@SAPAV1@AAVMSenMessageContext@@W4TSOAPVersion@@ABVTDesC8@@@Z @ 63 NONAME ; class CSenSoapMessageDom2 * CSenSoapMessageDom2::NewL(class MSenMessageContext &, enum TSOAPVersion, class TDesC8 const &)
	?NewL@CSenSoapMessageDom2@@SAPAV1@W4TSOAPVersion@@@Z @ 64 NONAME ; class CSenSoapMessageDom2 * CSenSoapMessageDom2::NewL(enum TSOAPVersion)
	?NewL@CSenSoapMessageDom2@@SAPAV1@W4TSOAPVersion@@ABVTDesC8@@@Z @ 65 NONAME ; class CSenSoapMessageDom2 * CSenSoapMessageDom2::NewL(enum TSOAPVersion, class TDesC8 const &)
	?NewL@CSenSoapMessageDom2@@SAPAV1@XZ @ 66 NONAME ; class CSenSoapMessageDom2 * CSenSoapMessageDom2::NewL(void)
	?NewL@CSenWsSecurityHeader2@@SAPAV1@ABVTDesC8@@0VRSenDocument@@VTXmlEngElement@@@Z @ 67 NONAME ; class CSenWsSecurityHeader2 * CSenWsSecurityHeader2::NewL(class TDesC8 const &, class TDesC8 const &, class RSenDocument, class TXmlEngElement)
	?NewL@CSenWsSecurityHeader2@@SAPAV1@ABVTDesC8@@VRSenDocument@@VTXmlEngElement@@@Z @ 68 NONAME ; class CSenWsSecurityHeader2 * CSenWsSecurityHeader2::NewL(class TDesC8 const &, class RSenDocument, class TXmlEngElement)
	?NewL@CSenWsSecurityHeader2@@SAPAV1@VRSenDocument@@VTXmlEngElement@@@Z @ 69 NONAME ; class CSenWsSecurityHeader2 * CSenWsSecurityHeader2::NewL(class RSenDocument, class TXmlEngElement)
	?NewLC@CSenMessageBase@@SAPAV1@AAVCSenChunk@@@Z @ 70 NONAME ; class CSenMessageBase * CSenMessageBase::NewLC(class CSenChunk &)
	?NewLC@CSenSoapEnvelope2@@SAPAV1@AAVMSenMessageContext@@@Z @ 71 NONAME ; class CSenSoapEnvelope2 * CSenSoapEnvelope2::NewLC(class MSenMessageContext &)
	?NewLC@CSenSoapEnvelope2@@SAPAV1@XZ @ 72 NONAME ; class CSenSoapEnvelope2 * CSenSoapEnvelope2::NewLC(void)
	?NewLC@CSenSoapMessage2@@SAPAV1@AAVMSenMessageContext@@@Z @ 73 NONAME ; class CSenSoapMessage2 * CSenSoapMessage2::NewLC(class MSenMessageContext &)
	?NewLC@CSenSoapMessage2@@SAPAV1@AAVMSenMessageContext@@W4TSOAPVersion@@@Z @ 74 NONAME ; class CSenSoapMessage2 * CSenSoapMessage2::NewLC(class MSenMessageContext &, enum TSOAPVersion)
	?NewLC@CSenSoapMessage2@@SAPAV1@AAVMSenMessageContext@@W4TSOAPVersion@@ABVTDesC8@@@Z @ 75 NONAME ; class CSenSoapMessage2 * CSenSoapMessage2::NewLC(class MSenMessageContext &, enum TSOAPVersion, class TDesC8 const &)
	?NewLC@CSenSoapMessage2@@SAPAV1@W4TSOAPVersion@@@Z @ 76 NONAME ; class CSenSoapMessage2 * CSenSoapMessage2::NewLC(enum TSOAPVersion)
	?NewLC@CSenSoapMessage2@@SAPAV1@W4TSOAPVersion@@ABVTDesC8@@@Z @ 77 NONAME ; class CSenSoapMessage2 * CSenSoapMessage2::NewLC(enum TSOAPVersion, class TDesC8 const &)
	?NewLC@CSenSoapMessage2@@SAPAV1@XZ @ 78 NONAME ; class CSenSoapMessage2 * CSenSoapMessage2::NewLC(void)
	?NewLC@CSenSoapMessageDom2@@SAPAV1@AAVMSenMessageContext@@@Z @ 79 NONAME ; class CSenSoapMessageDom2 * CSenSoapMessageDom2::NewLC(class MSenMessageContext &)
	?NewLC@CSenSoapMessageDom2@@SAPAV1@AAVMSenMessageContext@@W4TSOAPVersion@@@Z @ 80 NONAME ; class CSenSoapMessageDom2 * CSenSoapMessageDom2::NewLC(class MSenMessageContext &, enum TSOAPVersion)
	?NewLC@CSenSoapMessageDom2@@SAPAV1@AAVMSenMessageContext@@W4TSOAPVersion@@ABVTDesC8@@@Z @ 81 NONAME ; class CSenSoapMessageDom2 * CSenSoapMessageDom2::NewLC(class MSenMessageContext &, enum TSOAPVersion, class TDesC8 const &)
	?NewLC@CSenSoapMessageDom2@@SAPAV1@W4TSOAPVersion@@@Z @ 82 NONAME ; class CSenSoapMessageDom2 * CSenSoapMessageDom2::NewLC(enum TSOAPVersion)
	?NewLC@CSenSoapMessageDom2@@SAPAV1@W4TSOAPVersion@@ABVTDesC8@@@Z @ 83 NONAME ; class CSenSoapMessageDom2 * CSenSoapMessageDom2::NewLC(enum TSOAPVersion, class TDesC8 const &)
	?NewLC@CSenSoapMessageDom2@@SAPAV1@XZ @ 84 NONAME ; class CSenSoapMessageDom2 * CSenSoapMessageDom2::NewLC(void)
	?NewLC@CSenWsSecurityHeader2@@SAPAV1@ABVTDesC8@@0VRSenDocument@@VTXmlEngElement@@@Z @ 85 NONAME ; class CSenWsSecurityHeader2 * CSenWsSecurityHeader2::NewLC(class TDesC8 const &, class TDesC8 const &, class RSenDocument, class TXmlEngElement)
	?NewLC@CSenWsSecurityHeader2@@SAPAV1@ABVTDesC8@@VRSenDocument@@VTXmlEngElement@@@Z @ 86 NONAME ; class CSenWsSecurityHeader2 * CSenWsSecurityHeader2::NewLC(class TDesC8 const &, class RSenDocument, class TXmlEngElement)
	?NewLC@CSenWsSecurityHeader2@@SAPAV1@VRSenDocument@@VTXmlEngElement@@@Z @ 87 NONAME ; class CSenWsSecurityHeader2 * CSenWsSecurityHeader2::NewLC(class RSenDocument, class TXmlEngElement)
	?NewSecurityHeaderLC@CSenSoapMessage2@@MAEPAVCSenWsSecurityHeader2@@PBVTDesC8@@VRSenDocument@@VTXmlEngElement@@@Z @ 88 NONAME ; class CSenWsSecurityHeader2 * CSenSoapMessage2::NewSecurityHeaderLC(class TDesC8 const *, class RSenDocument, class TXmlEngElement)
	?OnEndElementL@CSenSoapEnvelope2@@MAEXABVRTagInfo@Xml@@H@Z @ 89 NONAME ; void CSenSoapEnvelope2::OnEndElementL(class Xml::RTagInfo const &, int)
	?OnStartElementL@CSenSoapEnvelope2@@MAEXABVRTagInfo@Xml@@ABV?$RArray@VRAttribute@Xml@@@@H@Z @ 90 NONAME ; void CSenSoapEnvelope2::OnStartElementL(class Xml::RTagInfo const &, class RArray<class Xml::RAttribute> const &, int)
	?ParseHeaderL@CSenSoapEnvelope2@@MAEXABVRTagInfo@Xml@@ABV?$RArray@VRAttribute@Xml@@@@@Z @ 91 NONAME ; void CSenSoapEnvelope2::ParseHeaderL(class Xml::RTagInfo const &, class RArray<class Xml::RAttribute> const &)
	?ParseHeaderL@CSenSoapMessage2@@MAEXABVRTagInfo@Xml@@ABV?$RArray@VRAttribute@Xml@@@@@Z @ 92 NONAME ; void CSenSoapMessage2::ParseHeaderL(class Xml::RTagInfo const &, class RArray<class Xml::RAttribute> const &)
	?Properties@CSenSoapEnvelope2@@UAEPAVMSenProperties@@XZ @ 93 NONAME ; class MSenProperties * CSenSoapEnvelope2::Properties(void)
	?SetBodyL@CSenSoapEnvelope2@@UAE?AVTPtrC8@@ABVTDesC8@@@Z @ 94 NONAME ; class TPtrC8 CSenSoapEnvelope2::SetBodyL(class TDesC8 const &)
	?SetBodyL@CSenSoapEnvelope2@@UAE?AVTXmlEngElement@@V2@@Z @ 95 NONAME ; class TXmlEngElement CSenSoapEnvelope2::SetBodyL(class TXmlEngElement)
	?SetContext@CSenSoapEnvelope2@@UAEHPAVMSenMessageContext@@@Z @ 96 NONAME ; int CSenSoapEnvelope2::SetContext(class MSenMessageContext *)
	?SetProperties@CSenSoapEnvelope2@@UAEHPAVMSenProperties@@@Z @ 97 NONAME ; int CSenSoapEnvelope2::SetProperties(class MSenProperties *)
	?SetSecurityHeaderL@CSenSoapMessage2@@QAEXABVTDesC8@@@Z @ 98 NONAME ; void CSenSoapMessage2::SetSecurityHeaderL(class TDesC8 const &)
	?SetSoapActionL@CSenSoapEnvelope2@@UAE?AVTPtrC8@@ABVTDesC8@@@Z @ 99 NONAME ; class TPtrC8 CSenSoapEnvelope2::SetSoapActionL(class TDesC8 const &)
	?SoapAction@CSenSoapEnvelope2@@UAE?AVTPtrC8@@XZ @ 100 NONAME ; class TPtrC8 CSenSoapEnvelope2::SoapAction(void)
	?SoapVersion@CSenSoapEnvelope2@@UAE?AW4TSOAPVersion@@XZ @ 101 NONAME ; enum TSOAPVersion CSenSoapEnvelope2::SoapVersion(void)
	?TimestampL@CSenWsSecurityHeader2@@SAHABVTDesC8@@0AAPAVHBufC8@@@Z @ 102 NONAME ; int CSenWsSecurityHeader2::TimestampL(class TDesC8 const &, class TDesC8 const &, class HBufC8 * &)
	?TimestampL@CSenWsSecurityHeader2@@SAHABVTDesC8@@AAPAVHBufC8@@@Z @ 103 NONAME ; int CSenWsSecurityHeader2::TimestampL(class TDesC8 const &, class HBufC8 * &)
	?TxnId@CSenSoapEnvelope2@@UAEHXZ @ 104 NONAME ; int CSenSoapEnvelope2::TxnId(void)
	?Type@CSenSoapEnvelope2@@UAE?AW4TClass@MSenMessage@@XZ @ 105 NONAME ; enum MSenMessage::TClass CSenSoapEnvelope2::Type(void)
	?Type@CSenSoapMessage2@@UAE?AW4TClass@MSenMessage@@XZ @ 106 NONAME ; enum MSenMessage::TClass CSenSoapMessage2::Type(void)
	?Type@CSenSoapMessageDom2@@UAE?AW4TClass@MSenMessage@@XZ @ 107 NONAME ; enum MSenMessage::TClass CSenSoapMessageDom2::Type(void)
	?UsernameTokenL@CSenWsSecurityHeader2@@QAEPAVHBufC8@@AAVCSenIdentityProvider@@@Z @ 108 NONAME ; class HBufC8 * CSenWsSecurityHeader2::UsernameTokenL(class CSenIdentityProvider &)
	?UsernameTokenL@CSenWsSecurityHeader2@@QAEPAVHBufC8@@AAVCSenIdentityProvider@@W4TPasswordType@1@@Z @ 109 NONAME ; class HBufC8 * CSenWsSecurityHeader2::UsernameTokenL(class CSenIdentityProvider &, enum CSenWsSecurityHeader2::TPasswordType)
	?UsernameTokenL@CSenWsSecurityHeader2@@SAHABVTDesC8@@0AAPAVHBufC8@@@Z @ 110 NONAME ; int CSenWsSecurityHeader2::UsernameTokenL(class TDesC8 const &, class TDesC8 const &, class HBufC8 * &)
	?UsernameTokenL@CSenWsSecurityHeader2@@SAHABVTDesC8@@0W4TPasswordType@1@AAPAVHBufC8@@@Z @ 111 NONAME ; int CSenWsSecurityHeader2::UsernameTokenL(class TDesC8 const &, class TDesC8 const &, enum CSenWsSecurityHeader2::TPasswordType, class HBufC8 * &)
	?UsernameTokenL@CSenWsSecurityHeader2@@SAHABVTDesC8@@AAPAVHBufC8@@@Z @ 112 NONAME ; int CSenWsSecurityHeader2::UsernameTokenL(class TDesC8 const &, class HBufC8 * &)
	?XmlNs@CSenWsSecurityHeader2@@UAE?AVTPtrC8@@XZ @ 113 NONAME ; class TPtrC8 CSenWsSecurityHeader2::XmlNs(void)
	?XmlNsPrefix@CSenWsSecurityHeader2@@UAE?AVTPtrC8@@XZ @ 114 NONAME ; class TPtrC8 CSenWsSecurityHeader2::XmlNsPrefix(void)
	?BaseConstructL@CSenSoapEnvelope2@@IAEXAAV1@@Z @ 115 NONAME ; void CSenSoapEnvelope2::BaseConstructL(class CSenSoapEnvelope2 &)
	?CloneL@CSenSoapEnvelope2@@UAEPAVMSenMessage@@XZ @ 116 NONAME ; class MSenMessage * CSenSoapEnvelope2::CloneL(void)
	?NewL@CSenSoapEnvelope2@@SAPAV1@AAV1@@Z @ 117 NONAME ; class CSenSoapEnvelope2 * CSenSoapEnvelope2::NewL(class CSenSoapEnvelope2 &)
	?NewLC@CSenSoapEnvelope2@@SAPAV1@AAV1@@Z @ 118 NONAME ; class CSenSoapEnvelope2 * CSenSoapEnvelope2::NewLC(class CSenSoapEnvelope2 &)
	?BaseConstructL@CSenSoapMessage2@@IAEXAAV1@@Z @ 119 NONAME ; void CSenSoapMessage2::BaseConstructL(class CSenSoapMessage2 &)
	?CloneL@CSenSoapMessage2@@UAEPAVMSenMessage@@XZ @ 120 NONAME ; class MSenMessage * CSenSoapMessage2::CloneL(void)
	?CloneL@CSenSoapMessageDom2@@UAEPAVMSenMessage@@XZ @ 121 NONAME ; class MSenMessage * CSenSoapMessageDom2::CloneL(void)
	?NewL@CSenSoapMessage2@@SAPAV1@AAV1@@Z @ 122 NONAME ; class CSenSoapMessage2 * CSenSoapMessage2::NewL(class CSenSoapMessage2 &)
	?NewL@CSenSoapMessageDom2@@SAPAV1@AAV1@@Z @ 123 NONAME ; class CSenSoapMessageDom2 * CSenSoapMessageDom2::NewL(class CSenSoapMessageDom2 &)
	?NewLC@CSenSoapMessage2@@SAPAV1@AAV1@@Z @ 124 NONAME ; class CSenSoapMessage2 * CSenSoapMessage2::NewLC(class CSenSoapMessage2 &)
	?NewLC@CSenSoapMessageDom2@@SAPAV1@AAV1@@Z @ 125 NONAME ; class CSenSoapMessageDom2 * CSenSoapMessageDom2::NewLC(class CSenSoapMessageDom2 &)
	??0CSenAtomEntry@@IAE@XZ @ 126 NONAME ; CSenAtomEntry::CSenAtomEntry(void)
	??0CSenAtomFeed@@IAE@XZ @ 127 NONAME ; CSenAtomFeed::CSenAtomFeed(void)
	??1CSenAtomEntry@@UAE@XZ @ 128 NONAME ; CSenAtomEntry::~CSenAtomEntry(void)
	??1CSenAtomFeed@@UAE@XZ @ 129 NONAME ; CSenAtomFeed::~CSenAtomFeed(void)
	??1CSenAtomMessage@@UAE@XZ @ 130 NONAME ; CSenAtomMessage::~CSenAtomMessage(void)
	?AddCategoryL@CSenAtomMessage@@QAEXABVTDesC8@@00@Z @ 131 NONAME ; void CSenAtomMessage::AddCategoryL(class TDesC8 const &, class TDesC8 const &, class TDesC8 const &)
	?AddContributorL@CSenAtomMessage@@QAEXABVTDesC8@@00@Z @ 132 NONAME ; void CSenAtomMessage::AddContributorL(class TDesC8 const &, class TDesC8 const &, class TDesC8 const &)
	?AddEntryL@CSenAtomFeed@@QAEHAAVCSenAtomEntry@@@Z @ 133 NONAME ; int CSenAtomFeed::AddEntryL(class CSenAtomEntry &)
	?AddLinkL@CSenAtomMessage@@QAEXABVTDesC8@@00000@Z @ 134 NONAME ; void CSenAtomMessage::AddLinkL(class TDesC8 const &, class TDesC8 const &, class TDesC8 const &, class TDesC8 const &, class TDesC8 const &, class TDesC8 const &)
	?AttributeCountL@CSenAtomMessage@@QAEHABVTDesC8@@0@Z @ 135 NONAME ; int CSenAtomMessage::AttributeCountL(class TDesC8 const &, class TDesC8 const &)
	?BaseConstructL@CSenAtomEntry@@IAEXXZ @ 136 NONAME ; void CSenAtomEntry::BaseConstructL(void)
	?BaseConstructL@CSenAtomFeed@@IAEXXZ @ 137 NONAME ; void CSenAtomFeed::BaseConstructL(void)
	?CategoryCountL@CSenAtomMessage@@QAEHXZ @ 138 NONAME ; int CSenAtomMessage::CategoryCountL(void)
	?CloneL@CSenAtomMessage@@UAEPAVMSenMessage@@XZ @ 139 NONAME ; class MSenMessage * CSenAtomMessage::CloneL(void)
	?Context@CSenAtomMessage@@UAEPAVMSenMessageContext@@XZ @ 140 NONAME ; class MSenMessageContext * CSenAtomMessage::Context(void)
	?ContributorCountL@CSenAtomMessage@@QAEHXZ @ 141 NONAME ; int CSenAtomMessage::ContributorCountL(void)
	?CreateBodyFragmentL@CSenAtomMessage@@UAEPAVCSenFragmentBase@@ABVTDesC8@@00ABV?$RArray@VRAttribute@Xml@@@@AAVTXmlEngElement@@AAVRSenDocument@@@Z @ 142 NONAME ; class CSenFragmentBase * CSenAtomMessage::CreateBodyFragmentL(class TDesC8 const &, class TDesC8 const &, class TDesC8 const &, class RArray<class Xml::RAttribute> const &, class TXmlEngElement &, class RSenDocument &)
	?Direction@CSenAtomMessage@@UAE?AW4TDirection@MSenMessage@@XZ @ 143 NONAME ; enum MSenMessage::TDirection CSenAtomMessage::Direction(void)
	?Entry@CSenAtomFeed@@QBEPAVCSenAtomEntry@@H@Z @ 144 NONAME ; class CSenAtomEntry * CSenAtomFeed::Entry(int) const
	?EntryCount@CSenAtomFeed@@QAEHXZ @ 145 NONAME ; int CSenAtomFeed::EntryCount(void)
	?GetGeneratorL@CSenAtomFeed@@QAE?AVTXmlEngElement@@XZ @ 146 NONAME ; class TXmlEngElement CSenAtomFeed::GetGeneratorL(void)
	?IconL@CSenAtomFeed@@QAEABVTDesC8@@XZ @ 147 NONAME ; class TDesC8 const & CSenAtomFeed::IconL(void)
	?Id@CSenAtomMessage@@QBE_JXZ @ 148 NONAME ; long long CSenAtomMessage::Id(void) const
	?IdTag@CSenAtomMessage@@QBEABVTDesC8@@XZ @ 149 NONAME ; class TDesC8 const & CSenAtomMessage::IdTag(void) const
	?IsSafeToCast@CSenAtomMessage@@UAEHW4TClass@MSenMessage@@@Z @ 150 NONAME ; int CSenAtomMessage::IsSafeToCast(enum MSenMessage::TClass)
	?LinkCountL@CSenAtomMessage@@QAEHXZ @ 151 NONAME ; int CSenAtomMessage::LinkCountL(void)
	?LogoL@CSenAtomFeed@@QAEABVTDesC8@@XZ @ 152 NONAME ; class TDesC8 const & CSenAtomFeed::LogoL(void)
	?NewL@CSenAtomEntry@@SAPAV1@XZ @ 153 NONAME ; class CSenAtomEntry * CSenAtomEntry::NewL(void)
	?NewL@CSenAtomFeed@@SAPAV1@_J@Z @ 154 NONAME ; class CSenAtomFeed * CSenAtomFeed::NewL(long long)
	?NewLC@CSenAtomEntry@@SAPAV1@XZ @ 155 NONAME ; class CSenAtomEntry * CSenAtomEntry::NewLC(void)
	?NewLC@CSenAtomFeed@@SAPAV1@_J@Z @ 156 NONAME ; class CSenAtomFeed * CSenAtomFeed::NewLC(long long)
	?OnContentL@CSenAtomEntry@@UAEXABVTDesC8@@H@Z @ 157 NONAME ; void CSenAtomEntry::OnContentL(class TDesC8 const &, int)
	?OnContentL@CSenAtomFeed@@UAEXABVTDesC8@@H@Z @ 158 NONAME ; void CSenAtomFeed::OnContentL(class TDesC8 const &, int)
	?OnEndElementL@CSenAtomEntry@@UAEXABVRTagInfo@Xml@@H@Z @ 159 NONAME ; void CSenAtomEntry::OnEndElementL(class Xml::RTagInfo const &, int)
	?OnEndElementL@CSenAtomFeed@@UAEXABVRTagInfo@Xml@@H@Z @ 160 NONAME ; void CSenAtomFeed::OnEndElementL(class Xml::RTagInfo const &, int)
	?OnEndElementL@CSenAtomMessage@@UAEXABVRTagInfo@Xml@@H@Z @ 161 NONAME ; void CSenAtomMessage::OnEndElementL(class Xml::RTagInfo const &, int)
	?OnStartElementL@CSenAtomEntry@@UAEXABVRTagInfo@Xml@@ABV?$RArray@VRAttribute@Xml@@@@H@Z @ 162 NONAME ; void CSenAtomEntry::OnStartElementL(class Xml::RTagInfo const &, class RArray<class Xml::RAttribute> const &, int)
	?OnStartElementL@CSenAtomFeed@@UAEXABVRTagInfo@Xml@@ABV?$RArray@VRAttribute@Xml@@@@H@Z @ 163 NONAME ; void CSenAtomFeed::OnStartElementL(class Xml::RTagInfo const &, class RArray<class Xml::RAttribute> const &, int)
	?OnStartElementL@CSenAtomMessage@@UAEXABVRTagInfo@Xml@@ABV?$RArray@VRAttribute@Xml@@@@H@Z @ 164 NONAME ; void CSenAtomMessage::OnStartElementL(class Xml::RTagInfo const &, class RArray<class Xml::RAttribute> const &, int)
	?ParseEntryL@CSenAtomFeed@@IAEXABVRTagInfo@Xml@@ABV?$RArray@VRAttribute@Xml@@@@@Z @ 165 NONAME ; void CSenAtomFeed::ParseEntryL(class Xml::RTagInfo const &, class RArray<class Xml::RAttribute> const &)
	?Properties@CSenAtomMessage@@UAEPAVMSenProperties@@XZ @ 166 NONAME ; class MSenProperties * CSenAtomMessage::Properties(void)
	?Published@CSenAtomMessage@@QBEABVTDesC8@@XZ @ 167 NONAME ; class TDesC8 const & CSenAtomMessage::Published(void) const
	?RemoveAuthorL@CSenAtomMessage@@QAEXXZ @ 168 NONAME ; void CSenAtomMessage::RemoveAuthorL(void)
	?RemoveByAttributeL@CSenAtomMessage@@QAEXABVTDesC8@@000@Z @ 169 NONAME ; void CSenAtomMessage::RemoveByAttributeL(class TDesC8 const &, class TDesC8 const &, class TDesC8 const &, class TDesC8 const &)
	?RemoveBySubtagL@CSenAtomMessage@@QAEXABVTDesC8@@000@Z @ 170 NONAME ; void CSenAtomMessage::RemoveBySubtagL(class TDesC8 const &, class TDesC8 const &, class TDesC8 const &, class TDesC8 const &)
	?RemoveCategoryL@CSenAtomMessage@@QAEXABVTDesC8@@@Z @ 171 NONAME ; void CSenAtomMessage::RemoveCategoryL(class TDesC8 const &)
	?RemoveContributorL@CSenAtomMessage@@QAEXABVTDesC8@@@Z @ 172 NONAME ; void CSenAtomMessage::RemoveContributorL(class TDesC8 const &)
	?RemoveEntryL@CSenAtomFeed@@QAEXAAVCSenAtomEntry@@@Z @ 173 NONAME ; void CSenAtomFeed::RemoveEntryL(class CSenAtomEntry &)
	?RemoveEntryL@CSenAtomFeed@@QAEXABVTDesC8@@@Z @ 174 NONAME ; void CSenAtomFeed::RemoveEntryL(class TDesC8 const &)
	?RemoveLinkL@CSenAtomMessage@@QAEXABVTDesC8@@@Z @ 175 NONAME ; void CSenAtomMessage::RemoveLinkL(class TDesC8 const &)
	?RemoveLinkL@CSenAtomMessage@@QAEXH@Z @ 176 NONAME ; void CSenAtomMessage::RemoveLinkL(int)
	?RightsL@CSenAtomMessage@@QAEABVTDesC8@@XZ @ 177 NONAME ; class TDesC8 const & CSenAtomMessage::RightsL(void)
	?SetAuthorL@CSenAtomMessage@@QAEXABVTDesC8@@00@Z @ 178 NONAME ; void CSenAtomMessage::SetAuthorL(class TDesC8 const &, class TDesC8 const &, class TDesC8 const &)
	?SetContext@CSenAtomMessage@@UAEHPAVMSenMessageContext@@@Z @ 179 NONAME ; int CSenAtomMessage::SetContext(class MSenMessageContext *)
	?SetGeneratorL@CSenAtomFeed@@QAEXABVTDesC8@@00@Z @ 180 NONAME ; void CSenAtomFeed::SetGeneratorL(class TDesC8 const &, class TDesC8 const &, class TDesC8 const &)
	?SetIconL@CSenAtomFeed@@QAEXABVTDesC8@@@Z @ 181 NONAME ; void CSenAtomFeed::SetIconL(class TDesC8 const &)
	?SetIdTagL@CSenAtomMessage@@QAEXABVTDesC8@@@Z @ 182 NONAME ; void CSenAtomMessage::SetIdTagL(class TDesC8 const &)
	?SetLogoL@CSenAtomFeed@@QAEXABVTDesC8@@@Z @ 183 NONAME ; void CSenAtomFeed::SetLogoL(class TDesC8 const &)
	?SetProperties@CSenAtomMessage@@UAEHPAVMSenProperties@@@Z @ 184 NONAME ; int CSenAtomMessage::SetProperties(class MSenProperties *)
	?SetPublishedL@CSenAtomMessage@@QAEXABVTDesC8@@@Z @ 185 NONAME ; void CSenAtomMessage::SetPublishedL(class TDesC8 const &)
	?SetRightsL@CSenAtomMessage@@QAEXABVTDesC8@@@Z @ 186 NONAME ; void CSenAtomMessage::SetRightsL(class TDesC8 const &)
	?SetSubtitleL@CSenAtomFeed@@QAEXABVTDesC8@@@Z @ 187 NONAME ; void CSenAtomFeed::SetSubtitleL(class TDesC8 const &)
	?SetTitleL@CSenAtomMessage@@QAEXABVTDesC8@@@Z @ 188 NONAME ; void CSenAtomMessage::SetTitleL(class TDesC8 const &)
	?SetUpdatedL@CSenAtomMessage@@QAEXABVTDesC8@@@Z @ 189 NONAME ; void CSenAtomMessage::SetUpdatedL(class TDesC8 const &)
	?SubtitleL@CSenAtomFeed@@QAEABVTDesC8@@XZ @ 190 NONAME ; class TDesC8 const & CSenAtomFeed::SubtitleL(void)
	?Title@CSenAtomMessage@@QBEABVTDesC8@@XZ @ 191 NONAME ; class TDesC8 const & CSenAtomMessage::Title(void) const
	?TxnId@CSenAtomMessage@@UAEHXZ @ 192 NONAME ; int CSenAtomMessage::TxnId(void)
	?Type@CSenAtomMessage@@UAE?AW4TClass@MSenMessage@@XZ @ 193 NONAME ; enum MSenMessage::TClass CSenAtomMessage::Type(void)
	?Updated@CSenAtomMessage@@QBEABVTDesC8@@XZ @ 194 NONAME ; class TDesC8 const & CSenAtomMessage::Updated(void) const

