EXPORTS
	?ActiveDownloads@CHttpDownloadManagerServerEngine@@QBEHXZ @ 1 NONAME ; int CHttpDownloadManagerServerEngine::ActiveDownloads(void) const
	?AppUid@CHttpClientAppInstance@@QBEKXZ @ 2 NONAME ; unsigned long CHttpClientAppInstance::AppUid(void) const
	?Attach@CHttpDownload@@QAEXPAVCHttpClientAppInstance@@@Z @ 3 NONAME ; void CHttpDownload::Attach(class CHttpClientAppInstance *)
	?AttachDownloadL@CHttpClientAppInstance@@QAEPAVCHttpDownload@@J@Z @ 4 NONAME ; class CHttpDownload * CHttpClientAppInstance::AttachDownloadL(long)
	?ClientAppInstance@CHttpDownload@@QBEPAVCHttpClientAppInstance@@XZ @ 5 NONAME ; class CHttpClientAppInstance * CHttpDownload::ClientAppInstance(void) const
	?CloseClientInstance@CHttpDownloadManagerServerEngine@@QAEXPAVCHttpClientAppInstance@@@Z @ 6 NONAME ; void CHttpDownloadManagerServerEngine::CloseClientInstance(class CHttpClientAppInstance *)
	?CloseEngine@CHttpDownloadManagerServerEngine@@QAEXH@Z @ 7 NONAME ; void CHttpDownloadManagerServerEngine::CloseEngine(int)
	?CreateNewClientAppInstanceL@CHttpDownloadManagerServerEngine@@QAEPAVCHttpClientAppInstance@@KPAVMDownloadStateObserver@@H@Z @ 8 NONAME ; class CHttpClientAppInstance * CHttpDownloadManagerServerEngine::CreateNewClientAppInstanceL(unsigned long, class MDownloadStateObserver *, int)
	?CreateNewDownloadL@CHttpClientAppInstance@@QAEPAVCHttpDownload@@ABVTDesC8@@@Z @ 9 NONAME ; class CHttpDownload * CHttpClientAppInstance::CreateNewDownloadL(class TDesC8 const &)
	?Delete@CHttpDownload@@QAEXPAVCHttpClientAppInstance@@@Z @ 10 NONAME ; void CHttpDownload::Delete(class CHttpClientAppInstance *)
	?Disconnect@CHttpClientAppInstance@@QAEXXZ @ 11 NONAME ; void CHttpClientAppInstance::Disconnect(void)
	?DownloadsL@CHttpClientAppInstance@@QBEPAV?$CArrayPtrFlat@VCHttpDownload@@@@XZ @ 12 NONAME ; class CArrayPtrFlat<class CHttpDownload> * CHttpClientAppInstance::DownloadsL(void) const
	?GetBoolAttributeL@CHttpClientAppInstance@@QAEXW4THttpDownloadMgrAttrib@@AAH@Z @ 13 NONAME ; void CHttpClientAppInstance::GetBoolAttributeL(enum THttpDownloadMgrAttrib, int &)
	?GetBoolAttributeL@CHttpDownload@@QAEXW4THttpDownloadAttrib@@AAH@Z @ 14 NONAME ; void CHttpDownload::GetBoolAttributeL(enum THttpDownloadAttrib, int &)
	?GetFileHandleAttributeL@CHttpDownload@@QAEPAVRFile@@XZ @ 15 NONAME ; class RFile * CHttpDownload::GetFileHandleAttributeL(void)
	?GetIntAttributeL@CHttpClientAppInstance@@QAEXW4THttpDownloadMgrAttrib@@AAJ@Z @ 16 NONAME ; void CHttpClientAppInstance::GetIntAttributeL(enum THttpDownloadMgrAttrib, long &)
	?GetIntAttributeL@CHttpDownload@@QAEXW4THttpDownloadAttrib@@AAJ@Z @ 17 NONAME ; void CHttpDownload::GetIntAttributeL(enum THttpDownloadAttrib, long &)
	?GetString8AttributeL@CHttpClientAppInstance@@QAEPAVHBufC8@@W4THttpDownloadMgrAttrib@@AAH@Z @ 18 NONAME ; class HBufC8 * CHttpClientAppInstance::GetString8AttributeL(enum THttpDownloadMgrAttrib, int &)
	?GetString8AttributeL@CHttpDownload@@QAEPAVHBufC8@@W4THttpDownloadAttrib@@AAH@Z @ 19 NONAME ; class HBufC8 * CHttpDownload::GetString8AttributeL(enum THttpDownloadAttrib, int &)
	?GetStringAttributeL@CHttpClientAppInstance@@QAEPAVHBufC16@@W4THttpDownloadMgrAttrib@@AAH@Z @ 20 NONAME ; class HBufC16 * CHttpClientAppInstance::GetStringAttributeL(enum THttpDownloadMgrAttrib, int &)
	?GetStringAttributeL@CHttpDownload@@QAEPAVHBufC16@@W4THttpDownloadAttrib@@AAH@Z @ 21 NONAME ; class HBufC16 * CHttpDownload::GetStringAttributeL(enum THttpDownloadAttrib, int &)
	?MoveL@CHttpDownload@@QAEXXZ @ 22 NONAME ; void CHttpDownload::MoveL(void)
	?NewL@CHttpDownloadManagerServerEngine@@SAPAV1@XZ @ 23 NONAME ; class CHttpDownloadManagerServerEngine * CHttpDownloadManagerServerEngine::NewL(void)
	?OnError@CHttpDownload@@QAEXHW4THttpDownloadMgrError@@@Z @ 24 NONAME ; void CHttpDownload::OnError(int, enum THttpDownloadMgrError)
	?PauseL@CHttpDownload@@QAEXH@Z @ 25 NONAME ; void CHttpDownload::PauseL(int)
	?Reset@CHttpDownload@@QAEXXZ @ 26 NONAME ; void CHttpDownload::Reset(void)
	?SearchDownloadWithUrl@CHttpClientAppInstance@@QAEPAVCHttpDownload@@ABVTDesC8@@@Z @ 27 NONAME ; class CHttpDownload * CHttpClientAppInstance::SearchDownloadWithUrl(class TDesC8 const &)
	?SetBoolAttributeL@CHttpClientAppInstance@@QAEXW4THttpDownloadMgrAttrib@@H@Z @ 28 NONAME ; void CHttpClientAppInstance::SetBoolAttributeL(enum THttpDownloadMgrAttrib, int)
	?SetBoolAttributeL@CHttpDownload@@QAEXW4THttpDownloadAttrib@@H@Z @ 29 NONAME ; void CHttpDownload::SetBoolAttributeL(enum THttpDownloadAttrib, int)
	?SetFileHandleAttributeL@CHttpDownload@@QAEXPAVRFile@@@Z @ 30 NONAME ; void CHttpDownload::SetFileHandleAttributeL(class RFile *)
	?SetIntAttributeL@CHttpClientAppInstance@@QAEXW4THttpDownloadMgrAttrib@@J@Z @ 31 NONAME ; void CHttpClientAppInstance::SetIntAttributeL(enum THttpDownloadMgrAttrib, long)
	?SetIntAttributeL@CHttpDownload@@QAEXW4THttpDownloadAttrib@@J@Z @ 32 NONAME ; void CHttpDownload::SetIntAttributeL(enum THttpDownloadAttrib, long)
	?SetObserver@CHttpClientAppInstance@@QAEXPAVMDownloadStateObserver@@@Z @ 33 NONAME ; void CHttpClientAppInstance::SetObserver(class MDownloadStateObserver *)
	?SetStringAttributeL@CHttpClientAppInstance@@QAEXW4THttpDownloadMgrAttrib@@ABVTDesC16@@@Z @ 34 NONAME ; void CHttpClientAppInstance::SetStringAttributeL(enum THttpDownloadMgrAttrib, class TDesC16 const &)
	?SetStringAttributeL@CHttpClientAppInstance@@QAEXW4THttpDownloadMgrAttrib@@ABVTDesC8@@@Z @ 35 NONAME ; void CHttpClientAppInstance::SetStringAttributeL(enum THttpDownloadMgrAttrib, class TDesC8 const &)
	?SetStringAttributeL@CHttpDownload@@QAEXW4THttpDownloadAttrib@@ABVTDesC16@@@Z @ 36 NONAME ; void CHttpDownload::SetStringAttributeL(enum THttpDownloadAttrib, class TDesC16 const &)
	?SetStringAttributeL@CHttpDownload@@QAEXW4THttpDownloadAttrib@@ABVTDesC8@@@Z @ 37 NONAME ; void CHttpDownload::SetStringAttributeL(enum THttpDownloadAttrib, class TDesC8 const &)
	?StartL@CHttpDownload@@QAEXXZ @ 38 NONAME ; void CHttpDownload::StartL(void)
	?DeleteInfoFile@CHttpDownload@@QAEXPAVCHttpClientAppInstance@@@Z @ 39 NONAME ; void CHttpDownload::DeleteInfoFile(class CHttpClientAppInstance *)
	?GetBoolAttributeL@CHttpDownload@@QAEXW4THttpDownloadAttrib@@AAJAAH@Z @ 40 NONAME ; void CHttpDownload::GetBoolAttributeL(enum THttpDownloadAttrib, long &, int &)
	?GetIntAttributeL@CHttpDownload@@QAEXW4THttpDownloadAttrib@@AAJ1@Z @ 41 NONAME ; void CHttpDownload::GetIntAttributeL(enum THttpDownloadAttrib, long &, long &)
	?GetString8AttributeL@CHttpDownload@@QAEPAVHBufC8@@W4THttpDownloadAttrib@@AAJAAH@Z @ 42 NONAME ; class HBufC8 * CHttpDownload::GetString8AttributeL(enum THttpDownloadAttrib, long &, int &)
	?GetStringAttributeL@CHttpDownload@@QAEPAVHBufC16@@W4THttpDownloadAttrib@@AAJAAH@Z @ 43 NONAME ; class HBufC16 * CHttpDownload::GetStringAttributeL(enum THttpDownloadAttrib, long &, int &)
	?SetDownloadDataAttributeL@CHttpDownload@@QAEXPAVHBufC8@@@Z @ 44 NONAME ; void CHttpDownload::SetDownloadDataAttributeL(class HBufC8 *)
	?SetStringAttributeL@CHttpDownload@@QAEXW4THttpDownloadAttrib@@JABVTDesC16@@@Z @ 45 NONAME ; void CHttpDownload::SetStringAttributeL(enum THttpDownloadAttrib, long, class TDesC16 const &)
	?SetTrackDataAttributeL@CHttpDownload@@QAEXHPAVHBufC8@@@Z @ 46 NONAME ; void CHttpDownload::SetTrackDataAttributeL(int, class HBufC8 *)
	?ClientApp@CHttpClientAppInstance@@QBEPAVCHttpClientApp@@XZ @ 47 NONAME ; class CHttpClientApp * CHttpClientAppInstance::ClientApp(void) const
	?UnregisterDownload@CHttpClientApp@@QAEXPAVCHttpDownload@@@Z @ 48 NONAME ; void CHttpClientApp::UnregisterDownload(class CHttpDownload *)
	?DetachClientInstance@CHttpDownload@@QAEHPAVCHttpClientAppInstance@@@Z @ 49 NONAME ; int CHttpDownload::DetachClientInstance(class CHttpClientAppInstance *)

