EXPORTS
	?NewL@CUpnpHttpServerSession@@SAPAV1@IAAVMUpnpHttpServerObserver@@@Z @ 1 NONAME ; class CUpnpHttpServerSession * CUpnpHttpServerSession::NewL(unsigned int, class MUpnpHttpServerObserver &)
	?Stop@CUpnpHttpServerSession@@QAEXXZ @ 2 NONAME ; void CUpnpHttpServerSession::Stop(void)
	__E32Dll @ 3 NONAME ABSENT ; class TDesC8 const & CUpnpHttpServerTransaction::QueryRequestHeader(void)
	__E32Dll @ 4 NONAME ABSENT ; class TDesC8 & CUpnpHttpServerTransaction::QueryHeader(class TDesC8 const &)
	__E32Dll @ 5 NONAME ABSENT ; void CUpnpHttpServerTransaction::AddLineFeedToHeaderL(void)
	?StopIPFiltering@CUpnpHttpServer@@QAEXXZ @ 6 NONAME ; void CUpnpHttpServer::StopIPFiltering(void)
	__E32Dll @ 7 NONAME ABSENT ; void CUpnpHttpServerTransaction::CreateStartOfHeaderL(class TDesC8 const &)
	??0CUpnpHttpServerTransaction@@IAE@XZ @ 8 NONAME ; CUpnpHttpServerTransaction::CUpnpHttpServerTransaction(void)
	?SetDataSourceL@CUpnpHttpServerTransaction@@IAEXAAVRFile@@@Z @ 9 NONAME ; void CUpnpHttpServerTransaction::SetDataSourceL(class RFile &)
	??1CUpnpHttpServerTransaction@@UAE@XZ @ 10 NONAME ; CUpnpHttpServerTransaction::~CUpnpHttpServerTransaction(void)
	?StartIPFilteringL@CUpnpHttpServer@@QAEXXZ @ 11 NONAME ; void CUpnpHttpServer::StartIPFilteringL(void)
	?DefaultRuntime@CUpnpHttpServerSession@@QAEAAVCUpnpHttpServerRuntime@@XZ @ 12 NONAME ; class CUpnpHttpServerRuntime & CUpnpHttpServerSession::DefaultRuntime(void)
	?SetDataSinkL@CUpnpHttpServerTransaction@@IAEXAAVRFile@@@Z @ 13 NONAME ; void CUpnpHttpServerTransaction::SetDataSinkL(class RFile &)
	__E32Dll @ 14 NONAME ABSENT ; int CUpnpHttpServerTransaction::HeaderExists(class TDesC8 const &)
	?GetAddress@CUpnpHttpServerSession@@QAEXAAVTInetAddr@@@Z @ 15 NONAME ; void CUpnpHttpServerSession::GetAddress(class TInetAddr &)
	?SetCreator@CUpnpHttpServerRuntime@@QAEXAAVMUpnpHttpServerTransactionCreator@@@Z @ 16 NONAME ; void CUpnpHttpServerRuntime::SetCreator(class MUpnpHttpServerTransactionCreator &)
	?Error@CUpnpHttpServerTransaction@@QAEHXZ @ 17 NONAME ; int CUpnpHttpServerTransaction::Error(void)
	__E32Dll @ 18 NONAME ABSENT ; void CUpnpHttpServerTransaction::SetError(int)
	?HWAddressL@CUpnpHttpServerSession@@QAEPAVTSockAddr@@XZ @ 19 NONAME ; class TSockAddr * CUpnpHttpServerSession::HWAddressL(void)
	?SendMessageL@CUpnpHttpServerSession@@QAEHPAVCUpnpHttpMessage@@@Z @ 20 NONAME ; int CUpnpHttpServerSession::SendMessageL(class CUpnpHttpMessage *)
	?AddResponseHeaderL@CUpnpHttpServerTransaction@@QAEXABVTDesC8@@0@Z @ 21 NONAME ; void CUpnpHttpServerTransaction::AddResponseHeaderL(class TDesC8 const &, class TDesC8 const &)
	?StartL@CUpnpHttpServerSession@@QAEXH@Z @ 22 NONAME ; void CUpnpHttpServerSession::StartL(int)
	?SetRequest@CUpnpHttpServerTransaction@@QAEXPAVCUpnpHttpMessage@@@Z @ 23 NONAME ; void CUpnpHttpServerTransaction::SetRequest(class CUpnpHttpMessage *)
	?SetHttpCode@CUpnpHttpServerTransaction@@IAEXH@Z @ 24 NONAME ; void CUpnpHttpServerTransaction::SetHttpCode(int)
	?QueryRequestHeader@CUpnpHttpServerTransaction@@QAEAAVTDesC8@@ABV2@@Z @ 25 NONAME ; class TDesC8 & CUpnpHttpServerTransaction::QueryRequestHeader(class TDesC8 const &)
	__E32Dll @ 26 NONAME ABSENT ; class TDesC8 const & CUpnpHttpServerTransaction::QueryResponsetHeader(void)
	?QueryResponseHeader@CUpnpHttpServerTransaction@@QAEABVTDesC8@@XZ @ 27 NONAME ; class TDesC8 const & CUpnpHttpServerTransaction::QueryResponseHeader(void)

