EXPORTS
	??0CSenCredential@@AAE@XZ @ 1 NONAME ; private: __thiscall CSenCredential::CSenCredential(void)
	??0CSenFacet@@IAE@XZ @ 2 NONAME ; protected: __thiscall CSenFacet::CSenFacet(void)
	??0CSenIdentityProvider@@IAE@W4TDescriptionClassType@MSenServiceDescription@@@Z @ 3 NONAME ; protected: __thiscall CSenIdentityProvider::CSenIdentityProvider(enum MSenServiceDescription::TDescriptionClassType)
	??0CSenServicePattern@@IAE@W4TDescriptionClassType@MSenServiceDescription@@@Z @ 4 NONAME ; protected: __thiscall CSenServicePattern::CSenServicePattern(enum MSenServiceDescription::TDescriptionClassType)
	??0CSenXmlServiceDescription@@IAE@W4TDescriptionClassType@MSenServiceDescription@@@Z @ 5 NONAME ; protected: __thiscall CSenXmlServiceDescription::CSenXmlServiceDescription(enum MSenServiceDescription::TDescriptionClassType)
	??1CSenCredential@@UAE@XZ @ 6 NONAME ; public: virtual __thiscall CSenCredential::~CSenCredential(void)
	??1CSenFacet@@UAE@XZ @ 7 NONAME ; public: virtual __thiscall CSenFacet::~CSenFacet(void)
	??1CSenIdentityProvider@@UAE@XZ @ 8 NONAME ; public: virtual __thiscall CSenIdentityProvider::~CSenIdentityProvider(void)
	??1CSenIdentityProviderIdArray8@@UAE@XZ @ 9 NONAME ; public: virtual __thiscall CSenIdentityProviderIdArray8::~CSenIdentityProviderIdArray8(void)
	??1CSenServicePattern@@UAE@XZ @ 10 NONAME ; public: virtual __thiscall CSenServicePattern::~CSenServicePattern(void)
	??1CSenXmlServiceDescription@@UAE@XZ @ 11 NONAME ; public: virtual __thiscall CSenXmlServiceDescription::~CSenXmlServiceDescription(void)
	?Accepts@CSenConsumerPolicy@@UAEHAAVMSenConsumerPolicy@@@Z @ 12 NONAME ; public: virtual int __thiscall CSenConsumerPolicy::Accepts(class MSenConsumerPolicy &)
	?Accepts@CSenPolicy@@UAEHAAVMSenPolicy@@@Z @ 13 NONAME ; public: virtual int __thiscall CSenPolicy::Accepts(class MSenPolicy &)
	?Accepts@CSenProviderPolicy@@UAEHAAVMSenProviderPolicy@@@Z @ 14 NONAME ; public: virtual int __thiscall CSenProviderPolicy::Accepts(class MSenProviderPolicy &)
	?Accepts@CSenXmlServiceDescription@@UAEHAAVMSenProviderPolicy@@@Z @ 15 NONAME ; public: virtual int __thiscall CSenXmlServiceDescription::Accepts(class MSenProviderPolicy &)
	?AcceptsConsumerPolicy@CSenServicePattern@@UAEHAAVMSenConsumerPolicy@@@Z @ 16 NONAME ; public: virtual int __thiscall CSenServicePattern::AcceptsConsumerPolicy(class MSenConsumerPolicy &)
	?AddConsumerIdentityProviderIdL@CSenServicePattern@@UAEHABVTDesC8@@@Z @ 17 NONAME ; public: virtual int __thiscall CSenServicePattern::AddConsumerIdentityProviderIdL(class TDesC8 const &)
	?AddFacetL@CSenXmlServiceDescription@@UAEHABVCSenFacet@@@Z @ 18 NONAME ; public: virtual int __thiscall CSenXmlServiceDescription::AddFacetL(class CSenFacet const &)
	?AddIdentityProviderIdL@CSenPolicy@@UAEHABVTDesC8@@@Z @ 19 NONAME ; public: virtual int __thiscall CSenPolicy::AddIdentityProviderIdL(class TDesC8 const &)
	?AddIdentityProviderIdL@CSenXmlServiceDescription@@UAEHAAVTDesC8@@@Z @ 20 NONAME ; public: virtual int __thiscall CSenXmlServiceDescription::AddIdentityProviderIdL(class TDesC8 &)
	?AdvisoryAuthnID@CSenIdentityProvider@@UAE?AVTPtrC8@@XZ @ 21 NONAME ; public: virtual class TPtrC8 __thiscall CSenIdentityProvider::AdvisoryAuthnID(void)
	?AsXmlL@CSenXmlServiceDescription@@UAEPAVHBufC8@@XZ @ 22 NONAME ; public: virtual class HBufC8 * __thiscall CSenXmlServiceDescription::AsXmlL(void)
	?AsXmlUnicodeL@CSenXmlServiceDescription@@UAEPAVHBufC16@@XZ @ 23 NONAME ; public: virtual class HBufC16 * __thiscall CSenXmlServiceDescription::AsXmlUnicodeL(void)
	?AuthzID@CSenIdentityProvider@@UAE?AVTPtrC8@@XZ @ 24 NONAME ; public: virtual class TPtrC8 __thiscall CSenIdentityProvider::AuthzID(void)
	?BaseConstructL@CSenConsumerPolicy@@AAEXK@Z @ 25 NONAME ; private: void __thiscall CSenConsumerPolicy::BaseConstructL(unsigned long)
	?BaseConstructL@CSenConsumerPolicy@@AAEXXZ @ 26 NONAME ; private: void __thiscall CSenConsumerPolicy::BaseConstructL(void)
	?BaseConstructL@CSenPolicy@@IAEXABVTDesC8@@@Z @ 27 NONAME ; protected: void __thiscall CSenPolicy::BaseConstructL(class TDesC8 const &)
	?BaseConstructL@CSenPolicy@@IAEXABVTDesC8@@K@Z @ 28 NONAME ; protected: void __thiscall CSenPolicy::BaseConstructL(class TDesC8 const &,unsigned long)
	?BaseConstructL@CSenProviderPolicy@@AAEXK@Z @ 29 NONAME ; private: void __thiscall CSenProviderPolicy::BaseConstructL(unsigned long)
	?BaseConstructL@CSenProviderPolicy@@AAEXXZ @ 30 NONAME ; private: void __thiscall CSenProviderPolicy::BaseConstructL(void)
	?BaseConstructL@CSenServicePattern@@IAEXABVTDesC8@@0@Z @ 31 NONAME ; protected: void __thiscall CSenServicePattern::BaseConstructL(class TDesC8 const &,class TDesC8 const &)
	?BaseConstructL@CSenServicePattern@@IAEXABVTDesC8@@@Z @ 32 NONAME ; protected: void __thiscall CSenServicePattern::BaseConstructL(class TDesC8 const &)
	?BaseConstructL@CSenServicePattern@@IAEXXZ @ 33 NONAME ; protected: void __thiscall CSenServicePattern::BaseConstructL(void)
	?ConstructL@CSenCredential@@AAEXAAV1@@Z @ 34 NONAME ; private: void __thiscall CSenCredential::ConstructL(class CSenCredential &)
	?ConstructL@CSenCredential@@AAEXABVTDesC8@@00ABV?$RArray@VRAttribute@Xml@@@@@Z @ 35 NONAME ; private: void __thiscall CSenCredential::ConstructL(class TDesC8 const &,class TDesC8 const &,class TDesC8 const &,class RArray<class Xml::RAttribute> const &)
	?ConstructL@CSenCredential@@AAEXABVTDesC8@@00ABV?$RArray@VRAttribute@Xml@@@@AAVCSenElement@@@Z @ 36 NONAME ; private: void __thiscall CSenCredential::ConstructL(class TDesC8 const &,class TDesC8 const &,class TDesC8 const &,class RArray<class Xml::RAttribute> const &,class CSenElement &)
	?ConstructL@CSenFacet@@IAEXAAVCSenElement@@@Z @ 37 NONAME ; protected: void __thiscall CSenFacet::ConstructL(class CSenElement &)
	?ConstructL@CSenFacet@@IAEXABVTDesC8@@00ABV?$RArray@VRAttribute@Xml@@@@@Z @ 38 NONAME ; protected: void __thiscall CSenFacet::ConstructL(class TDesC8 const &,class TDesC8 const &,class TDesC8 const &,class RArray<class Xml::RAttribute> const &)
	?ConstructL@CSenFacet@@IAEXABVTDesC8@@@Z @ 39 NONAME ; protected: void __thiscall CSenFacet::ConstructL(class TDesC8 const &)
	?ConstructL@CSenIdentityProvider@@IAEXABVTDesC8@@000@Z @ 40 NONAME ; protected: void __thiscall CSenIdentityProvider::ConstructL(class TDesC8 const &,class TDesC8 const &,class TDesC8 const &,class TDesC8 const &)
	?ConstructL@CSenIdentityProvider@@IAEXABVTDesC8@@00@Z @ 41 NONAME ; protected: void __thiscall CSenIdentityProvider::ConstructL(class TDesC8 const &,class TDesC8 const &,class TDesC8 const &)
	?ConstructL@CSenIdentityProvider@@IAEXABVTDesC8@@0@Z @ 42 NONAME ; protected: void __thiscall CSenIdentityProvider::ConstructL(class TDesC8 const &,class TDesC8 const &)
	?ConstructL@CSenIdentityProvider@@IAEXABVTDesC8@@@Z @ 43 NONAME ; protected: void __thiscall CSenIdentityProvider::ConstructL(class TDesC8 const &)
	?ConstructL@CSenXmlServiceDescription@@IAEXABVTDesC8@@0@Z @ 44 NONAME ; protected: void __thiscall CSenXmlServiceDescription::ConstructL(class TDesC8 const &,class TDesC8 const &)
	?ConstructL@CSenXmlServiceDescription@@IAEXABVTDesC8@@@Z @ 45 NONAME ; protected: void __thiscall CSenXmlServiceDescription::ConstructL(class TDesC8 const &)
	?ConstructL@CSenXmlServiceDescription@@IAEXXZ @ 46 NONAME ; protected: void __thiscall CSenXmlServiceDescription::ConstructL(void)
	?ConsumerIapId@CSenServicePattern@@UAEHAAK@Z @ 47 NONAME ; public: virtual int __thiscall CSenServicePattern::ConsumerIapId(unsigned long &)
	?ConsumerIdentityProviderIds8L@CSenServicePattern@@UAEABVCSenIdentityProviderIdArray8@@XZ @ 48 NONAME ; public: virtual class CSenIdentityProviderIdArray8 const & __thiscall CSenServicePattern::ConsumerIdentityProviderIds8L(void)
	?ConsumerPolicyAsXmlL@CSenServicePattern@@QAEPAVHBufC8@@XZ @ 49 NONAME ; public: class HBufC8 * __thiscall CSenServicePattern::ConsumerPolicyAsXmlL(void)
	?Contract@CSenXmlServiceDescription@@UAE?AVTPtrC8@@XZ @ 50 NONAME ; public: virtual class TPtrC8 __thiscall CSenXmlServiceDescription::Contract(void)
	?Credentials@CSenXmlServiceDescription@@QAEAAV?$RPointerArray@VCSenCredential@@@@XZ @ 51 NONAME ; public: class RPointerArray<class CSenCredential> & __thiscall CSenXmlServiceDescription::Credentials(void)
	?DescriptionClassType@CSenXmlServiceDescription@@UAE?AW4TDescriptionClassType@MSenServiceDescription@@XZ @ 52 NONAME ; public: virtual enum MSenServiceDescription::TDescriptionClassType __thiscall CSenXmlServiceDescription::DescriptionClassType(void)
	?EndElementL@CSenXmlServiceDescription@@MAEXABVTDesC8@@00@Z @ 53 NONAME ; protected: virtual void __thiscall CSenXmlServiceDescription::EndElementL(class TDesC8 const &,class TDesC8 const &,class TDesC8 const &)
	?Endpoint@CSenXmlServiceDescription@@UAE?AVTPtrC8@@XZ @ 54 NONAME ; public: virtual class TPtrC8 __thiscall CSenXmlServiceDescription::Endpoint(void)
	?FacetValue@CSenXmlServiceDescription@@UAEHAAVTDesC8@@AAPAVHBufC8@@@Z @ 55 NONAME ; public: virtual int __thiscall CSenXmlServiceDescription::FacetValue(class TDesC8 &,class HBufC8 * &)
	?FacetsL@CSenXmlServiceDescription@@UAEHAAV?$RPointerArray@VCSenFacet@@@@@Z @ 56 NONAME ; public: virtual int __thiscall CSenXmlServiceDescription::FacetsL(class RPointerArray<class CSenFacet> &)
	?FrameworkId@CSenXmlServiceDescription@@UAE?AVTPtrC8@@XZ @ 57 NONAME ; public: virtual class TPtrC8 __thiscall CSenXmlServiceDescription::FrameworkId(void)
	?FrameworkVersion@CSenXmlServiceDescription@@UAE?AVTPtrC8@@XZ @ 58 NONAME ; public: virtual class TPtrC8 __thiscall CSenXmlServiceDescription::FrameworkVersion(void)
	?HasFacetL@CSenXmlServiceDescription@@UAEHABVTDesC8@@AAH@Z @ 59 NONAME ; public: virtual int __thiscall CSenXmlServiceDescription::HasFacetL(class TDesC8 const &,int &)
	?HttpCredentialsL@CSenIdentityProvider@@QAEPAVHBufC8@@AAVMSenIdentityManager@@@Z @ 60 NONAME ; public: class HBufC8 * __thiscall CSenIdentityProvider::HttpCredentialsL(class MSenIdentityManager &)
	?IMEI@CSenIdentityProvider@@QAEABVTDesC8@@XZ @ 61 NONAME ; public: class TDesC8 const & __thiscall CSenIdentityProvider::IMEI(void)
	?IapId@CSenPolicy@@UAEHAAK@Z @ 62 NONAME ; public: virtual int __thiscall CSenPolicy::IapId(unsigned long &)
	?IapId@CSenXmlServiceDescription@@UAEHAAK@Z @ 63 NONAME ; public: virtual int __thiscall CSenXmlServiceDescription::IapId(unsigned long &)
	?Id@CSenCredential@@QAEABVTDesC8@@XZ @ 64 NONAME ; public: class TDesC8 const & __thiscall CSenCredential::Id(void)
	?IdentityProviderIds8L@CSenPolicy@@UAEABVCSenIdentityProviderIdArray8@@XZ @ 65 NONAME ; public: virtual class CSenIdentityProviderIdArray8 const & __thiscall CSenPolicy::IdentityProviderIds8L(void)
	?IdentityProviderIds8L@CSenXmlServiceDescription@@UAEABVCSenIdentityProviderIdArray8@@XZ @ 66 NONAME ; public: virtual class CSenIdentityProviderIdArray8 const & __thiscall CSenXmlServiceDescription::IdentityProviderIds8L(void)
	?IsDefault@CSenIdentityProvider@@QAEHXZ @ 67 NONAME ; public: int __thiscall CSenIdentityProvider::IsDefault(void)
	?IsStrict@CSenIdentityProviderIdArray8@@UBEHXZ @ 68 NONAME ; public: virtual int __thiscall CSenIdentityProviderIdArray8::IsStrict(void)const 
	?IsTrustedByL@CSenIdentityProvider@@QAEHAAVMSenServiceDescription@@@Z @ 69 NONAME ; public: int __thiscall CSenIdentityProvider::IsTrustedByL(class MSenServiceDescription &)
	?IsTrustedByL@CSenIdentityProvider@@QAEHABVTDesC8@@@Z @ 70 NONAME ; public: int __thiscall CSenIdentityProvider::IsTrustedByL(class TDesC8 const &)
	?Matches@CSenServicePattern@@UAEHAAVMSenServiceDescription@@@Z @ 71 NONAME ; public: virtual int __thiscall CSenServicePattern::Matches(class MSenServiceDescription &)
	?Matches@CSenXmlServiceDescription@@UAEHAAVMSenServiceDescription@@@Z @ 72 NONAME ; public: virtual int __thiscall CSenXmlServiceDescription::Matches(class MSenServiceDescription &)
	?Name@CSenFacet@@UAE?AVTPtrC8@@XZ @ 73 NONAME ; public: virtual class TPtrC8 __thiscall CSenFacet::Name(void)
	?NewElementName@CSenIdentityProvider@@UAEABVTDesC8@@XZ @ 74 NONAME ; public: virtual class TDesC8 const & __thiscall CSenIdentityProvider::NewElementName(void)
	?NewElementName@CSenXmlServiceDescription@@UAEABVTDesC8@@XZ @ 75 NONAME ; public: virtual class TDesC8 const & __thiscall CSenXmlServiceDescription::NewElementName(void)
	?NewL@CSenConsumerPolicy@@SAPAV1@K@Z @ 76 NONAME ; public: static class CSenConsumerPolicy * __cdecl CSenConsumerPolicy::NewL(unsigned long)
	?NewL@CSenConsumerPolicy@@SAPAV1@XZ @ 77 NONAME ; public: static class CSenConsumerPolicy * __cdecl CSenConsumerPolicy::NewL(void)
	?NewL@CSenCredential@@SAPAV1@ABV1@@Z @ 78 NONAME ; public: static class CSenCredential * __cdecl CSenCredential::NewL(class CSenCredential const &)
	?NewL@CSenCredential@@SAPAV1@ABVTDesC8@@00ABV?$RArray@VRAttribute@Xml@@@@@Z @ 79 NONAME ; public: static class CSenCredential * __cdecl CSenCredential::NewL(class TDesC8 const &,class TDesC8 const &,class TDesC8 const &,class RArray<class Xml::RAttribute> const &)
	?NewL@CSenCredential@@SAPAV1@ABVTDesC8@@00ABV?$RArray@VRAttribute@Xml@@@@AAVCSenElement@@@Z @ 80 NONAME ; public: static class CSenCredential * __cdecl CSenCredential::NewL(class TDesC8 const &,class TDesC8 const &,class TDesC8 const &,class RArray<class Xml::RAttribute> const &,class CSenElement &)
	?NewL@CSenFacet@@SAPAV1@AAVCSenElement@@@Z @ 81 NONAME ; public: static class CSenFacet * __cdecl CSenFacet::NewL(class CSenElement &)
	?NewL@CSenFacet@@SAPAV1@ABVTDesC8@@00ABV?$RArray@VRAttribute@Xml@@@@@Z @ 82 NONAME ; public: static class CSenFacet * __cdecl CSenFacet::NewL(class TDesC8 const &,class TDesC8 const &,class TDesC8 const &,class RArray<class Xml::RAttribute> const &)
	?NewL@CSenFacet@@SAPAV1@XZ @ 83 NONAME ; public: static class CSenFacet * __cdecl CSenFacet::NewL(void)
	?NewL@CSenIdentityProvider@@SAPAV1@ABVTDesC8@@000@Z @ 84 NONAME ; public: static class CSenIdentityProvider * __cdecl CSenIdentityProvider::NewL(class TDesC8 const &,class TDesC8 const &,class TDesC8 const &,class TDesC8 const &)
	?NewL@CSenIdentityProvider@@SAPAV1@ABVTDesC8@@00@Z @ 85 NONAME ; public: static class CSenIdentityProvider * __cdecl CSenIdentityProvider::NewL(class TDesC8 const &,class TDesC8 const &,class TDesC8 const &)
	?NewL@CSenIdentityProvider@@SAPAV1@ABVTDesC8@@0@Z @ 86 NONAME ; public: static class CSenIdentityProvider * __cdecl CSenIdentityProvider::NewL(class TDesC8 const &,class TDesC8 const &)
	?NewL@CSenIdentityProvider@@SAPAV1@ABVTDesC8@@@Z @ 87 NONAME ; public: static class CSenIdentityProvider * __cdecl CSenIdentityProvider::NewL(class TDesC8 const &)
	?NewL@CSenIdentityProviderIdArray8@@SAPAV1@H@Z @ 88 NONAME ; public: static class CSenIdentityProviderIdArray8 * __cdecl CSenIdentityProviderIdArray8::NewL(int)
	?NewL@CSenIdentityProviderIdArray8@@SAPAV1@XZ @ 89 NONAME ; public: static class CSenIdentityProviderIdArray8 * __cdecl CSenIdentityProviderIdArray8::NewL(void)
	?NewL@CSenPolicy@@SAPAV1@K@Z @ 90 NONAME ; public: static class CSenPolicy * __cdecl CSenPolicy::NewL(unsigned long)
	?NewL@CSenPolicy@@SAPAV1@XZ @ 91 NONAME ; public: static class CSenPolicy * __cdecl CSenPolicy::NewL(void)
	?NewL@CSenProviderPolicy@@SAPAV1@K@Z @ 92 NONAME ; public: static class CSenProviderPolicy * __cdecl CSenProviderPolicy::NewL(unsigned long)
	?NewL@CSenProviderPolicy@@SAPAV1@XZ @ 93 NONAME ; public: static class CSenProviderPolicy * __cdecl CSenProviderPolicy::NewL(void)
	?NewL@CSenServicePattern@@SAPAV1@ABVTDesC8@@0@Z @ 94 NONAME ; public: static class CSenServicePattern * __cdecl CSenServicePattern::NewL(class TDesC8 const &,class TDesC8 const &)
	?NewL@CSenServicePattern@@SAPAV1@ABVTDesC8@@@Z @ 95 NONAME ; public: static class CSenServicePattern * __cdecl CSenServicePattern::NewL(class TDesC8 const &)
	?NewL@CSenServicePattern@@SAPAV1@XZ @ 96 NONAME ; public: static class CSenServicePattern * __cdecl CSenServicePattern::NewL(void)
	?NewL@CSenXmlServiceDescription@@SAPAV1@ABVTDesC8@@0@Z @ 97 NONAME ; public: static class CSenXmlServiceDescription * __cdecl CSenXmlServiceDescription::NewL(class TDesC8 const &,class TDesC8 const &)
	?NewL@CSenXmlServiceDescription@@SAPAV1@ABVTDesC8@@@Z @ 98 NONAME ; public: static class CSenXmlServiceDescription * __cdecl CSenXmlServiceDescription::NewL(class TDesC8 const &)
	?NewL@CSenXmlServiceDescription@@SAPAV1@XZ @ 99 NONAME ; public: static class CSenXmlServiceDescription * __cdecl CSenXmlServiceDescription::NewL(void)
	?NewLC@CSenConsumerPolicy@@SAPAV1@K@Z @ 100 NONAME ; public: static class CSenConsumerPolicy * __cdecl CSenConsumerPolicy::NewLC(unsigned long)
	?NewLC@CSenConsumerPolicy@@SAPAV1@XZ @ 101 NONAME ; public: static class CSenConsumerPolicy * __cdecl CSenConsumerPolicy::NewLC(void)
	?NewLC@CSenCredential@@SAPAV1@ABV1@@Z @ 102 NONAME ; public: static class CSenCredential * __cdecl CSenCredential::NewLC(class CSenCredential const &)
	?NewLC@CSenCredential@@SAPAV1@ABVTDesC8@@00ABV?$RArray@VRAttribute@Xml@@@@@Z @ 103 NONAME ; public: static class CSenCredential * __cdecl CSenCredential::NewLC(class TDesC8 const &,class TDesC8 const &,class TDesC8 const &,class RArray<class Xml::RAttribute> const &)
	?NewLC@CSenCredential@@SAPAV1@ABVTDesC8@@00ABV?$RArray@VRAttribute@Xml@@@@AAVCSenElement@@@Z @ 104 NONAME ; public: static class CSenCredential * __cdecl CSenCredential::NewLC(class TDesC8 const &,class TDesC8 const &,class TDesC8 const &,class RArray<class Xml::RAttribute> const &,class CSenElement &)
	?NewLC@CSenIdentityProvider@@SAPAV1@ABVTDesC8@@000@Z @ 105 NONAME ; public: static class CSenIdentityProvider * __cdecl CSenIdentityProvider::NewLC(class TDesC8 const &,class TDesC8 const &,class TDesC8 const &,class TDesC8 const &)
	?NewLC@CSenIdentityProvider@@SAPAV1@ABVTDesC8@@00@Z @ 106 NONAME ; public: static class CSenIdentityProvider * __cdecl CSenIdentityProvider::NewLC(class TDesC8 const &,class TDesC8 const &,class TDesC8 const &)
	?NewLC@CSenIdentityProvider@@SAPAV1@ABVTDesC8@@0@Z @ 107 NONAME ; public: static class CSenIdentityProvider * __cdecl CSenIdentityProvider::NewLC(class TDesC8 const &,class TDesC8 const &)
	?NewLC@CSenIdentityProvider@@SAPAV1@ABVTDesC8@@@Z @ 108 NONAME ; public: static class CSenIdentityProvider * __cdecl CSenIdentityProvider::NewLC(class TDesC8 const &)
	?NewLC@CSenIdentityProviderIdArray8@@SAPAV1@H@Z @ 109 NONAME ; public: static class CSenIdentityProviderIdArray8 * __cdecl CSenIdentityProviderIdArray8::NewLC(int)
	?NewLC@CSenIdentityProviderIdArray8@@SAPAV1@XZ @ 110 NONAME ; public: static class CSenIdentityProviderIdArray8 * __cdecl CSenIdentityProviderIdArray8::NewLC(void)
	?NewLC@CSenPolicy@@SAPAV1@K@Z @ 111 NONAME ; public: static class CSenPolicy * __cdecl CSenPolicy::NewLC(unsigned long)
	?NewLC@CSenPolicy@@SAPAV1@XZ @ 112 NONAME ; public: static class CSenPolicy * __cdecl CSenPolicy::NewLC(void)
	?NewLC@CSenProviderPolicy@@SAPAV1@K@Z @ 113 NONAME ; public: static class CSenProviderPolicy * __cdecl CSenProviderPolicy::NewLC(unsigned long)
	?NewLC@CSenProviderPolicy@@SAPAV1@XZ @ 114 NONAME ; public: static class CSenProviderPolicy * __cdecl CSenProviderPolicy::NewLC(void)
	?NewLC@CSenServicePattern@@SAPAV1@ABVTDesC8@@0@Z @ 115 NONAME ; public: static class CSenServicePattern * __cdecl CSenServicePattern::NewLC(class TDesC8 const &,class TDesC8 const &)
	?NewLC@CSenServicePattern@@SAPAV1@ABVTDesC8@@@Z @ 116 NONAME ; public: static class CSenServicePattern * __cdecl CSenServicePattern::NewLC(class TDesC8 const &)
	?NewLC@CSenServicePattern@@SAPAV1@XZ @ 117 NONAME ; public: static class CSenServicePattern * __cdecl CSenServicePattern::NewLC(void)
	?NewLC@CSenXmlServiceDescription@@SAPAV1@ABVTDesC8@@0@Z @ 118 NONAME ; public: static class CSenXmlServiceDescription * __cdecl CSenXmlServiceDescription::NewLC(class TDesC8 const &,class TDesC8 const &)
	?NewLC@CSenXmlServiceDescription@@SAPAV1@ABVTDesC8@@@Z @ 119 NONAME ; public: static class CSenXmlServiceDescription * __cdecl CSenXmlServiceDescription::NewLC(class TDesC8 const &)
	?NewLC@CSenXmlServiceDescription@@SAPAV1@XZ @ 120 NONAME ; public: static class CSenXmlServiceDescription * __cdecl CSenXmlServiceDescription::NewLC(void)
	?Password@CSenIdentityProvider@@UAE?AVTPtrC8@@XZ @ 121 NONAME ; public: virtual class TPtrC8 __thiscall CSenIdentityProvider::Password(void)
	?ProviderID@CSenIdentityProvider@@QAE?AVTPtrC8@@XZ @ 122 NONAME ; public: class TPtrC8 __thiscall CSenIdentityProvider::ProviderID(void)
	?RebuildFrom@CSenConsumerPolicy@@UAEHAAVMSenConsumerPolicy@@@Z @ 123 NONAME ; public: virtual int __thiscall CSenConsumerPolicy::RebuildFrom(class MSenConsumerPolicy &)
	?RebuildFrom@CSenPolicy@@UAEHAAVMSenPolicy@@@Z @ 124 NONAME ; public: virtual int __thiscall CSenPolicy::RebuildFrom(class MSenPolicy &)
	?RebuildFrom@CSenProviderPolicy@@UAEHAAVMSenProviderPolicy@@@Z @ 125 NONAME ; public: virtual int __thiscall CSenProviderPolicy::RebuildFrom(class MSenProviderPolicy &)
	?RebuildFrom@CSenXmlServiceDescription@@UAEHAAVMSenProviderPolicy@@@Z @ 126 NONAME ; public: virtual int __thiscall CSenXmlServiceDescription::RebuildFrom(class MSenProviderPolicy &)
	?RebuildFromConsumerPolicy@CSenServicePattern@@UAEHAAVMSenConsumerPolicy@@@Z @ 127 NONAME ; public: virtual int __thiscall CSenServicePattern::RebuildFromConsumerPolicy(class MSenConsumerPolicy &)
	?RemoveFacet@CSenXmlServiceDescription@@UAEHABVTDesC8@@@Z @ 128 NONAME ; public: virtual int __thiscall CSenXmlServiceDescription::RemoveFacet(class TDesC8 const &)
	?ResumeParsingFromL@CSenXmlServiceDescription@@UAEXABVTDesC8@@00@Z @ 129 NONAME ; public: virtual void __thiscall CSenXmlServiceDescription::ResumeParsingFromL(class TDesC8 const &,class TDesC8 const &,class TDesC8 const &)
	?ScoreMatchL@CSenXmlServiceDescription@@UAEHAAVMSenServiceDescription@@@Z @ 130 NONAME ; public: virtual int __thiscall CSenXmlServiceDescription::ScoreMatchL(class MSenServiceDescription &)
	?SetAttributesL@CSenXmlServiceDescription@@UAEXABV?$RArray@VRAttribute@Xml@@@@@Z @ 131 NONAME ; public: virtual void __thiscall CSenXmlServiceDescription::SetAttributesL(class RArray<class Xml::RAttribute> const &)
	?SetConsumerIapIdL@CSenServicePattern@@UAEXK@Z @ 132 NONAME ; public: virtual void __thiscall CSenServicePattern::SetConsumerIapIdL(unsigned long)
	?SetConsumerIdentityProviderIdsL@CSenServicePattern@@UAEXAAVCSenIdentityProviderIdArray8@@@Z @ 133 NONAME ; public: virtual void __thiscall CSenServicePattern::SetConsumerIdentityProviderIdsL(class CSenIdentityProviderIdArray8 &)
	?SetContractL@CSenXmlServiceDescription@@UAEXABVTDesC8@@@Z @ 134 NONAME ; public: virtual void __thiscall CSenXmlServiceDescription::SetContractL(class TDesC8 const &)
	?SetEndPointL@CSenXmlServiceDescription@@UAEXABVTDesC8@@@Z @ 135 NONAME ; public: virtual void __thiscall CSenXmlServiceDescription::SetEndPointL(class TDesC8 const &)
	?SetFacetL@CSenXmlServiceDescription@@UAEHABVCSenFacet@@@Z @ 136 NONAME ; public: virtual int __thiscall CSenXmlServiceDescription::SetFacetL(class CSenFacet const &)
	?SetFrameworkIdL@CSenXmlServiceDescription@@QAEXABVTDesC8@@@Z @ 137 NONAME ; public: void __thiscall CSenXmlServiceDescription::SetFrameworkIdL(class TDesC8 const &)
	?SetIapIdL@CSenPolicy@@UAEXK@Z @ 138 NONAME ; public: virtual void __thiscall CSenPolicy::SetIapIdL(unsigned long)
	?SetIapIdL@CSenXmlServiceDescription@@UAEXK@Z @ 139 NONAME ; public: virtual void __thiscall CSenXmlServiceDescription::SetIapIdL(unsigned long)
	?SetIdentityProviderIdsL@CSenPolicy@@UAEXAAVCSenIdentityProviderIdArray8@@@Z @ 140 NONAME ; public: virtual void __thiscall CSenPolicy::SetIdentityProviderIdsL(class CSenIdentityProviderIdArray8 &)
	?SetIdentityProviderIdsL@CSenXmlServiceDescription@@UAEXAAVCSenIdentityProviderIdArray8@@@Z @ 141 NONAME ; public: virtual void __thiscall CSenXmlServiceDescription::SetIdentityProviderIdsL(class CSenIdentityProviderIdArray8 &)
	?SetNameL@CSenFacet@@UAEXABVTDesC8@@@Z @ 142 NONAME ; public: virtual void __thiscall CSenFacet::SetNameL(class TDesC8 const &)
	?SetProviderID@CSenIdentityProvider@@QAEHABVTDesC8@@@Z @ 143 NONAME ; public: int __thiscall CSenIdentityProvider::SetProviderID(class TDesC8 const &)
	?SetServiceID@CSenIdentityProvider@@QAEHABVTDesC8@@@Z @ 144 NONAME ; public: int __thiscall CSenIdentityProvider::SetServiceID(class TDesC8 const &)
	?SetStrict@CSenIdentityProviderIdArray8@@UAEXH@Z @ 145 NONAME ; public: virtual void __thiscall CSenIdentityProviderIdArray8::SetStrict(int)
	?SetTypeL@CSenFacet@@UAEXABVTDesC8@@@Z @ 146 NONAME ; public: virtual void __thiscall CSenFacet::SetTypeL(class TDesC8 const &)
	?SetUserInfoL@CSenIdentityProvider@@QAEHABVTDesC8@@00@Z @ 147 NONAME ; public: int __thiscall CSenIdentityProvider::SetUserInfoL(class TDesC8 const &,class TDesC8 const &,class TDesC8 const &)
	?SetValidUntil@CSenCredential@@QAEXAAVTTime@@@Z @ 148 NONAME ; public: void __thiscall CSenCredential::SetValidUntil(class TTime &)
	?SetValueL@CSenFacet@@UAEXABVTDesC8@@@Z @ 149 NONAME ; public: virtual void __thiscall CSenFacet::SetValueL(class TDesC8 const &)
	?StartElementL@CSenCredential@@MAEXABVTDesC8@@00ABV?$RArray@VRAttribute@Xml@@@@@Z @ 150 NONAME ; protected: virtual void __thiscall CSenCredential::StartElementL(class TDesC8 const &,class TDesC8 const &,class TDesC8 const &,class RArray<class Xml::RAttribute> const &)
	?StartElementL@CSenServicePattern@@UAEXABVTDesC8@@00ABV?$RArray@VRAttribute@Xml@@@@@Z @ 151 NONAME ; public: virtual void __thiscall CSenServicePattern::StartElementL(class TDesC8 const &,class TDesC8 const &,class TDesC8 const &,class RArray<class Xml::RAttribute> const &)
	?StartElementL@CSenXmlServiceDescription@@MAEXABVTDesC8@@00ABV?$RArray@VRAttribute@Xml@@@@@Z @ 152 NONAME ; protected: virtual void __thiscall CSenXmlServiceDescription::StartElementL(class TDesC8 const &,class TDesC8 const &,class TDesC8 const &,class RArray<class Xml::RAttribute> const &)
	?Type@CSenFacet@@UAE?AVTPtrC8@@XZ @ 153 NONAME ; public: virtual class TPtrC8 __thiscall CSenFacet::Type(void)
	?UserName@CSenIdentityProvider@@QAE?AVTPtrC8@@XZ @ 154 NONAME ; public: class TPtrC8 __thiscall CSenIdentityProvider::UserName(void)
	?ValidUntil@CSenCredential@@QAEAAVTTime@@XZ @ 155 NONAME ; public: class TTime & __thiscall CSenCredential::ValidUntil(void)
	?Value@CSenFacet@@UAE?AVTPtrC8@@XZ @ 156 NONAME ; public: virtual class TPtrC8 __thiscall CSenFacet::Value(void)
	?WriteAsXMLToL@CSenXmlServiceDescription@@UAEXAAVRWriteStream@@@Z @ 157 NONAME ; public: virtual void __thiscall CSenXmlServiceDescription::WriteAsXMLToL(class RWriteStream &)
	?HasEqualPrimaryKeysL@CSenXmlServiceDescription@@UAEHAAVMSenServiceDescription@@@Z @ 158 NONAME ; public: virtual int __thiscall CSenXmlServiceDescription::HasEqualPrimaryKeysL(class MSenServiceDescription &)
	?IsLocalL@CSenXmlServiceDescription@@UAEHXZ @ 159 NONAME ; public: virtual int __thiscall CSenXmlServiceDescription::IsLocalL(void)
	?SetTransportCueL@CSenXmlServiceDescription@@UAEHABVTDesC8@@@Z @ 160 NONAME ; public: virtual int __thiscall CSenXmlServiceDescription::SetTransportCueL(class TDesC8 const &)
	?TransportCue@CSenXmlServiceDescription@@UAE?AVTPtrC8@@XZ @ 161 NONAME ; public: virtual class TPtrC8 __thiscall CSenXmlServiceDescription::TransportCue(void)
	?HasSuperClass@CSenIdentityProvider@@UAEHW4TDescriptionClassType@MSenServiceDescription@@@Z @ 162 NONAME ; public: virtual int __thiscall CSenIdentityProvider::HasSuperClass(enum MSenServiceDescription::TDescriptionClassType)
	?HasSuperClass@CSenServicePattern@@UAEHW4TDescriptionClassType@MSenServiceDescription@@@Z @ 163 NONAME ; public: virtual int __thiscall CSenServicePattern::HasSuperClass(enum MSenServiceDescription::TDescriptionClassType)
	?HasSuperClass@CSenXmlServiceDescription@@UAEHW4TDescriptionClassType@MSenServiceDescription@@@Z @ 164 NONAME ; public: virtual int __thiscall CSenXmlServiceDescription::HasSuperClass(enum MSenServiceDescription::TDescriptionClassType)

