EXPORTS
	??0CSenSoapFault@@IAE@XZ @ 1 NONAME ; CSenSoapFault::CSenSoapFault(void)
	??0CSenSoapMessage@@IAE@XZ @ 2 NONAME ; CSenSoapMessage::CSenSoapMessage(void)
	??0CSenWsSecurityHeader@@IAE@XZ @ 3 NONAME ; CSenWsSecurityHeader::CSenWsSecurityHeader(void)
	??1CSenSoapEnvelope@@UAE@XZ @ 4 NONAME ; CSenSoapEnvelope::~CSenSoapEnvelope(void)
	??1CSenSoapFault@@UAE@XZ @ 5 NONAME ; CSenSoapFault::~CSenSoapFault(void)
	??1CSenSoapMessage@@UAE@XZ @ 6 NONAME ; CSenSoapMessage::~CSenSoapMessage(void)
	??1CSenWsSecurityHeader@@UAE@XZ @ 7 NONAME ; CSenWsSecurityHeader::~CSenWsSecurityHeader(void)
	?AddHeaderL@CSenSoapEnvelope@@UAEAAVCSenElement@@AAV2@@Z @ 8 NONAME ; class CSenElement & CSenSoapEnvelope::AddHeaderL(class CSenElement &)
	?AddSecurityTokenL@CSenSoapMessage@@QAEHABVTDesC8@@@Z @ 9 NONAME ; int CSenSoapMessage::AddSecurityTokenL(class TDesC8 const &)
	?BaseConstructL@CSenSoapEnvelope@@IAEXXZ @ 10 NONAME ; void CSenSoapEnvelope::BaseConstructL(void)
	?BaseConstructL@CSenSoapMessage@@IAEXXZ @ 11 NONAME ; void CSenSoapMessage::BaseConstructL(void)
	?BaseConstructL@CSenWsSecurityHeader@@IAEXABVTDesC8@@@Z @ 12 NONAME ; void CSenWsSecurityHeader::BaseConstructL(class TDesC8 const &)
	?BaseConstructL@CSenWsSecurityHeader@@IAEXXZ @ 13 NONAME ; void CSenWsSecurityHeader::BaseConstructL(void)
	?BodyAsStringL@CSenSoapEnvelope@@UAEPAVHBufC8@@XZ @ 14 NONAME ; class HBufC8 * CSenSoapEnvelope::BodyAsStringL(void)
	?BodyL@CSenSoapEnvelope@@UAEAAVCSenElement@@XZ @ 15 NONAME ; class CSenElement & CSenSoapEnvelope::BodyL(void)
	?ConstructL@CSenSoapFault@@IAEXAAVCSenElement@@@Z @ 16 NONAME ; void CSenSoapFault::ConstructL(class CSenElement &)
	?ConstructL@CSenSoapFault@@IAEXABVTDesC8@@00ABV?$RArray@VRAttribute@Xml@@@@@Z @ 17 NONAME ; void CSenSoapFault::ConstructL(class TDesC8 const &, class TDesC8 const &, class TDesC8 const &, class RArray<class Xml::RAttribute> const &)
	?DetachFaultL@CSenSoapEnvelope@@UAEPAVCSenSoapFault@@XZ @ 18 NONAME ; class CSenSoapFault * CSenSoapEnvelope::DetachFaultL(void)
	?Detail@CSenSoapFault@@QAE?AVTPtrC8@@XZ @ 19 NONAME ; class TPtrC8 CSenSoapFault::Detail(void)
	?EndElementL@CSenSoapEnvelope@@MAEXABVTDesC8@@00@Z @ 20 NONAME ; void CSenSoapEnvelope::EndElementL(class TDesC8 const &, class TDesC8 const &, class TDesC8 const &)
	?FaultActor@CSenSoapFault@@QAE?AVTPtrC8@@XZ @ 21 NONAME ; class TPtrC8 CSenSoapFault::FaultActor(void)
	?FaultCode@CSenSoapFault@@QAE?AVTPtrC8@@XZ @ 22 NONAME ; class TPtrC8 CSenSoapFault::FaultCode(void)
	?FaultL@CSenSoapEnvelope@@UAEPAVCSenSoapFault@@XZ @ 23 NONAME ; class CSenSoapFault * CSenSoapEnvelope::FaultL(void)
	?FaultString@CSenSoapFault@@QAE?AVTPtrC8@@XZ @ 24 NONAME ; class TPtrC8 CSenSoapFault::FaultString(void)
	?FromXmlDateTimeL@SenDateUtils@@SA?AVTTime@@ABVTDesC8@@@Z @ 25 NONAME ; class TTime SenDateUtils::FromXmlDateTimeL(class TDesC8 const &)
	?GetRandomGuid16LC@CSenGuidGen@@QAEPAVHBufC16@@XZ @ 26 NONAME ; class HBufC16 * CSenGuidGen::GetRandomGuid16LC(void)
	?GetRandomGuid8LC@CSenGuidGen@@QAEPAVHBufC8@@XZ @ 27 NONAME ; class HBufC8 * CSenGuidGen::GetRandomGuid8LC(void)
	?GetRandomGuidLC@CSenGuidGen@@QAEPAVHBufC16@@XZ @ 28 NONAME ; class HBufC16 * CSenGuidGen::GetRandomGuidLC(void)
	?HeaderL@CSenSoapEnvelope@@UAEAAVCSenElement@@XZ @ 29 NONAME ; class CSenElement & CSenSoapEnvelope::HeaderL(void)
	?IsFault@CSenSoapEnvelope@@UAEHXZ @ 30 NONAME ; int CSenSoapEnvelope::IsFault(void)
	?NewL@CSenGuidGen@@SAPAV1@XZ @ 31 NONAME ; class CSenGuidGen * CSenGuidGen::NewL(void)
	?NewL@CSenSoapEnvelope@@SAPAV1@XZ @ 32 NONAME ; class CSenSoapEnvelope * CSenSoapEnvelope::NewL(void)
	?NewL@CSenSoapFault@@SAPAV1@AAVCSenElement@@@Z @ 33 NONAME ; class CSenSoapFault * CSenSoapFault::NewL(class CSenElement &)
	?NewL@CSenSoapFault@@SAPAV1@ABVTDesC8@@00ABV?$RArray@VRAttribute@Xml@@@@@Z @ 34 NONAME ; class CSenSoapFault * CSenSoapFault::NewL(class TDesC8 const &, class TDesC8 const &, class TDesC8 const &, class RArray<class Xml::RAttribute> const &)
	?NewL@CSenSoapMessage@@SAPAV1@XZ @ 35 NONAME ; class CSenSoapMessage * CSenSoapMessage::NewL(void)
	?NewL@CSenWsSecurityHeader@@SAPAV1@ABVTDesC8@@@Z @ 36 NONAME ; class CSenWsSecurityHeader * CSenWsSecurityHeader::NewL(class TDesC8 const &)
	?NewL@CSenWsSecurityHeader@@SAPAV1@XZ @ 37 NONAME ; class CSenWsSecurityHeader * CSenWsSecurityHeader::NewL(void)
	?NewLC@CSenGuidGen@@SAPAV1@XZ @ 38 NONAME ; class CSenGuidGen * CSenGuidGen::NewLC(void)
	?NewSecurityHeaderLC@CSenSoapMessage@@MAEPAVCSenWsSecurityHeader@@PBVTDesC8@@@Z @ 39 NONAME ; class CSenWsSecurityHeader * CSenSoapMessage::NewSecurityHeaderLC(class TDesC8 const *)
	?ParseHeaderL@CSenSoapEnvelope@@MAEXABVTDesC8@@00ABV?$RArray@VRAttribute@Xml@@@@@Z @ 40 NONAME ; void CSenSoapEnvelope::ParseHeaderL(class TDesC8 const &, class TDesC8 const &, class TDesC8 const &, class RArray<class Xml::RAttribute> const &)
	?ParseHeaderL@CSenSoapMessage@@MAEXABVTDesC8@@00ABV?$RArray@VRAttribute@Xml@@@@@Z @ 41 NONAME ; void CSenSoapMessage::ParseHeaderL(class TDesC8 const &, class TDesC8 const &, class TDesC8 const &, class RArray<class Xml::RAttribute> const &)
	?SetBodyL@CSenSoapEnvelope@@UAE?AVTPtrC8@@ABVTDesC8@@@Z @ 42 NONAME ; class TPtrC8 CSenSoapEnvelope::SetBodyL(class TDesC8 const &)
	?SetSecurityHeaderL@CSenSoapMessage@@QAEXABVTDesC8@@@Z @ 43 NONAME ; void CSenSoapMessage::SetSecurityHeaderL(class TDesC8 const &)
	?SetSoapActionL@CSenSoapEnvelope@@UAE?AVTPtrC8@@ABVTDesC8@@@Z @ 44 NONAME ; class TPtrC8 CSenSoapEnvelope::SetSoapActionL(class TDesC8 const &)
	?SoapAction@CSenSoapEnvelope@@UAE?AVTPtrC8@@XZ @ 45 NONAME ; class TPtrC8 CSenSoapEnvelope::SoapAction(void)
	?StartElementL@CSenSoapEnvelope@@MAEXABVTDesC8@@00ABV?$RArray@VRAttribute@Xml@@@@@Z @ 46 NONAME ; void CSenSoapEnvelope::StartElementL(class TDesC8 const &, class TDesC8 const &, class TDesC8 const &, class RArray<class Xml::RAttribute> const &)
	?ToXmlDateTimeUtf8L@SenDateUtils@@SAXAAVTDes8@@ABVTTime@@@Z @ 47 NONAME ; void SenDateUtils::ToXmlDateTimeUtf8L(class TDes8 &, class TTime const &)
	?UsernameTokenL@CSenWsSecurityHeader@@QAEPAVHBufC8@@AAVCSenIdentityProvider@@@Z @ 48 NONAME ; class HBufC8 * CSenWsSecurityHeader::UsernameTokenL(class CSenIdentityProvider &)
	?UsernameTokenL@CSenWsSecurityHeader@@SAHABVTDesC8@@AAPAVHBufC8@@@Z @ 49 NONAME ; int CSenWsSecurityHeader::UsernameTokenL(class TDesC8 const &, class HBufC8 * &)
	?XmlNs@CSenWsSecurityHeader@@UAE?AVTPtrC8@@XZ @ 50 NONAME ; class TPtrC8 CSenWsSecurityHeader::XmlNs(void)
	?XmlNsPrefix@CSenWsSecurityHeader@@UAE?AVTPtrC8@@XZ @ 51 NONAME ; class TPtrC8 CSenWsSecurityHeader::XmlNsPrefix(void)
	??0CSenAttribute@@IAE@XZ @ 52 NONAME ; CSenAttribute::CSenAttribute(void)
	??1CSenAttribute@@UAE@XZ @ 53 NONAME ; CSenAttribute::~CSenAttribute(void)
	??1CSenAttributes@@UAE@XZ @ 54 NONAME ; CSenAttributes::~CSenAttributes(void)
	??1CSenIdentifier@@UAE@XZ @ 55 NONAME ; CSenIdentifier::~CSenIdentifier(void)
	?AddAttributeL@CSenAttributes@@QAEXABVCSenAttribute@@@Z @ 56 NONAME ; void CSenAttributes::AddAttributeL(class CSenAttribute const &)
	?AddAttributeL@CSenIdentifier@@QAEXAAVCSenAttribute@@@Z @ 57 NONAME ; void CSenIdentifier::AddAttributeL(class CSenAttribute &)
	?AddValueL@CSenAttribute@@QAEXABVTDesC8@@@Z @ 58 NONAME ; void CSenAttribute::AddValueL(class TDesC8 const &)
	?Attributes@CSenIdentifier@@QBEPBVCSenAttributes@@XZ @ 59 NONAME ; class CSenAttributes const * CSenIdentifier::Attributes(void) const
	?CertInfoToStringLC@SenCertUtils@@SAPAVHBufC8@@ABVTCertInfo@@@Z @ 60 NONAME ; class HBufC8 * SenCertUtils::CertInfoToStringLC(class TCertInfo const &)
	?ConstructL@CSenAttribute@@IAEXABVTDesC8@@000@Z @ 61 NONAME ; void CSenAttribute::ConstructL(class TDesC8 const &, class TDesC8 const &, class TDesC8 const &, class TDesC8 const &)
	?Count@CSenAttributes@@QBEHXZ @ 62 NONAME ; int CSenAttributes::Count(void) const
	?Equals@CSenAttribute@@QBEHABV1@@Z @ 63 NONAME ; int CSenAttribute::Equals(class CSenAttribute const &) const
	?Equals@CSenAttributes@@QBEHABVCSenAttribute@@@Z @ 64 NONAME ; int CSenAttributes::Equals(class CSenAttribute const &) const
	?Equals@CSenIdentifier@@QAEHABV1@@Z @ 65 NONAME ; int CSenIdentifier::Equals(class CSenIdentifier const &)
	?FriendlyName@CSenAttribute@@QBE?AVTPtrC8@@XZ @ 66 NONAME ; class TPtrC8 CSenAttribute::FriendlyName(void) const
	?GetAttribute@CSenAttributes@@QBEABVCSenAttribute@@ABVTDesC8@@@Z @ 67 NONAME ; class CSenAttribute const & CSenAttributes::GetAttribute(class TDesC8 const &) const
	?GetValues@CSenAttribute@@QBE?BV?$RPointerArray@VHBufC8@@@@XZ @ 68 NONAME ; class RPointerArray<class HBufC8> const CSenAttribute::GetValues(void) const
	?IsProxy@CSenIdentifier@@QBEHXZ @ 69 NONAME ; int CSenIdentifier::IsProxy(void) const
	?MatchAny@CSenAttributes@@QAEHABV1@@Z @ 70 NONAME ; int CSenAttributes::MatchAny(class CSenAttributes const &)
	?Name@CSenAttribute@@QBE?AVTPtrC8@@XZ @ 71 NONAME ; class TPtrC8 CSenAttribute::Name(void) const
	?NewL@CSenAttribute@@SAPAV1@ABVTDesC8@@000@Z @ 72 NONAME ; class CSenAttribute * CSenAttribute::NewL(class TDesC8 const &, class TDesC8 const &, class TDesC8 const &, class TDesC8 const &)
	?NewL@CSenAttribute@@SAPAV1@ABVTDesC8@@00@Z @ 73 NONAME ; class CSenAttribute * CSenAttribute::NewL(class TDesC8 const &, class TDesC8 const &, class TDesC8 const &)
	?NewL@CSenAttributes@@SAPAV1@ABV1@@Z @ 74 NONAME ; class CSenAttributes * CSenAttributes::NewL(class CSenAttributes const &)
	?NewL@CSenAttributes@@SAPAV1@XZ @ 75 NONAME ; class CSenAttributes * CSenAttributes::NewL(void)
	?NewL@CSenIdentifier@@SAPAV1@ABV1@@Z @ 76 NONAME ; class CSenIdentifier * CSenIdentifier::NewL(class CSenIdentifier const &)
	?NewL@CSenIdentifier@@SAPAV1@W4TIdentifierType@SenIdentifier@@ABVTCertInfo@@@Z @ 77 NONAME ; class CSenIdentifier * CSenIdentifier::NewL(enum SenIdentifier::TIdentifierType, class TCertInfo const &)
	?NewL@CSenIdentifier@@SAPAV1@W4TIdentifierType@SenIdentifier@@ABVTDesC8@@1@Z @ 78 NONAME ; class CSenIdentifier * CSenIdentifier::NewL(enum SenIdentifier::TIdentifierType, class TDesC8 const &, class TDesC8 const &)
	?NewL@CSenIdentifier@@SAPAV1@W4TIdentifierType@SenIdentifier@@ABVTDesC8@@@Z @ 79 NONAME ; class CSenIdentifier * CSenIdentifier::NewL(enum SenIdentifier::TIdentifierType, class TDesC8 const &)
	?NewL@CSenIdentifier@@SAPAV1@XZ @ 80 NONAME ; class CSenIdentifier * CSenIdentifier::NewL(void)
	?NewLC@CSenAttributes@@SAPAV1@ABV1@@Z @ 81 NONAME ; class CSenAttributes * CSenAttributes::NewLC(class CSenAttributes const &)
	?NewLC@CSenAttributes@@SAPAV1@XZ @ 82 NONAME ; class CSenAttributes * CSenAttributes::NewLC(void)
	?NewLC@CSenIdentifier@@SAPAV1@ABV1@@Z @ 83 NONAME ; class CSenIdentifier * CSenIdentifier::NewLC(class CSenIdentifier const &)
	?NewLC@CSenIdentifier@@SAPAV1@W4TIdentifierType@SenIdentifier@@ABVTCertInfo@@@Z @ 84 NONAME ; class CSenIdentifier * CSenIdentifier::NewLC(enum SenIdentifier::TIdentifierType, class TCertInfo const &)
	?NewLC@CSenIdentifier@@SAPAV1@W4TIdentifierType@SenIdentifier@@ABVTDesC8@@1@Z @ 85 NONAME ; class CSenIdentifier * CSenIdentifier::NewLC(enum SenIdentifier::TIdentifierType, class TDesC8 const &, class TDesC8 const &)
	?NewLC@CSenIdentifier@@SAPAV1@W4TIdentifierType@SenIdentifier@@ABVTDesC8@@@Z @ 86 NONAME ; class CSenIdentifier * CSenIdentifier::NewLC(enum SenIdentifier::TIdentifierType, class TDesC8 const &)
	?NewLC@CSenIdentifier@@SAPAV1@XZ @ 87 NONAME ; class CSenIdentifier * CSenIdentifier::NewLC(void)
	?NumValues@CSenAttribute@@QBEHXZ @ 88 NONAME ; int CSenAttribute::NumValues(void) const
	?Proxy@CSenIdentifier@@QBEPBV1@XZ @ 89 NONAME ; class CSenIdentifier const * CSenIdentifier::Proxy(void) const
	?ProxyFor@CSenIdentifier@@QAEXPAV1@@Z @ 90 NONAME ; void CSenIdentifier::ProxyFor(class CSenIdentifier *)
	?Root@CSenIdentifier@@QBEPBV1@XZ @ 91 NONAME ; class CSenIdentifier const * CSenIdentifier::Root(void) const
	?SetValueL@CSenAttribute@@QAEXABVTDesC8@@@Z @ 92 NONAME ; void CSenAttribute::SetValueL(class TDesC8 const &)
	?Type@CSenAttribute@@QBE?AVTPtrC8@@XZ @ 93 NONAME ; class TPtrC8 CSenAttribute::Type(void) const
	?Type@CSenIdentifier@@QBE?AW4TIdentifierType@SenIdentifier@@XZ @ 94 NONAME ; enum SenIdentifier::TIdentifierType CSenIdentifier::Type(void) const
	?Value@CSenAttribute@@QBE?AVTPtrC8@@XZ @ 95 NONAME ; class TPtrC8 CSenAttribute::Value(void) const
	?Value@CSenIdentifier@@QBE?AVTPtrC8@@XZ @ 96 NONAME ; class TPtrC8 CSenIdentifier::Value(void) const
	?ParseL@CSenSoapEnvelope@@UAEXABVTDesC8@@@Z @ 97 NONAME ; void CSenSoapEnvelope::ParseL(class TDesC8 const &)
	?HasBody@CSenSoapEnvelope@@QAEHXZ @ 98 NONAME ; int CSenSoapEnvelope::HasBody(void)
	?HasHeader@CSenSoapEnvelope@@QAEHXZ @ 99 NONAME ; int CSenSoapEnvelope::HasHeader(void)
	??0CSenChunk@@IAE@XZ @ 100 NONAME ; CSenChunk::CSenChunk(void)
	??1CSenChunk@@UAE@XZ @ 101 NONAME ; CSenChunk::~CSenChunk(void)
	??8CSenChunk@@QAEHABV0@@Z @ 102 NONAME ; int CSenChunk::operator==(class CSenChunk const &)
	?AdjustChunk@CSenChunk@@QAEHH@Z @ 103 NONAME ; int CSenChunk::AdjustChunk(int)
	?AllocDescToChunk@CSenChunk@@QAEHHAAPAVTPtr8@@@Z @ 104 NONAME ; int CSenChunk::AllocDescToChunk(int, class TPtr8 * &)
	?Chunk@CSenChunk@@QAEAAVRChunk@@XZ @ 105 NONAME ; class RChunk & CSenChunk::Chunk(void)
	?ChunkHeader@CSenChunk@@QAEAAVTChunkHeader@@XZ @ 106 NONAME ; class TChunkHeader & CSenChunk::ChunkHeader(void)
	?ChunkName@CSenChunk@@QBE?AVTPtrC16@@XZ @ 107 NONAME ; class TPtrC16 CSenChunk::ChunkName(void) const
	?ChunkToArgs@CSenChunk@@QAEXAAVTIpcArgs@@H@Z @ 108 NONAME ; void CSenChunk::ChunkToArgs(class TIpcArgs &, int)
	?CloseChunk@CSenChunk@@QAEXXZ @ 109 NONAME ; void CSenChunk::CloseChunk(void)
	?CreateChunk@CSenChunk@@QAEHXZ @ 110 NONAME ; int CSenChunk::CreateChunk(void)
	?DescFromChunk@CSenChunk@@QAEHAAVTPtrC8@@H@Z @ 111 NONAME ; int CSenChunk::DescFromChunk(class TPtrC8 &, int)
	?DescToChunk@CSenChunk@@QAEHABVTDesC8@@@Z @ 112 NONAME ; int CSenChunk::DescToChunk(class TDesC8 const &)
	?DescsFromChunk@CSenChunk@@QAEHAAVTPtrC8@@0@Z @ 113 NONAME ; int CSenChunk::DescsFromChunk(class TPtrC8 &, class TPtrC8 &)
	?DescsToChunk@CSenChunk@@QAEHABVTDesC8@@0@Z @ 114 NONAME ; int CSenChunk::DescsToChunk(class TDesC8 const &, class TDesC8 const &)
	?Log@CSenChunk@@IBEPAVRFileLogger@@XZ @ 115 NONAME ; class RFileLogger * CSenChunk::Log(void) const
	?NewL@CSenChunk@@SAPAV1@ABVTDesC16@@@Z @ 116 NONAME ; class CSenChunk * CSenChunk::NewL(class TDesC16 const &)
	?NewLC@CSenChunk@@SAPAV1@ABVTDesC16@@@Z @ 117 NONAME ; class CSenChunk * CSenChunk::NewLC(class TDesC16 const &)
	?OpenChunk@CSenChunk@@QAEHXZ @ 118 NONAME ; int CSenChunk::OpenChunk(void)
	?OpenChunkFromRMsgL@CSenChunk@@QAEHABVRMessage2@@H@Z @ 119 NONAME ; int CSenChunk::OpenChunkFromRMsgL(class RMessage2 const &, int)
	?SetLogger@CSenChunk@@QAEXPAVRFileLogger@@@Z @ 120 NONAME ; void CSenChunk::SetLogger(class RFileLogger *)
	??8CSenIdentifier@@QAEHABV0@@Z @ 121 NONAME ; int CSenIdentifier::operator==(class CSenIdentifier const &)
	?NewLC@CSenWsSecurityHeader@@SAPAV1@ABVTDesC8@@@Z @ 122 NONAME ; class CSenWsSecurityHeader * CSenWsSecurityHeader::NewLC(class TDesC8 const &)
	?NewLC@CSenWsSecurityHeader@@SAPAV1@XZ @ 123 NONAME ; class CSenWsSecurityHeader * CSenWsSecurityHeader::NewLC(void)
	?TimestampL@CSenWsSecurityHeader@@SAHABVTDesC8@@0AAPAVHBufC8@@@Z @ 124 NONAME ; int CSenWsSecurityHeader::TimestampL(class TDesC8 const &, class TDesC8 const &, class HBufC8 * &)
	?TimestampL@CSenWsSecurityHeader@@SAHABVTDesC8@@AAPAVHBufC8@@@Z @ 125 NONAME ; int CSenWsSecurityHeader::TimestampL(class TDesC8 const &, class HBufC8 * &)
	?UsernameTokenL@CSenWsSecurityHeader@@QAEPAVHBufC8@@AAVCSenIdentityProvider@@W4TPasswordType@1@@Z @ 126 NONAME ; class HBufC8 * CSenWsSecurityHeader::UsernameTokenL(class CSenIdentityProvider &, enum CSenWsSecurityHeader::TPasswordType)
	?UsernameTokenL@CSenWsSecurityHeader@@SAHABVTDesC8@@0AAPAVHBufC8@@@Z @ 127 NONAME ; int CSenWsSecurityHeader::UsernameTokenL(class TDesC8 const &, class TDesC8 const &, class HBufC8 * &)
	?UsernameTokenL@CSenWsSecurityHeader@@SAHABVTDesC8@@0W4TPasswordType@1@AAPAVHBufC8@@@Z @ 128 NONAME ; int CSenWsSecurityHeader::UsernameTokenL(class TDesC8 const &, class TDesC8 const &, enum CSenWsSecurityHeader::TPasswordType, class HBufC8 * &)
	?BaseConstructL@CSenSoapEnvelope@@IAEXW4TSOAPVersion@@@Z @ 129 NONAME ; void CSenSoapEnvelope::BaseConstructL(enum TSOAPVersion)
	?BaseConstructL@CSenSoapMessage@@IAEXW4TSOAPVersion@@@Z @ 130 NONAME ; void CSenSoapMessage::BaseConstructL(enum TSOAPVersion)
	?FaultSubcode@CSenSoapFault@@QAE?AVTPtrC8@@XZ @ 131 NONAME ; class TPtrC8 CSenSoapFault::FaultSubcode(void)
	?NewL@CSenSoapMessage@@SAPAV1@W4TSOAPVersion@@@Z @ 132 NONAME ; class CSenSoapMessage * CSenSoapMessage::NewL(enum TSOAPVersion)
	??0CSenTransportProperties@@IAE@XZ @ 133 NONAME ; CSenTransportProperties::CSenTransportProperties(void)
	??1CSenTransportProperties@@UAE@XZ @ 134 NONAME ; CSenTransportProperties::~CSenTransportProperties(void)
	?SoapActionL@CSenTransportProperties@@UAEHAAVTPtrC8@@@Z @ 135 NONAME ; int CSenTransportProperties::SoapActionL(class TPtrC8 &)
	?AsUtf8L@CSenTransportProperties@@UAEPAVHBufC8@@XZ @ 136 NONAME ; class HBufC8 * CSenTransportProperties::AsUtf8L(void)
	?AsUtf8LC@CSenTransportProperties@@UAEPAVHBufC8@@XZ @ 137 NONAME ; class HBufC8 * CSenTransportProperties::AsUtf8LC(void)
	?BaseConstructL@CSenSoapMessage@@IAEXW4TSOAPVersion@@ABVTDesC8@@@Z @ 138 NONAME ; void CSenSoapMessage::BaseConstructL(enum TSOAPVersion, class TDesC8 const &)
	?BaseConstructL@CSenTransportProperties@@MAEXABVCSenElement@@@Z @ 139 NONAME ; void CSenTransportProperties::BaseConstructL(class CSenElement const &)
	?BaseConstructL@CSenTransportProperties@@MAEXABVTDesC8@@000PAVCSenXmlReader@@@Z @ 140 NONAME ; void CSenTransportProperties::BaseConstructL(class TDesC8 const &, class TDesC8 const &, class TDesC8 const &, class TDesC8 const &, class CSenXmlReader *)
	?BaseConstructL@CSenTransportProperties@@MAEXABVTDesC8@@00PAVCSenXmlReader@@@Z @ 141 NONAME ; void CSenTransportProperties::BaseConstructL(class TDesC8 const &, class TDesC8 const &, class TDesC8 const &, class CSenXmlReader *)
	?BaseConstructL@CSenTransportProperties@@MAEXABVTDesC8@@0PAVCSenXmlReader@@@Z @ 142 NONAME ; void CSenTransportProperties::BaseConstructL(class TDesC8 const &, class TDesC8 const &, class CSenXmlReader *)
	?BaseConstructL@CSenWsSecurityHeader@@IAEXABVTDesC8@@0@Z @ 143 NONAME ; void CSenWsSecurityHeader::BaseConstructL(class TDesC8 const &, class TDesC8 const &)
	?BinarySecurityTokenL@CSenWsSecurityHeader@@SAHABVTDesC8@@AAPAVHBufC8@@@Z @ 144 NONAME ; int CSenWsSecurityHeader::BinarySecurityTokenL(class TDesC8 const &, class HBufC8 * &)
	?BoolPropertyL@CSenTransportProperties@@UAEHABVTDesC8@@AAH@Z @ 145 NONAME ; int CSenTransportProperties::BoolPropertyL(class TDesC8 const &, int &)
	?DecodeBase64L@SenCryptoUtils@@SAPAVHBufC8@@ABVTDesC8@@@Z @ 146 NONAME ; class HBufC8 * SenCryptoUtils::DecodeBase64L(class TDesC8 const &)
	?DeviceIDL@CSenTransportProperties@@UAEHAAVTPtrC8@@@Z @ 147 NONAME ; int CSenTransportProperties::DeviceIDL(class TPtrC8 &)
	?EncodeBase64L@SenCryptoUtils@@SAPAVHBufC8@@ABVTDesC8@@@Z @ 148 NONAME ; class HBufC8 * SenCryptoUtils::EncodeBase64L(class TDesC8 const &)
	?IapIdL@CSenTransportProperties@@UAEHAAK@Z @ 149 NONAME ; int CSenTransportProperties::IapIdL(unsigned long &)
	?IntPropertyL@CSenTransportProperties@@UAEHABVTDesC8@@AAH@Z @ 150 NONAME ; int CSenTransportProperties::IntPropertyL(class TDesC8 const &, int &)
	?NewL@CSenHttpTransportProperties@@SAPAV1@ABVCSenElement@@@Z @ 151 NONAME ; class CSenHttpTransportProperties * CSenHttpTransportProperties::NewL(class CSenElement const &)
	?NewL@CSenHttpTransportProperties@@SAPAV1@ABVTDesC8@@AAVCSenXmlReader@@@Z @ 152 NONAME ; class CSenHttpTransportProperties * CSenHttpTransportProperties::NewL(class TDesC8 const &, class CSenXmlReader &)
	?NewL@CSenHttpTransportProperties@@SAPAV1@XZ @ 153 NONAME ; class CSenHttpTransportProperties * CSenHttpTransportProperties::NewL(void)
	?NewL@CSenPropertiesElement@@SAPAV1@ABVTDesC8@@00ABV?$RArray@VRAttribute@Xml@@@@AAVCSenElement@@PAVRStringPool@@@Z @ 154 NONAME ; class CSenPropertiesElement * CSenPropertiesElement::NewL(class TDesC8 const &, class TDesC8 const &, class TDesC8 const &, class RArray<class Xml::RAttribute> const &, class CSenElement &, class RStringPool *)
	?NewL@CSenPropertiesElement@@SAPAV1@ABVTDesC8@@00ABV?$RArray@VRAttribute@Xml@@@@PAVRStringPool@@@Z @ 155 NONAME ; class CSenPropertiesElement * CSenPropertiesElement::NewL(class TDesC8 const &, class TDesC8 const &, class TDesC8 const &, class RArray<class Xml::RAttribute> const &, class RStringPool *)
	?NewL@CSenPropertiesElement@@SAPAV1@ABVTDesC8@@00PAVRStringPool@@@Z @ 156 NONAME ; class CSenPropertiesElement * CSenPropertiesElement::NewL(class TDesC8 const &, class TDesC8 const &, class TDesC8 const &, class RStringPool *)
	?NewL@CSenPropertiesElement@@SAPAV1@ABVTDesC8@@0PAVRStringPool@@@Z @ 157 NONAME ; class CSenPropertiesElement * CSenPropertiesElement::NewL(class TDesC8 const &, class TDesC8 const &, class RStringPool *)
	?NewL@CSenPropertiesElement@@SAPAV1@ABVTDesC8@@PAVRStringPool@@@Z @ 158 NONAME ; class CSenPropertiesElement * CSenPropertiesElement::NewL(class TDesC8 const &, class RStringPool *)
	?NewL@CSenPropertiesFragment@@SAPAV1@ABVCSenElement@@PAVRStringPool@@@Z @ 159 NONAME ; class CSenPropertiesFragment * CSenPropertiesFragment::NewL(class CSenElement const &, class RStringPool *)
	?NewL@CSenPropertiesFragment@@SAPAV1@ABVTDesC8@@00ABV?$RArray@VRAttribute@Xml@@@@AAVCSenElement@@PAVRStringPool@@@Z @ 160 NONAME ; class CSenPropertiesFragment * CSenPropertiesFragment::NewL(class TDesC8 const &, class TDesC8 const &, class TDesC8 const &, class RArray<class Xml::RAttribute> const &, class CSenElement &, class RStringPool *)
	?NewL@CSenPropertiesFragment@@SAPAV1@ABVTDesC8@@00ABV?$RArray@VRAttribute@Xml@@@@PAVRStringPool@@@Z @ 161 NONAME ; class CSenPropertiesFragment * CSenPropertiesFragment::NewL(class TDesC8 const &, class TDesC8 const &, class TDesC8 const &, class RArray<class Xml::RAttribute> const &, class RStringPool *)
	?NewL@CSenPropertiesFragment@@SAPAV1@ABVTDesC8@@00PAVRStringPool@@@Z @ 162 NONAME ; class CSenPropertiesFragment * CSenPropertiesFragment::NewL(class TDesC8 const &, class TDesC8 const &, class TDesC8 const &, class RStringPool *)
	?NewL@CSenPropertiesFragment@@SAPAV1@ABVTDesC8@@0PAVRStringPool@@@Z @ 163 NONAME ; class CSenPropertiesFragment * CSenPropertiesFragment::NewL(class TDesC8 const &, class TDesC8 const &, class RStringPool *)
	?NewL@CSenPropertiesFragment@@SAPAV1@ABVTDesC8@@PAVRStringPool@@@Z @ 164 NONAME ; class CSenPropertiesFragment * CSenPropertiesFragment::NewL(class TDesC8 const &, class RStringPool *)
	?NewL@CSenPropertiesFragment@@SAPAV1@PAVRStringPool@@@Z @ 165 NONAME ; class CSenPropertiesFragment * CSenPropertiesFragment::NewL(class RStringPool *)
	?NewL@CSenSoapMessage@@SAPAV1@W4TSOAPVersion@@ABVTDesC8@@@Z @ 166 NONAME ; class CSenSoapMessage * CSenSoapMessage::NewL(enum TSOAPVersion, class TDesC8 const &)
	?NewL@CSenTransportProperties@@SAPAV1@ABVCSenElement@@@Z @ 167 NONAME ; class CSenTransportProperties * CSenTransportProperties::NewL(class CSenElement const &)
	?NewL@CSenTransportProperties@@SAPAV1@ABVTDesC8@@AAVCSenXmlReader@@@Z @ 168 NONAME ; class CSenTransportProperties * CSenTransportProperties::NewL(class TDesC8 const &, class CSenXmlReader &)
	?NewL@CSenTransportProperties@@SAPAV1@XZ @ 169 NONAME ; class CSenTransportProperties * CSenTransportProperties::NewL(void)
	?NewL@CSenVtcpTransportProperties@@SAPAV1@ABVTDesC8@@AAVCSenXmlReader@@@Z @ 170 NONAME ; class CSenVtcpTransportProperties * CSenVtcpTransportProperties::NewL(class TDesC8 const &, class CSenXmlReader &)
	?NewL@CSenVtcpTransportProperties@@SAPAV1@XZ @ 171 NONAME ; class CSenVtcpTransportProperties * CSenVtcpTransportProperties::NewL(void)
	?NewL@CSenWsSecurityHeader@@SAPAV1@ABVTDesC8@@0@Z @ 172 NONAME ; class CSenWsSecurityHeader * CSenWsSecurityHeader::NewL(class TDesC8 const &, class TDesC8 const &)
	?NewL@CSenXmlProperties@@SAPAV1@ABVCSenElement@@@Z @ 173 NONAME ; class CSenXmlProperties * CSenXmlProperties::NewL(class CSenElement const &)
	?NewL@CSenXmlProperties@@SAPAV1@ABVTDesC8@@AAVCSenXmlReader@@@Z @ 174 NONAME ; class CSenXmlProperties * CSenXmlProperties::NewL(class TDesC8 const &, class CSenXmlReader &)
	?NewL@CSenXmlProperties@@SAPAV1@XZ @ 175 NONAME ; class CSenXmlProperties * CSenXmlProperties::NewL(void)
	?NewLC@CSenHttpTransportProperties@@SAPAV1@ABVCSenElement@@@Z @ 176 NONAME ; class CSenHttpTransportProperties * CSenHttpTransportProperties::NewLC(class CSenElement const &)
	?NewLC@CSenHttpTransportProperties@@SAPAV1@ABVTDesC8@@AAVCSenXmlReader@@@Z @ 177 NONAME ; class CSenHttpTransportProperties * CSenHttpTransportProperties::NewLC(class TDesC8 const &, class CSenXmlReader &)
	?NewLC@CSenHttpTransportProperties@@SAPAV1@XZ @ 178 NONAME ; class CSenHttpTransportProperties * CSenHttpTransportProperties::NewLC(void)
	?NewLC@CSenTransportProperties@@SAPAV1@ABVCSenElement@@@Z @ 179 NONAME ; class CSenTransportProperties * CSenTransportProperties::NewLC(class CSenElement const &)
	?NewLC@CSenTransportProperties@@SAPAV1@ABVTDesC8@@AAVCSenXmlReader@@@Z @ 180 NONAME ; class CSenTransportProperties * CSenTransportProperties::NewLC(class TDesC8 const &, class CSenXmlReader &)
	?NewLC@CSenTransportProperties@@SAPAV1@XZ @ 181 NONAME ; class CSenTransportProperties * CSenTransportProperties::NewLC(void)
	?NewLC@CSenVtcpTransportProperties@@SAPAV1@ABVTDesC8@@AAVCSenXmlReader@@@Z @ 182 NONAME ; class CSenVtcpTransportProperties * CSenVtcpTransportProperties::NewLC(class TDesC8 const &, class CSenXmlReader &)
	?NewLC@CSenVtcpTransportProperties@@SAPAV1@XZ @ 183 NONAME ; class CSenVtcpTransportProperties * CSenVtcpTransportProperties::NewLC(void)
	?NewLC@CSenWsSecurityHeader@@SAPAV1@ABVTDesC8@@0@Z @ 184 NONAME ; class CSenWsSecurityHeader * CSenWsSecurityHeader::NewLC(class TDesC8 const &, class TDesC8 const &)
	?NewLC@CSenXmlProperties@@SAPAV1@ABVCSenElement@@@Z @ 185 NONAME ; class CSenXmlProperties * CSenXmlProperties::NewLC(class CSenElement const &)
	?NewLC@CSenXmlProperties@@SAPAV1@ABVTDesC8@@AAVCSenXmlReader@@@Z @ 186 NONAME ; class CSenXmlProperties * CSenXmlProperties::NewLC(class TDesC8 const &, class CSenXmlReader &)
	?NewLC@CSenXmlProperties@@SAPAV1@XZ @ 187 NONAME ; class CSenXmlProperties * CSenXmlProperties::NewLC(void)
	?OpenChunkFromHandleNumberL@CSenChunk@@QAEHH@Z @ 188 NONAME ; int CSenChunk::OpenChunkFromHandleNumberL(int)
	?GetPSHA1HashL@SenCryptoUtils@@SAPAVHBufC8@@ABVTDesC8@@0H@Z @ 189 NONAME ; class HBufC8 * SenCryptoUtils::GetPSHA1HashL(class TDesC8 const &, class TDesC8 const &, int)
	?PropertiesClassType@CSenTransportProperties@@UAE?AW4TSenPropertiesClassType@MSenProperties@@XZ @ 190 NONAME ; enum MSenProperties::TSenPropertiesClassType CSenTransportProperties::PropertiesClassType(void)
	?PropertyL@CSenTransportProperties@@UAEHABVTDesC8@@AAVTPtrC8@@1@Z @ 191 NONAME ; int CSenTransportProperties::PropertyL(class TDesC8 const &, class TPtrC8 &, class TPtrC8 &)
	?PropertyL@CSenTransportProperties@@UAEHABVTDesC8@@AAVTPtrC8@@@Z @ 192 NONAME ; int CSenTransportProperties::PropertyL(class TDesC8 const &, class TPtrC8 &)
	?ProxyHostL@CSenTransportProperties@@UAEHAAVTPtrC8@@@Z @ 193 NONAME ; int CSenTransportProperties::ProxyHostL(class TPtrC8 &)
	?ProxyPortL@CSenTransportProperties@@UAEHAAH@Z @ 194 NONAME ; int CSenTransportProperties::ProxyPortL(int &)
	?ProxyUsageL@CSenTransportProperties@@UAEHAAH@Z @ 195 NONAME ; int CSenTransportProperties::ProxyUsageL(int &)
	?RandomAndHashMd5LC@SenCryptoUtils@@SAPAVHBufC8@@XZ @ 196 NONAME ; class HBufC8 * SenCryptoUtils::RandomAndHashMd5LC(void)
	?ReadFromL@CSenTransportProperties@@UAEXABVTDesC8@@@Z @ 197 NONAME ; void CSenTransportProperties::ReadFromL(class TDesC8 const &)
	?RemovePropertyL@CSenTransportProperties@@UAEHABVTDesC8@@@Z @ 198 NONAME ; int CSenTransportProperties::RemovePropertyL(class TDesC8 const &)
	?SecureDialogL@CSenTransportProperties@@UAEHAAH@Z @ 199 NONAME ; int CSenTransportProperties::SecureDialogL(int &)
	?SetSoapActionL@CSenTransportProperties@@UAEXABVTDesC8@@@Z @ 200 NONAME ; void CSenTransportProperties::SetSoapActionL(class TDesC8 const &)
	?SetBoolPropertyL@CSenTransportProperties@@UAEHABVTDesC8@@H@Z @ 201 NONAME ; int CSenTransportProperties::SetBoolPropertyL(class TDesC8 const &, int)
	?SetDeviceIDL@CSenTransportProperties@@UAEXABVTDesC8@@@Z @ 202 NONAME ; void CSenTransportProperties::SetDeviceIDL(class TDesC8 const &)
	?SetIapIdL@CSenTransportProperties@@UAEXK@Z @ 203 NONAME ; void CSenTransportProperties::SetIapIdL(unsigned long)
	?SetIntPropertyL@CSenTransportProperties@@UAEHABVTDesC8@@H@Z @ 204 NONAME ; int CSenTransportProperties::SetIntPropertyL(class TDesC8 const &, int)
	?SetOmittedL@CSenTransportProperties@@UAEHABVTDesC8@@H@Z @ 205 NONAME ; int CSenTransportProperties::SetOmittedL(class TDesC8 const &, int)
	?SetPropertyL@CSenTransportProperties@@UAEHABVTDesC8@@00@Z @ 206 NONAME ; int CSenTransportProperties::SetPropertyL(class TDesC8 const &, class TDesC8 const &, class TDesC8 const &)
	?SetPropertyL@CSenTransportProperties@@UAEHABVTDesC8@@0@Z @ 207 NONAME ; int CSenTransportProperties::SetPropertyL(class TDesC8 const &, class TDesC8 const &)
	?SetProxyHostL@CSenTransportProperties@@UAEXABVTDesC8@@@Z @ 208 NONAME ; void CSenTransportProperties::SetProxyHostL(class TDesC8 const &)
	?SetProxyPortL@CSenTransportProperties@@UAEXH@Z @ 209 NONAME ; void CSenTransportProperties::SetProxyPortL(int)
	?SetProxyUsageL@CSenTransportProperties@@UAEXH@Z @ 210 NONAME ; void CSenTransportProperties::SetProxyUsageL(int)
	?SetReader@CSenTransportProperties@@UAEXAAVCSenXmlReader@@@Z @ 211 NONAME ; void CSenTransportProperties::SetReader(class CSenXmlReader &)
	?SetSecureDialogL@CSenTransportProperties@@UAEXH@Z @ 212 NONAME ; void CSenTransportProperties::SetSecureDialogL(int)
	?SetUserAgentL@CSenTransportProperties@@UAEXABVTDesC8@@@Z @ 213 NONAME ; void CSenTransportProperties::SetUserAgentL(class TDesC8 const &)
	?UserAgentL@CSenTransportProperties@@UAEHAAVTPtrC8@@@Z @ 214 NONAME ; int CSenTransportProperties::UserAgentL(class TPtrC8 &)
	?WriteToL@CSenTransportProperties@@UAEXAAVRWriteStream@@@Z @ 215 NONAME ; void CSenTransportProperties::WriteToL(class RWriteStream &)
	?ApplyBindingL@CSenTransportProperties@@UAEXW4TSOAPVersion@@@Z @ 216 NONAME ; void CSenTransportProperties::ApplyBindingL(enum TSOAPVersion)
	?Clone@CSenTransportProperties@@UBEPAVMSenProperties@@AAH@Z @ 217 NONAME ; class MSenProperties * CSenTransportProperties::Clone(int &) const
	?CloneL@CSenTransportProperties@@UBEPAVMSenProperties@@XZ @ 218 NONAME ; class MSenProperties * CSenTransportProperties::CloneL(void) const
	?CreateEncodedBinarySecretL@SenCryptoUtils@@SAPAVHBufC8@@ABVTDesC8@@0@Z @ 219 NONAME ; class HBufC8 * SenCryptoUtils::CreateEncodedBinarySecretL(class TDesC8 const &, class TDesC8 const &)
	?DescToChunk@CSenChunk@@QAEHABVTDesC8@@H@Z @ 220 NONAME ; int CSenChunk::DescToChunk(class TDesC8 const &, int)
	?DownloadFolderL@CSenTransportProperties@@UAEHAAVTPtrC8@@@Z @ 221 NONAME ; int CSenTransportProperties::DownloadFolderL(class TPtrC8 &)
	?FileAttachmentL@CSenTransportProperties@@UAEHABVTDesC8@@AAPAVHBufC8@@@Z @ 222 NONAME ; int CSenTransportProperties::FileAttachmentL(class TDesC8 const &, class HBufC8 * &)
	?HeartbeatL@CSenTransportProperties@@UAEHAAH@Z @ 223 NONAME ; int CSenTransportProperties::HeartbeatL(int &)
	?IsSafeToCast@CSenTransportProperties@@UAEHW4TSenPropertiesClassType@MSenProperties@@@Z @ 224 NONAME ; int CSenTransportProperties::IsSafeToCast(enum MSenProperties::TSenPropertiesClassType)
	?MaxTimeToLiveL@CSenTransportProperties@@UAEHAAH@Z @ 225 NONAME ; int CSenTransportProperties::MaxTimeToLiveL(int &)
	?MaxTimeToLiveL@CSenVtcpTransportProperties@@UAEHAAH@Z @ 226 NONAME ; int CSenVtcpTransportProperties::MaxTimeToLiveL(int &)
	?MessageIdL@CSenTransportProperties@@UAEHAAVTPtrC8@@@Z @ 227 NONAME ; int CSenTransportProperties::MessageIdL(class TPtrC8 &)
	?MinTimeToLiveL@CSenTransportProperties@@UAEHAAH@Z @ 228 NONAME ; int CSenTransportProperties::MinTimeToLiveL(int &)
	?MinTimeToLiveL@CSenVtcpTransportProperties@@UAEHAAH@Z @ 229 NONAME ; int CSenVtcpTransportProperties::MinTimeToLiveL(int &)
	?MwsNamespaceL@CSenTransportProperties@@UAEHAAVTPtrC8@@@Z @ 230 NONAME ; int CSenTransportProperties::MwsNamespaceL(class TPtrC8 &)
	?NewL@CSenVtcpTransportProperties@@SAPAV1@ABVCSenElement@@@Z @ 231 NONAME ; class CSenVtcpTransportProperties * CSenVtcpTransportProperties::NewL(class CSenElement const &)
	?NewLC@CSenVtcpTransportProperties@@SAPAV1@ABVCSenElement@@@Z @ 232 NONAME ; class CSenVtcpTransportProperties * CSenVtcpTransportProperties::NewLC(class CSenElement const &)
	?OnewayMessageOnOffL@CSenTransportProperties@@UAEHAAH@Z @ 233 NONAME ; int CSenTransportProperties::OnewayMessageOnOffL(int &)
	?OnewayMessageOnOffL@CSenVtcpTransportProperties@@UAEHAAH@Z @ 234 NONAME ; int CSenVtcpTransportProperties::OnewayMessageOnOffL(int &)
	?SearchEndTagL@SenSaxUtils@@SAHABVTDesC8@@00AAH1@Z @ 235 NONAME ; int SenSaxUtils::SearchEndTagL(class TDesC8 const &, class TDesC8 const &, class TDesC8 const &, int &, int &)
	?SearchEndTagL@SenSaxUtils@@SAHABVTDesC8@@0AAH1AAVTPtrC8@@@Z @ 236 NONAME ; int SenSaxUtils::SearchEndTagL(class TDesC8 const &, class TDesC8 const &, int &, int &, class TPtrC8 &)
	?SearchStartTagL@SenSaxUtils@@SAHABVTDesC8@@00AAH1@Z @ 237 NONAME ; int SenSaxUtils::SearchStartTagL(class TDesC8 const &, class TDesC8 const &, class TDesC8 const &, int &, int &)
	?SearchStartTagL@SenSaxUtils@@SAHABVTDesC8@@0AAH1AAVTPtrC8@@@Z @ 238 NONAME ; int SenSaxUtils::SearchStartTagL(class TDesC8 const &, class TDesC8 const &, int &, int &, class TPtrC8 &)
	?SetDownloadFolderL@CSenTransportProperties@@UAEXABVTDesC8@@@Z @ 239 NONAME ; void CSenTransportProperties::SetDownloadFolderL(class TDesC8 const &)
	?SetFileAttachmentL@CSenTransportProperties@@UAEHABVTDesC8@@0@Z @ 240 NONAME ; int CSenTransportProperties::SetFileAttachmentL(class TDesC8 const &, class TDesC8 const &)
	?SetHeartbeatL@CSenTransportProperties@@UAEHH@Z @ 241 NONAME ; int CSenTransportProperties::SetHeartbeatL(int)
	?SetMaxTimeToLiveL@CSenTransportProperties@@UAEHH@Z @ 242 NONAME ; int CSenTransportProperties::SetMaxTimeToLiveL(int)
	?SetMaxTimeToLiveL@CSenVtcpTransportProperties@@UAEHH@Z @ 243 NONAME ; int CSenVtcpTransportProperties::SetMaxTimeToLiveL(int)
	?SetMessageIdL@CSenTransportProperties@@UAEXABVTDesC8@@@Z @ 244 NONAME ; void CSenTransportProperties::SetMessageIdL(class TDesC8 const &)
	?SetMinTimeToLiveL@CSenTransportProperties@@UAEHH@Z @ 245 NONAME ; int CSenTransportProperties::SetMinTimeToLiveL(int)
	?SetMinTimeToLiveL@CSenVtcpTransportProperties@@UAEHH@Z @ 246 NONAME ; int CSenVtcpTransportProperties::SetMinTimeToLiveL(int)
	?SetMwsNamespaceL@CSenTransportProperties@@UAEXABVTDesC8@@@Z @ 247 NONAME ; void CSenTransportProperties::SetMwsNamespaceL(class TDesC8 const &)
	?SetOnewayMessageOnOffL@CSenTransportProperties@@UAEXH@Z @ 248 NONAME ; void CSenTransportProperties::SetOnewayMessageOnOffL(int)
	?SetOnewayMessageOnOffL@CSenVtcpTransportProperties@@UAEXH@Z @ 249 NONAME ; void CSenVtcpTransportProperties::SetOnewayMessageOnOffL(int)
	?SoapVersion@CSenSoapEnvelope@@QAE?AW4TSOAPVersion@@XZ @ 250 NONAME ; enum TSOAPVersion CSenSoapEnvelope::SoapVersion(void)
	?BinarySecurityTokenL@CSenWsSecurityHeader@@SAHABVTDesC8@@0AAPAVHBufC8@@@Z @ 251 NONAME ; int CSenWsSecurityHeader::BinarySecurityTokenL(class TDesC8 const &, class TDesC8 const &, class HBufC8 * &)
	?SoapAction2@CSenSoapEnvelope@@QAE?AVTPtrC8@@XZ @ 252 NONAME ; class TPtrC8 CSenSoapEnvelope::SoapAction2(void)
	?ToXmlDateTimeUtf82L@SenDateUtils@@SAXAAVTDes8@@ABVTTime@@@Z @ 253 NONAME ; void SenDateUtils::ToXmlDateTimeUtf82L(class TDes8 &, class TTime const &)
	?GetRandomNonceL@SenCryptoUtils@@SAPAVHBufC8@@XZ @ 254 NONAME ; class HBufC8 * SenCryptoUtils::GetRandomNonceL(void)
	?GetTimestampL@SenCryptoUtils@@SAPAVHBufC8@@XZ @ 255 NONAME ; class HBufC8 * SenCryptoUtils::GetTimestampL(void)
	?EndpointResourceL@CSenTransportProperties@@UAEHAAVTPtrC8@@@Z @ 256 NONAME ; int CSenTransportProperties::EndpointResourceL(class TPtrC8 &)
	?SetEndpointResourceL@CSenTransportProperties@@UAEHABVTDesC8@@@Z @ 257 NONAME ; int CSenTransportProperties::SetEndpointResourceL(class TDesC8 const &)
	?GetTimestampL@SenCryptoUtils@@SAPAVHBufC8@@VTTime@@@Z @ 258 NONAME ; class HBufC8 * SenCryptoUtils::GetTimestampL(class TTime)
	?SetSnapIdL@CSenTransportProperties@@QAEXK@Z @ 259 NONAME ; void CSenTransportProperties::SetSnapIdL(unsigned long)
	?SnapIdL@CSenTransportProperties@@QAEHAAK@Z @ 260 NONAME ; int CSenTransportProperties::SnapIdL(unsigned long &)
	?MaxRetryTTLL@CSenVtcpTransportProperties@@UAEHAAH@Z @ 261 NONAME ; int CSenVtcpTransportProperties::MaxRetryTTLL(int &)
	?SetRetryDeltaTimeoutL@CSenVtcpTransportProperties@@UAEHH@Z @ 262 NONAME ; int CSenVtcpTransportProperties::SetRetryDeltaTimeoutL(int)
	?MinRetryTTLL@CSenVtcpTransportProperties@@UAEHAAH@Z @ 263 NONAME ; int CSenVtcpTransportProperties::MinRetryTTLL(int &)
	?SetMaxRetryTTLL@CSenVtcpTransportProperties@@UAEHH@Z @ 264 NONAME ; int CSenVtcpTransportProperties::SetMaxRetryTTLL(int)
	?RetryDeltaTimeoutL@CSenVtcpTransportProperties@@UAEHAAH@Z @ 265 NONAME ; int CSenVtcpTransportProperties::RetryDeltaTimeoutL(int &)
	?SetMinRetryTTLL@CSenVtcpTransportProperties@@UAEHH@Z @ 266 NONAME ; int CSenVtcpTransportProperties::SetMinRetryTTLL(int)
	?RequestFileHandle@CSenChunk@@QAEXAAVRFile@@@Z @ 267 NONAME ; void CSenChunk::RequestFileHandle(class RFile &)
	?RequestFileHandle@CSenChunk@@QAEAAVRFile@@XZ @ 268 NONAME ; class RFile & CSenChunk::RequestFileHandle(void)

