EXPORTS
	??0CAlfAnchorLayoutHandler@@QAE@AAVMAlfInterfaceProvider@@@Z @ 1 NONAME ; CAlfAnchorLayoutHandler::CAlfAnchorLayoutHandler(class MAlfInterfaceProvider &)
	?NewAppServerL@CAlfAppServer@@SAPAV1@XZ @ 2 NONAME
	??0CAlfAppSrvSessionBase@@QAE@PBVCAlfAppServer@@@Z @ 3 NONAME ; CAlfAppSrvSessionBase::CAlfAppSrvSessionBase(class CAlfAppServer const *)
	??0CAlfAppSrvSessionBase@@QAE@XZ @ 4 NONAME ; CAlfAppSrvSessionBase::CAlfAppSrvSessionBase(void)
	??0CAlfAppUi@@QAE@XZ @ 5 NONAME ; CAlfAppUi::CAlfAppUi(void)
	??0CAlfBorderBrushHandler@@QAE@AAVMAlfInterfaceProvider@@@Z @ 6 NONAME ; CAlfBorderBrushHandler::CAlfBorderBrushHandler(class MAlfInterfaceProvider &)
	??0CAlfBrushHandler@@IAE@AAVMAlfInterfaceProvider@@@Z @ 7 NONAME ; CAlfBrushHandler::CAlfBrushHandler(class MAlfInterfaceProvider &)
	??0CAlfCurvePathLayoutHandler@@QAE@AAVMAlfInterfaceProvider@@@Z @ 8 NONAME ; CAlfCurvePathLayoutHandler::CAlfCurvePathLayoutHandler(class MAlfInterfaceProvider &)
	??0CAlfDeckLayoutHandler@@QAE@AAVMAlfInterfaceProvider@@@Z @ 9 NONAME ; CAlfDeckLayoutHandler::CAlfDeckLayoutHandler(class MAlfInterfaceProvider &)
	??0CAlfDropShadowBrushHandler@@QAE@AAVMAlfInterfaceProvider@@@Z @ 10 NONAME ; CAlfDropShadowBrushHandler::CAlfDropShadowBrushHandler(class MAlfInterfaceProvider &)
	??0CAlfFlowLayoutHandler@@QAE@AAVMAlfInterfaceProvider@@@Z @ 11 NONAME ; CAlfFlowLayoutHandler::CAlfFlowLayoutHandler(class MAlfInterfaceProvider &)
	??0CAlfFrameBrushHandler@@QAE@AAVMAlfInterfaceProvider@@@Z @ 12 NONAME ; CAlfFrameBrushHandler::CAlfFrameBrushHandler(class MAlfInterfaceProvider &)
	??0CAlfGradientBrushHandler@@QAE@AAVMAlfInterfaceProvider@@@Z @ 13 NONAME ; CAlfGradientBrushHandler::CAlfGradientBrushHandler(class MAlfInterfaceProvider &)
	??0CAlfGridLayoutHandler@@QAE@AAVMAlfInterfaceProvider@@@Z @ 14 NONAME ; CAlfGridLayoutHandler::CAlfGridLayoutHandler(class MAlfInterfaceProvider &)
	??0CAlfImageBrushHandler@@QAE@AAVMAlfInterfaceProvider@@@Z @ 15 NONAME ; CAlfImageBrushHandler::CAlfImageBrushHandler(class MAlfInterfaceProvider &)
	??0CAlfImageVisualHandler@@QAE@AAVMAlfInterfaceProvider@@@Z @ 16 NONAME ; CAlfImageVisualHandler::CAlfImageVisualHandler(class MAlfInterfaceProvider &)
	??0CAlfLCTAnchorLayoutHandler@@QAE@AAVMAlfInterfaceProvider@@@Z @ 17 NONAME ; CAlfLCTAnchorLayoutHandler::CAlfLCTAnchorLayoutHandler(class MAlfInterfaceProvider &)
	??0CAlfLCTGridLayoutHandler@@QAE@AAVMAlfInterfaceProvider@@@Z @ 18 NONAME ; CAlfLCTGridLayoutHandler::CAlfLCTGridLayoutHandler(class MAlfInterfaceProvider &)
	??0CAlfLCTTextVisualHandler@@QAE@AAVMAlfInterfaceProvider@@@Z @ 19 NONAME ; CAlfLCTTextVisualHandler::CAlfLCTTextVisualHandler(class MAlfInterfaceProvider &)
	??0CAlfLayoutHandler@@QAE@AAVMAlfInterfaceProvider@@@Z @ 20 NONAME ; CAlfLayoutHandler::CAlfLayoutHandler(class MAlfInterfaceProvider &)
	??0CAlfLineVisualHandler@@QAE@AAVMAlfInterfaceProvider@@@Z @ 21 NONAME ; CAlfLineVisualHandler::CAlfLineVisualHandler(class MAlfInterfaceProvider &)
	??0CAlfMeshVisualHandler@@QAE@AAVMAlfInterfaceProvider@@@Z @ 22 NONAME ; CAlfMeshVisualHandler::CAlfMeshVisualHandler(class MAlfInterfaceProvider &)
	??0CAlfShadowBorderBrushHandler@@QAE@AAVMAlfInterfaceProvider@@@Z @ 23 NONAME ; CAlfShadowBorderBrushHandler::CAlfShadowBorderBrushHandler(class MAlfInterfaceProvider &)
	??0CAlfTextVisualHandler@@QAE@AAVMAlfInterfaceProvider@@@Z @ 24 NONAME ; CAlfTextVisualHandler::CAlfTextVisualHandler(class MAlfInterfaceProvider &)
	??0CAlfViewportLayoutHandler@@QAE@AAVMAlfInterfaceProvider@@@Z @ 25 NONAME ; CAlfViewportLayoutHandler::CAlfViewportLayoutHandler(class MAlfInterfaceProvider &)
	??0CAlfVisualHandler@@QAE@AAVMAlfInterfaceProvider@@@Z @ 26 NONAME ; CAlfVisualHandler::CAlfVisualHandler(class MAlfInterfaceProvider &)
	??0TAlfTableMappingFunction@@QAE@XZ @ 27 NONAME ABSENT
	??1CAlfAnchorLayoutHandler@@MAE@XZ @ 28 NONAME ; CAlfAnchorLayoutHandler::~CAlfAnchorLayoutHandler(void)
	??1CAlfAppSrvSessionBase@@UAE@XZ @ 29 NONAME ; CAlfAppSrvSessionBase::~CAlfAppSrvSessionBase(void)
	??1CAlfAppUi@@UAE@XZ @ 30 NONAME ; CAlfAppUi::~CAlfAppUi(void)
	??1CAlfBorderBrushHandler@@MAE@XZ @ 31 NONAME ; CAlfBorderBrushHandler::~CAlfBorderBrushHandler(void)
	??1CAlfBrushHandler@@MAE@XZ @ 32 NONAME ; CAlfBrushHandler::~CAlfBrushHandler(void)
	??1CAlfCurvePathLayoutHandler@@MAE@XZ @ 33 NONAME ; CAlfCurvePathLayoutHandler::~CAlfCurvePathLayoutHandler(void)
	??1CAlfDeckLayoutHandler@@MAE@XZ @ 34 NONAME ; CAlfDeckLayoutHandler::~CAlfDeckLayoutHandler(void)
	??1CAlfDropShadowBrushHandler@@MAE@XZ @ 35 NONAME ; CAlfDropShadowBrushHandler::~CAlfDropShadowBrushHandler(void)
	??1CAlfFlowLayoutHandler@@MAE@XZ @ 36 NONAME ; CAlfFlowLayoutHandler::~CAlfFlowLayoutHandler(void)
	??1CAlfFrameBrushHandler@@MAE@XZ @ 37 NONAME ; CAlfFrameBrushHandler::~CAlfFrameBrushHandler(void)
	??1CAlfGradientBrushHandler@@MAE@XZ @ 38 NONAME ; CAlfGradientBrushHandler::~CAlfGradientBrushHandler(void)
	??1CAlfGridLayoutHandler@@MAE@XZ @ 39 NONAME ; CAlfGridLayoutHandler::~CAlfGridLayoutHandler(void)
	??1CAlfImageBrushHandler@@MAE@XZ @ 40 NONAME ; CAlfImageBrushHandler::~CAlfImageBrushHandler(void)
	??1CAlfImageVisualHandler@@MAE@XZ @ 41 NONAME ; CAlfImageVisualHandler::~CAlfImageVisualHandler(void)
	??1CAlfLCTAnchorLayoutHandler@@MAE@XZ @ 42 NONAME ; CAlfLCTAnchorLayoutHandler::~CAlfLCTAnchorLayoutHandler(void)
	??1CAlfLCTGridLayoutHandler@@MAE@XZ @ 43 NONAME ; CAlfLCTGridLayoutHandler::~CAlfLCTGridLayoutHandler(void)
	??1CAlfLCTTextVisualHandler@@MAE@XZ @ 44 NONAME ; CAlfLCTTextVisualHandler::~CAlfLCTTextVisualHandler(void)
	??1CAlfLayoutHandler@@MAE@XZ @ 45 NONAME ; CAlfLayoutHandler::~CAlfLayoutHandler(void)
	??1CAlfLineVisualHandler@@MAE@XZ @ 46 NONAME ; CAlfLineVisualHandler::~CAlfLineVisualHandler(void)
	??1CAlfMeshVisualHandler@@MAE@XZ @ 47 NONAME ; CAlfMeshVisualHandler::~CAlfMeshVisualHandler(void)
	??1CAlfShadowBorderBrushHandler@@MAE@XZ @ 48 NONAME ; CAlfShadowBorderBrushHandler::~CAlfShadowBorderBrushHandler(void)
	??1CAlfTextVisualHandler@@MAE@XZ @ 49 NONAME ; CAlfTextVisualHandler::~CAlfTextVisualHandler(void)
	??1CAlfViewportLayoutHandler@@MAE@XZ @ 50 NONAME ; CAlfViewportLayoutHandler::~CAlfViewportLayoutHandler(void)
	??1CAlfVisualHandler@@MAE@XZ @ 51 NONAME ; CAlfVisualHandler::~CAlfVisualHandler(void)
	?AdjustWindowGroupPositionL@CAlfAppServer@@QAEXAAVRWindowGroup@@HW4TAlfWGPostion@1@@Z @ 52 NONAME ; void CAlfAppServer::AdjustWindowGroupPositionL(class RWindowGroup &, int, enum CAlfAppServer::TAlfWGPostion)
	?AlfAppUi@CAlfAppSrvSessionBase@@QAEPAVCAlfAppUi@@XZ @ 53 NONAME ; class CAlfAppUi * CAlfAppSrvSessionBase::AlfAppUi(void)
	?AlfServer@CAlfAppSrvSessionBase@@QAEPAVCAlfAppServer@@XZ @ 54 NONAME ; class CAlfAppServer * CAlfAppSrvSessionBase::AlfServer(void)
	?AppUi@CAlfAppServer@@QAEPAVCAlfAppUi@@XZ @ 55 NONAME ; class CAlfAppUi * CAlfAppServer::AppUi(void)
	?AppendDisplayOnSharedWindowL@CAlfAppUi@@QAEXAAVCHuiDisplay@@@Z @ 56 NONAME ; void CAlfAppUi::AppendDisplayOnSharedWindowL(class CHuiDisplay &)
	?BaseConstructL@CAlfAppSrvSessionBase@@IAEXXZ @ 57 NONAME ; void CAlfAppSrvSessionBase::BaseConstructL(void)
	?ClientDrawingArea@CAlfAppSrvSessionBase@@UBE?AVTRect@@XZ @ 58 NONAME ; class TRect CAlfAppSrvSessionBase::ClientDrawingArea(void) const
	?CompleteCmd@CAlfAppSrvSessionBase@@UAEXHH@Z @ 59 NONAME ; void CAlfAppSrvSessionBase::CompleteCmd(int, int)
	?ConstructL@CAlfAnchorLayoutHandler@@UAEXPAVCHuiVisual@@AAVCHuiControl@@PAVCHuiLayout@@@Z @ 60 NONAME ; void CAlfAnchorLayoutHandler::ConstructL(class CHuiVisual *, class CHuiControl &, class CHuiLayout *)
	?ConstructL@CAlfAppUi@@UAEXXZ @ 61 NONAME ; void CAlfAppUi::ConstructL(void)
	?ConstructL@CAlfBorderBrushHandler@@QAEXPAVCHuiBrush@@HHHH@Z @ 62 NONAME ; void CAlfBorderBrushHandler::ConstructL(class CHuiBrush *, int, int, int, int)
	?ConstructL@CAlfBrushHandler@@IAEXPAVCHuiBrush@@@Z @ 63 NONAME ; void CAlfBrushHandler::ConstructL(class CHuiBrush *)
	?ConstructL@CAlfCurvePathLayoutHandler@@UAEXPAVCHuiVisual@@AAVCHuiControl@@PAVCHuiLayout@@@Z @ 64 NONAME ; void CAlfCurvePathLayoutHandler::ConstructL(class CHuiVisual *, class CHuiControl &, class CHuiLayout *)
	?ConstructL@CAlfDeckLayoutHandler@@UAEXPAVCHuiVisual@@AAVCHuiControl@@PAVCHuiLayout@@@Z @ 65 NONAME ; void CAlfDeckLayoutHandler::ConstructL(class CHuiVisual *, class CHuiControl &, class CHuiLayout *)
	?ConstructL@CAlfDropShadowBrushHandler@@QAEXPAVCHuiBrush@@H@Z @ 66 NONAME ; void CAlfDropShadowBrushHandler::ConstructL(class CHuiBrush *, int)
	?ConstructL@CAlfFlowLayoutHandler@@UAEXPAVCHuiVisual@@AAVCHuiControl@@PAVCHuiLayout@@@Z @ 67 NONAME ; void CAlfFlowLayoutHandler::ConstructL(class CHuiVisual *, class CHuiControl &, class CHuiLayout *)
	?ConstructL@CAlfFrameBrushHandler@@QAEXPAVCHuiBrush@@ABVTAknsItemID@@HH@Z @ 68 NONAME ; void CAlfFrameBrushHandler::ConstructL(class CHuiBrush *, class TAknsItemID const &, int, int)
	?ConstructL@CAlfGradientBrushHandler@@QAEXPAVCHuiBrush@@@Z @ 69 NONAME ; void CAlfGradientBrushHandler::ConstructL(class CHuiBrush *)
	?ConstructL@CAlfGridLayoutHandler@@UAEXPAVCHuiVisual@@AAVCHuiControl@@PAVCHuiLayout@@@Z @ 70 NONAME ; void CAlfGridLayoutHandler::ConstructL(class CHuiVisual *, class CHuiControl &, class CHuiLayout *)
	?ConstructL@CAlfImageBrushHandler@@QAEXPAVCHuiBrush@@VTHuiImage@@@Z @ 71 NONAME ; void CAlfImageBrushHandler::ConstructL(class CHuiBrush *, class THuiImage)
	?ConstructL@CAlfImageVisualHandler@@UAEXPAVCHuiVisual@@AAVCHuiControl@@PAVCHuiLayout@@@Z @ 72 NONAME ; void CAlfImageVisualHandler::ConstructL(class CHuiVisual *, class CHuiControl &, class CHuiLayout *)
	?ConstructL@CAlfLCTAnchorLayoutHandler@@UAEXPAVCHuiVisual@@AAVCHuiControl@@PAVCHuiLayout@@@Z @ 73 NONAME ; void CAlfLCTAnchorLayoutHandler::ConstructL(class CHuiVisual *, class CHuiControl &, class CHuiLayout *)
	?ConstructL@CAlfLCTGridLayoutHandler@@UAEXPAVCHuiVisual@@AAVCHuiControl@@PAVCHuiLayout@@@Z @ 74 NONAME ; void CAlfLCTGridLayoutHandler::ConstructL(class CHuiVisual *, class CHuiControl &, class CHuiLayout *)
	?ConstructL@CAlfLCTTextVisualHandler@@UAEXPAVCHuiVisual@@AAVCHuiControl@@PAVCHuiLayout@@@Z @ 75 NONAME ; void CAlfLCTTextVisualHandler::ConstructL(class CHuiVisual *, class CHuiControl &, class CHuiLayout *)
	?ConstructL@CAlfLayoutHandler@@UAEXPAVCHuiVisual@@AAVCHuiControl@@PAVCHuiLayout@@@Z @ 76 NONAME ; void CAlfLayoutHandler::ConstructL(class CHuiVisual *, class CHuiControl &, class CHuiLayout *)
	?ConstructL@CAlfLineVisualHandler@@UAEXPAVCHuiVisual@@AAVCHuiControl@@PAVCHuiLayout@@@Z @ 77 NONAME ; void CAlfLineVisualHandler::ConstructL(class CHuiVisual *, class CHuiControl &, class CHuiLayout *)
	?ConstructL@CAlfMeshVisualHandler@@QAEXPAVCHuiVisual@@AAVCHuiControl@@W4THuiMeshType@@PAVCHuiLayout@@@Z @ 78 NONAME ; void CAlfMeshVisualHandler::ConstructL(class CHuiVisual *, class CHuiControl &, enum THuiMeshType, class CHuiLayout *)
	?ConstructL@CAlfShadowBorderBrushHandler@@QAEXPAVCHuiBrush@@H@Z @ 79 NONAME ; void CAlfShadowBorderBrushHandler::ConstructL(class CHuiBrush *, int)
	?ConstructL@CAlfTextVisualHandler@@UAEXPAVCHuiVisual@@AAVCHuiControl@@PAVCHuiLayout@@@Z @ 80 NONAME ; void CAlfTextVisualHandler::ConstructL(class CHuiVisual *, class CHuiControl &, class CHuiLayout *)
	?ConstructL@CAlfViewportLayoutHandler@@UAEXPAVCHuiVisual@@AAVCHuiControl@@PAVCHuiLayout@@@Z @ 81 NONAME ; void CAlfViewportLayoutHandler::ConstructL(class CHuiVisual *, class CHuiControl &, class CHuiLayout *)
	?ConstructL@CAlfVisualHandler@@UAEXPAVCHuiVisual@@AAVCHuiControl@@PAVCHuiLayout@@@Z @ 82 NONAME ; void CAlfVisualHandler::ConstructL(class CHuiVisual *, class CHuiControl &, class CHuiLayout *)
	?Container@CAlfAppUi@@QAEPAVCCoeControl@@XZ @ 83 NONAME ; class CCoeControl * CAlfAppUi::Container(void)
	?ControlGroupCountL@CAlfSrvEffectEnv@@QAEHXZ @ 84 NONAME ; int CAlfSrvEffectEnv::ControlGroupCountL(void)
	?ControlGroupL@CAlfSrvEffectEnv@@QAEPAVCHuiControlGroup@@H@Z @ 85 NONAME ; class CHuiControlGroup * CAlfSrvEffectEnv::ControlGroupL(int)
	?CopyTimedPoint@AlfTimedPointUtility@@SAXAAVTAlfTimedPoint@@AAVTHuiTimedPoint@@@Z @ 86 NONAME ; void AlfTimedPointUtility::CopyTimedPoint(class TAlfTimedPoint &, class THuiTimedPoint &)
	?CopyTimedPoint@AlfTimedPointUtility@@SAXAAVTAlfTimedPoint@@AAVTHuiTimedPoint@@AAVMAlfInterfaceProvider@@@Z @ 87 NONAME ; void AlfTimedPointUtility::CopyTimedPoint(class TAlfTimedPoint &, class THuiTimedPoint &, class MAlfInterfaceProvider &)
	?CopyTimedPoint@AlfTimedPointUtility@@SAXAAVTHuiTimedPoint@@AAVTAlfTimedPoint@@@Z @ 88 NONAME ; void AlfTimedPointUtility::CopyTimedPoint(class THuiTimedPoint &, class TAlfTimedPoint &)
	?CopyTimedValue@AlfTimedValueUtility@@SAXAAVTAlfTimedValue@@AAVTHuiTimedValue@@@Z @ 89 NONAME ; void AlfTimedValueUtility::CopyTimedValue(class TAlfTimedValue &, class THuiTimedValue &)
	?CopyTimedValue@AlfTimedValueUtility@@SAXAAVTAlfTimedValue@@AAVTHuiTimedValue@@AAVMAlfInterfaceProvider@@@Z @ 90 NONAME ; void AlfTimedValueUtility::CopyTimedValue(class TAlfTimedValue &, class THuiTimedValue &, class MAlfInterfaceProvider &)
	?CopyTimedValue@AlfTimedValueUtility@@SAXAAVTHuiTimedValue@@AAVTAlfTimedValue@@@Z @ 91 NONAME ; void AlfTimedValueUtility::CopyTimedValue(class THuiTimedValue &, class TAlfTimedValue &)
	?DisplayCountL@CAlfSrvEffectEnv@@QAEHXZ @ 92 NONAME ; int CAlfSrvEffectEnv::DisplayCountL(void)
	?DisplayL@CAlfSrvEffectEnv@@QAEPAVCHuiDisplay@@H@Z @ 93 NONAME ; class CHuiDisplay * CAlfSrvEffectEnv::DisplayL(int)
	?ExtensionInterfaceL@CAlfAppSrvSessionBase@@UAEXVTUid@@AAPAX@Z @ 94 NONAME ; void CAlfAppSrvSessionBase::ExtensionInterfaceL(class TUid, void * &)
	?FactoryDestroyed@CAlfAppSrvSessionBase@@UAEXH@Z @ 95 NONAME ; void CAlfAppSrvSessionBase::FactoryDestroyed(int)
	?FocusGainedL@CAlfAppSrvSessionBase@@UAEXH@Z @ 96 NONAME ; void CAlfAppSrvSessionBase::FocusGainedL(int)
	?FocusLostL@CAlfAppSrvSessionBase@@UAEHH@Z @ 97 NONAME ; int CAlfAppSrvSessionBase::FocusLostL(int)
	?FrameworkCallsRendezvous@CAlfAppUi@@UBEHXZ @ 98 NONAME ; int CAlfAppUi::FrameworkCallsRendezvous(void) const
	?GetHandleFromInterface@CAlfAppSrvSessionBase@@UAEHABW4THuiInterfaceSupport@@PAX@Z @ 99 NONAME ; int CAlfAppSrvSessionBase::GetHandleFromInterface(enum THuiInterfaceSupport const &, void *)
	?GetInterface@CAlfAnchorLayoutHandler@@UAEPAXABW4THuiInterfaceSupport@@@Z @ 100 NONAME ; void * CAlfAnchorLayoutHandler::GetInterface(enum THuiInterfaceSupport const &)
	?GetInterface@CAlfBorderBrushHandler@@MAEPAXABW4THuiInterfaceSupport@@@Z @ 101 NONAME ; void * CAlfBorderBrushHandler::GetInterface(enum THuiInterfaceSupport const &)
	?GetInterface@CAlfBrushHandler@@MAEPAXABW4THuiInterfaceSupport@@@Z @ 102 NONAME ; void * CAlfBrushHandler::GetInterface(enum THuiInterfaceSupport const &)
	?GetInterface@CAlfCurvePathLayoutHandler@@UAEPAXABW4THuiInterfaceSupport@@@Z @ 103 NONAME ; void * CAlfCurvePathLayoutHandler::GetInterface(enum THuiInterfaceSupport const &)
	?GetInterface@CAlfDropShadowBrushHandler@@MAEPAXABW4THuiInterfaceSupport@@@Z @ 104 NONAME ; void * CAlfDropShadowBrushHandler::GetInterface(enum THuiInterfaceSupport const &)
	?GetInterface@CAlfFlowLayoutHandler@@UAEPAXABW4THuiInterfaceSupport@@@Z @ 105 NONAME ; void * CAlfFlowLayoutHandler::GetInterface(enum THuiInterfaceSupport const &)
	?GetInterface@CAlfFrameBrushHandler@@MAEPAXABW4THuiInterfaceSupport@@@Z @ 106 NONAME ; void * CAlfFrameBrushHandler::GetInterface(enum THuiInterfaceSupport const &)
	?GetInterface@CAlfGradientBrushHandler@@MAEPAXABW4THuiInterfaceSupport@@@Z @ 107 NONAME ; void * CAlfGradientBrushHandler::GetInterface(enum THuiInterfaceSupport const &)
	?GetInterface@CAlfGridLayoutHandler@@UAEPAXABW4THuiInterfaceSupport@@@Z @ 108 NONAME ; void * CAlfGridLayoutHandler::GetInterface(enum THuiInterfaceSupport const &)
	?GetInterface@CAlfImageBrushHandler@@MAEPAXABW4THuiInterfaceSupport@@@Z @ 109 NONAME ; void * CAlfImageBrushHandler::GetInterface(enum THuiInterfaceSupport const &)
	?GetInterface@CAlfImageVisualHandler@@UAEPAXABW4THuiInterfaceSupport@@@Z @ 110 NONAME ; void * CAlfImageVisualHandler::GetInterface(enum THuiInterfaceSupport const &)
	?GetInterface@CAlfLCTAnchorLayoutHandler@@UAEPAXABW4THuiInterfaceSupport@@@Z @ 111 NONAME ; void * CAlfLCTAnchorLayoutHandler::GetInterface(enum THuiInterfaceSupport const &)
	?GetInterface@CAlfLCTGridLayoutHandler@@UAEPAXABW4THuiInterfaceSupport@@@Z @ 112 NONAME ; void * CAlfLCTGridLayoutHandler::GetInterface(enum THuiInterfaceSupport const &)
	?GetInterface@CAlfLCTTextVisualHandler@@UAEPAXABW4THuiInterfaceSupport@@@Z @ 113 NONAME ; void * CAlfLCTTextVisualHandler::GetInterface(enum THuiInterfaceSupport const &)
	?GetInterface@CAlfLayoutHandler@@UAEPAXABW4THuiInterfaceSupport@@@Z @ 114 NONAME ; void * CAlfLayoutHandler::GetInterface(enum THuiInterfaceSupport const &)
	?GetInterface@CAlfLineVisualHandler@@UAEPAXABW4THuiInterfaceSupport@@@Z @ 115 NONAME ; void * CAlfLineVisualHandler::GetInterface(enum THuiInterfaceSupport const &)
	?GetInterface@CAlfMeshVisualHandler@@UAEPAXABW4THuiInterfaceSupport@@@Z @ 116 NONAME ; void * CAlfMeshVisualHandler::GetInterface(enum THuiInterfaceSupport const &)
	?GetInterface@CAlfShadowBorderBrushHandler@@MAEPAXABW4THuiInterfaceSupport@@@Z @ 117 NONAME ; void * CAlfShadowBorderBrushHandler::GetInterface(enum THuiInterfaceSupport const &)
	?GetInterface@CAlfTextVisualHandler@@UAEPAXABW4THuiInterfaceSupport@@@Z @ 118 NONAME ; void * CAlfTextVisualHandler::GetInterface(enum THuiInterfaceSupport const &)
	?GetInterface@CAlfViewportLayoutHandler@@UAEPAXABW4THuiInterfaceSupport@@@Z @ 119 NONAME ; void * CAlfViewportLayoutHandler::GetInterface(enum THuiInterfaceSupport const &)
	?GetInterface@CAlfVisualHandler@@UAEPAXABW4THuiInterfaceSupport@@@Z @ 120 NONAME ; void * CAlfVisualHandler::GetInterface(enum THuiInterfaceSupport const &)
	?GetInterfaceL@CAlfAppSrvSessionBase@@UAEPAXABW4THuiInterfaceSupport@@H@Z @ 121 NONAME ; void * CAlfAppSrvSessionBase::GetInterfaceL(enum THuiInterfaceSupport const &, int)
	?HandleClientExit@CAlfAppServer@@QAEXH@Z @ 122 NONAME ; void CAlfAppServer::HandleClientExit(int)
	?HandleCmdL@CAlfAnchorLayoutHandler@@UAEXHABVTDesC8@@AAVTDes8@@@Z @ 123 NONAME ; void CAlfAnchorLayoutHandler::HandleCmdL(int, class TDesC8 const &, class TDes8 &)
	?HandleCmdL@CAlfBorderBrushHandler@@MAEXHABVTDesC8@@AAVTDes8@@@Z @ 124 NONAME ; void CAlfBorderBrushHandler::HandleCmdL(int, class TDesC8 const &, class TDes8 &)
	?HandleCmdL@CAlfBrushHandler@@MAEXHABVTDesC8@@AAVTDes8@@@Z @ 125 NONAME ; void CAlfBrushHandler::HandleCmdL(int, class TDesC8 const &, class TDes8 &)
	?HandleCmdL@CAlfCurvePathLayoutHandler@@UAEXHABVTDesC8@@AAVTDes8@@@Z @ 126 NONAME ; void CAlfCurvePathLayoutHandler::HandleCmdL(int, class TDesC8 const &, class TDes8 &)
	?HandleCmdL@CAlfDropShadowBrushHandler@@MAEXHABVTDesC8@@AAVTDes8@@@Z @ 127 NONAME ; void CAlfDropShadowBrushHandler::HandleCmdL(int, class TDesC8 const &, class TDes8 &)
	?HandleCmdL@CAlfFlowLayoutHandler@@UAEXHABVTDesC8@@AAVTDes8@@@Z @ 128 NONAME ; void CAlfFlowLayoutHandler::HandleCmdL(int, class TDesC8 const &, class TDes8 &)
	?HandleCmdL@CAlfFrameBrushHandler@@MAEXHABVTDesC8@@AAVTDes8@@@Z @ 129 NONAME ; void CAlfFrameBrushHandler::HandleCmdL(int, class TDesC8 const &, class TDes8 &)
	?HandleCmdL@CAlfGradientBrushHandler@@MAEXHABVTDesC8@@AAVTDes8@@@Z @ 130 NONAME ; void CAlfGradientBrushHandler::HandleCmdL(int, class TDesC8 const &, class TDes8 &)
	?HandleCmdL@CAlfGridLayoutHandler@@UAEXHABVTDesC8@@AAVTDes8@@@Z @ 131 NONAME ; void CAlfGridLayoutHandler::HandleCmdL(int, class TDesC8 const &, class TDes8 &)
	?HandleCmdL@CAlfImageBrushHandler@@MAEXHABVTDesC8@@AAVTDes8@@@Z @ 132 NONAME ; void CAlfImageBrushHandler::HandleCmdL(int, class TDesC8 const &, class TDes8 &)
	?HandleCmdL@CAlfImageVisualHandler@@UAEXHABVTDesC8@@AAVTDes8@@@Z @ 133 NONAME ; void CAlfImageVisualHandler::HandleCmdL(int, class TDesC8 const &, class TDes8 &)
	?HandleCmdL@CAlfLCTAnchorLayoutHandler@@UAEXHABVTDesC8@@AAVTDes8@@@Z @ 134 NONAME ; void CAlfLCTAnchorLayoutHandler::HandleCmdL(int, class TDesC8 const &, class TDes8 &)
	?HandleCmdL@CAlfLCTGridLayoutHandler@@UAEXHABVTDesC8@@AAVTDes8@@@Z @ 135 NONAME ; void CAlfLCTGridLayoutHandler::HandleCmdL(int, class TDesC8 const &, class TDes8 &)
	?HandleCmdL@CAlfLCTTextVisualHandler@@UAEXHABVTDesC8@@AAVTDes8@@@Z @ 136 NONAME ; void CAlfLCTTextVisualHandler::HandleCmdL(int, class TDesC8 const &, class TDes8 &)
	?HandleCmdL@CAlfLayoutHandler@@UAEXHABVTDesC8@@AAVTDes8@@@Z @ 137 NONAME ; void CAlfLayoutHandler::HandleCmdL(int, class TDesC8 const &, class TDes8 &)
	?HandleCmdL@CAlfLineVisualHandler@@UAEXHABVTDesC8@@AAVTDes8@@@Z @ 138 NONAME ; void CAlfLineVisualHandler::HandleCmdL(int, class TDesC8 const &, class TDes8 &)
	?HandleCmdL@CAlfMeshVisualHandler@@UAEXHABVTDesC8@@AAVTDes8@@@Z @ 139 NONAME ; void CAlfMeshVisualHandler::HandleCmdL(int, class TDesC8 const &, class TDes8 &)
	?HandleCmdL@CAlfShadowBorderBrushHandler@@MAEXHABVTDesC8@@AAVTDes8@@@Z @ 140 NONAME ; void CAlfShadowBorderBrushHandler::HandleCmdL(int, class TDesC8 const &, class TDes8 &)
	?HandleCmdL@CAlfTextVisualHandler@@UAEXHABVTDesC8@@AAVTDes8@@@Z @ 141 NONAME ; void CAlfTextVisualHandler::HandleCmdL(int, class TDesC8 const &, class TDes8 &)
	?HandleCmdL@CAlfViewportLayoutHandler@@UAEXHABVTDesC8@@AAVTDes8@@@Z @ 142 NONAME ; void CAlfViewportLayoutHandler::HandleCmdL(int, class TDesC8 const &, class TDes8 &)
	?HandleCmdL@CAlfVisualHandler@@UAEXHABVTDesC8@@AAVTDes8@@@Z @ 143 NONAME ; void CAlfVisualHandler::HandleCmdL(int, class TDesC8 const &, class TDes8 &)
	?HandleCommandL@CAlfAppUi@@UAEXH@Z @ 144 NONAME ; void CAlfAppUi::HandleCommandL(int)
	?HandleCurrentCommanndAsynch@CAlfAppSrvSessionBase@@UAEHXZ @ 145 NONAME ; int CAlfAppSrvSessionBase::HandleCurrentCommanndAsynch(void)
	?HandleResourceChangeL@CAlfAppUi@@UAEXH@Z @ 146 NONAME ; void CAlfAppUi::HandleResourceChangeL(int)
	?HandleSystemEventL@CAlfAppUi@@UAEXABVTWsEvent@@@Z @ 147 NONAME ; void CAlfAppUi::HandleSystemEventL(class TWsEvent const &)
	?HandleWsEventL@CAlfAppUi@@UAEXABVTWsEvent@@PAVCCoeControl@@@Z @ 148 NONAME ; void CAlfAppUi::HandleWsEventL(class TWsEvent const &, class CCoeControl *)
	?LayoutManager@CAlfAppSrvSessionBase@@UBEPAVCAlfLayoutManager@@XZ @ 149 NONAME ; class CAlfLayoutManager * CAlfAppSrvSessionBase::LayoutManager(void) const
	?MapValue@TAlfTableMappingFunction@@UBEMMH@Z @ 150 NONAME ABSENT
	?MetricsInterface@CAlfAppServer@@QAEPAVMAlfMetricsInterface@@XZ @ 151 NONAME ; class MAlfMetricsInterface * CAlfAppServer::MetricsInterface(void)
	?MetricsInterface@CAlfAppServer@@QBEPBVMAlfMetricsInterface@@XZ @ 152 NONAME ; class MAlfMetricsInterface const * CAlfAppServer::MetricsInterface(void) const
	?NewL@CAlfAnchorLayoutHandler@@SAPAVMAlfExtension@@AAVMAlfInterfaceProvider@@PAVCHuiControl@@PAVCHuiLayout@@@Z @ 153 NONAME ; class MAlfExtension * CAlfAnchorLayoutHandler::NewL(class MAlfInterfaceProvider &, class CHuiControl *, class CHuiLayout *)
	?NewL@CAlfBorderBrushHandler@@SAPAVMAlfExtension@@AAVMAlfInterfaceProvider@@HHHH@Z @ 154 NONAME ; class MAlfExtension * CAlfBorderBrushHandler::NewL(class MAlfInterfaceProvider &, int, int, int, int)
	?NewL@CAlfCurvePathLayoutHandler@@SAPAVMAlfExtension@@AAVMAlfInterfaceProvider@@PAVCHuiControl@@PAVCHuiLayout@@@Z @ 155 NONAME ; class MAlfExtension * CAlfCurvePathLayoutHandler::NewL(class MAlfInterfaceProvider &, class CHuiControl *, class CHuiLayout *)
	?NewL@CAlfDeckLayoutHandler@@SAPAVMAlfExtension@@AAVMAlfInterfaceProvider@@PAVCHuiControl@@PAVCHuiLayout@@@Z @ 156 NONAME ; class MAlfExtension * CAlfDeckLayoutHandler::NewL(class MAlfInterfaceProvider &, class CHuiControl *, class CHuiLayout *)
	?NewL@CAlfDropShadowBrushHandler@@SAPAVMAlfExtension@@AAVMAlfInterfaceProvider@@H@Z @ 157 NONAME ; class MAlfExtension * CAlfDropShadowBrushHandler::NewL(class MAlfInterfaceProvider &, int)
	?NewL@CAlfFlowLayoutHandler@@SAPAVMAlfExtension@@AAVMAlfInterfaceProvider@@PAVCHuiControl@@PAVCHuiLayout@@@Z @ 158 NONAME ; class MAlfExtension * CAlfFlowLayoutHandler::NewL(class MAlfInterfaceProvider &, class CHuiControl *, class CHuiLayout *)
	?NewL@CAlfFrameBrushHandler@@SAPAVMAlfExtension@@AAVMAlfInterfaceProvider@@ABVTAknsItemID@@HH@Z @ 159 NONAME ; class MAlfExtension * CAlfFrameBrushHandler::NewL(class MAlfInterfaceProvider &, class TAknsItemID const &, int, int)
	?NewL@CAlfGradientBrushHandler@@SAPAVMAlfExtension@@AAVMAlfInterfaceProvider@@@Z @ 160 NONAME ; class MAlfExtension * CAlfGradientBrushHandler::NewL(class MAlfInterfaceProvider &)
	?NewL@CAlfGridLayoutHandler@@SAPAVMAlfExtension@@AAVMAlfInterfaceProvider@@PAVCHuiControl@@PAVCHuiLayout@@@Z @ 161 NONAME ; class MAlfExtension * CAlfGridLayoutHandler::NewL(class MAlfInterfaceProvider &, class CHuiControl *, class CHuiLayout *)
	?NewL@CAlfImageBrushHandler@@SAPAVMAlfExtension@@AAVMAlfInterfaceProvider@@VTHuiImage@@@Z @ 162 NONAME ; class MAlfExtension * CAlfImageBrushHandler::NewL(class MAlfInterfaceProvider &, class THuiImage)
	?NewL@CAlfImageVisualHandler@@SAPAVMAlfExtension@@AAVMAlfInterfaceProvider@@PAVCHuiControl@@PAVCHuiLayout@@@Z @ 163 NONAME ; class MAlfExtension * CAlfImageVisualHandler::NewL(class MAlfInterfaceProvider &, class CHuiControl *, class CHuiLayout *)
	?NewL@CAlfLCTAnchorLayoutHandler@@SAPAVMAlfExtension@@AAVMAlfInterfaceProvider@@PAVCHuiControl@@PAVCHuiLayout@@@Z @ 164 NONAME ; class MAlfExtension * CAlfLCTAnchorLayoutHandler::NewL(class MAlfInterfaceProvider &, class CHuiControl *, class CHuiLayout *)
	?NewL@CAlfLCTGridLayoutHandler@@SAPAVMAlfExtension@@AAVMAlfInterfaceProvider@@PAVCHuiControl@@PAVCHuiLayout@@@Z @ 165 NONAME ; class MAlfExtension * CAlfLCTGridLayoutHandler::NewL(class MAlfInterfaceProvider &, class CHuiControl *, class CHuiLayout *)
	?NewL@CAlfLCTTextVisualHandler@@SAPAVMAlfExtension@@AAVMAlfInterfaceProvider@@PAVCHuiControl@@PAVCHuiLayout@@@Z @ 166 NONAME ; class MAlfExtension * CAlfLCTTextVisualHandler::NewL(class MAlfInterfaceProvider &, class CHuiControl *, class CHuiLayout *)
	?NewL@CAlfLayoutHandler@@SAPAVMAlfExtension@@AAVMAlfInterfaceProvider@@PAVCHuiControl@@PAVCHuiLayout@@@Z @ 167 NONAME ; class MAlfExtension * CAlfLayoutHandler::NewL(class MAlfInterfaceProvider &, class CHuiControl *, class CHuiLayout *)
	?NewL@CAlfLineVisualHandler@@SAPAVMAlfExtension@@AAVMAlfInterfaceProvider@@PAVCHuiControl@@PAVCHuiLayout@@@Z @ 168 NONAME ; class MAlfExtension * CAlfLineVisualHandler::NewL(class MAlfInterfaceProvider &, class CHuiControl *, class CHuiLayout *)
	?NewL@CAlfMeshVisualHandler@@SAPAVMAlfExtension@@AAVMAlfInterfaceProvider@@PAVCHuiControl@@W4THuiMeshType@@PAVCHuiLayout@@@Z @ 169 NONAME ; class MAlfExtension * CAlfMeshVisualHandler::NewL(class MAlfInterfaceProvider &, class CHuiControl *, enum THuiMeshType, class CHuiLayout *)
	?NewL@CAlfShadowBorderBrushHandler@@SAPAVMAlfExtension@@AAVMAlfInterfaceProvider@@H@Z @ 170 NONAME ; class MAlfExtension * CAlfShadowBorderBrushHandler::NewL(class MAlfInterfaceProvider &, int)
	?NewL@CAlfTextVisualHandler@@SAPAVMAlfExtension@@AAVMAlfInterfaceProvider@@PAVCHuiControl@@PAVCHuiLayout@@@Z @ 171 NONAME ; class MAlfExtension * CAlfTextVisualHandler::NewL(class MAlfInterfaceProvider &, class CHuiControl *, class CHuiLayout *)
	?NewL@CAlfViewportLayoutHandler@@SAPAVMAlfExtension@@AAVMAlfInterfaceProvider@@PAVCHuiControl@@PAVCHuiLayout@@@Z @ 172 NONAME ; class MAlfExtension * CAlfViewportLayoutHandler::NewL(class MAlfInterfaceProvider &, class CHuiControl *, class CHuiLayout *)
	?NewL@CAlfVisualHandler@@SAPAVMAlfExtension@@AAVMAlfInterfaceProvider@@PAVCHuiControl@@PAVCHuiLayout@@@Z @ 173 NONAME ; class MAlfExtension * CAlfVisualHandler::NewL(class MAlfInterfaceProvider &, class CHuiControl *, class CHuiLayout *)
	?OpenFileForTokenL@AlfFileTokenUtility@@SAXAAVRFile@@ABVTDesC8@@@Z @ 174 NONAME ; void AlfFileTokenUtility::OpenFileForTokenL(class RFile &, class TDesC8 const &)
	?PreferredRefreshMode@CAlfAppSrvSessionBase@@UBE?AW4THuiRefreshMode@@XZ @ 175 NONAME ; enum THuiRefreshMode CAlfAppSrvSessionBase::PreferredRefreshMode(void) const
	?PreferredWindowGroupPosition@CAlfAppSrvSessionBase@@UBE?AW4TAlfWGPostion@CAlfAppServer@@XZ @ 176 NONAME ; enum CAlfAppServer::TAlfWGPostion CAlfAppSrvSessionBase::PreferredWindowGroupPosition(void) const
	?Release@CAlfAnchorLayoutHandler@@UAEXXZ @ 177 NONAME ; void CAlfAnchorLayoutHandler::Release(void)
	?Release@CAlfBorderBrushHandler@@MAEXXZ @ 178 NONAME ; void CAlfBorderBrushHandler::Release(void)
	?Release@CAlfBrushHandler@@MAEXXZ @ 179 NONAME ; void CAlfBrushHandler::Release(void)
	?Release@CAlfCurvePathLayoutHandler@@UAEXXZ @ 180 NONAME ; void CAlfCurvePathLayoutHandler::Release(void)
	?Release@CAlfDropShadowBrushHandler@@MAEXXZ @ 181 NONAME ; void CAlfDropShadowBrushHandler::Release(void)
	?Release@CAlfFlowLayoutHandler@@UAEXXZ @ 182 NONAME ; void CAlfFlowLayoutHandler::Release(void)
	?Release@CAlfFrameBrushHandler@@MAEXXZ @ 183 NONAME ; void CAlfFrameBrushHandler::Release(void)
	?Release@CAlfGradientBrushHandler@@MAEXXZ @ 184 NONAME ; void CAlfGradientBrushHandler::Release(void)
	?Release@CAlfGridLayoutHandler@@UAEXXZ @ 185 NONAME ; void CAlfGridLayoutHandler::Release(void)
	?Release@CAlfImageBrushHandler@@MAEXXZ @ 186 NONAME ; void CAlfImageBrushHandler::Release(void)
	?Release@CAlfImageVisualHandler@@UAEXXZ @ 187 NONAME ; void CAlfImageVisualHandler::Release(void)
	?Release@CAlfLCTAnchorLayoutHandler@@UAEXXZ @ 188 NONAME ; void CAlfLCTAnchorLayoutHandler::Release(void)
	?Release@CAlfLCTGridLayoutHandler@@UAEXXZ @ 189 NONAME ; void CAlfLCTGridLayoutHandler::Release(void)
	?Release@CAlfLCTTextVisualHandler@@UAEXXZ @ 190 NONAME ; void CAlfLCTTextVisualHandler::Release(void)
	?Release@CAlfLayoutHandler@@UAEXXZ @ 191 NONAME ; void CAlfLayoutHandler::Release(void)
	?Release@CAlfLineVisualHandler@@UAEXXZ @ 192 NONAME ; void CAlfLineVisualHandler::Release(void)
	?Release@CAlfMeshVisualHandler@@UAEXXZ @ 193 NONAME ; void CAlfMeshVisualHandler::Release(void)
	?Release@CAlfShadowBorderBrushHandler@@MAEXXZ @ 194 NONAME ; void CAlfShadowBorderBrushHandler::Release(void)
	?Release@CAlfTextVisualHandler@@UAEXXZ @ 195 NONAME ; void CAlfTextVisualHandler::Release(void)
	?Release@CAlfViewportLayoutHandler@@UAEXXZ @ 196 NONAME ; void CAlfViewportLayoutHandler::Release(void)
	?Release@CAlfVisualHandler@@UAEXXZ @ 197 NONAME ; void CAlfVisualHandler::Release(void)
	?ServiceL@CAlfAppSrvSessionBase@@EAEXABVRMessage2@@@Z @ 198 NONAME ; void CAlfAppSrvSessionBase::ServiceL(class RMessage2 const &)
	?SetMetricsInterface@CAlfAppServer@@QAEXPAVMAlfMetricsInterface@@@Z @ 199 NONAME ; void CAlfAppServer::SetMetricsInterface(class MAlfMetricsInterface *)
	?SetOwnership@CAlfBrushHandler@@QAEXH@Z @ 200 NONAME ; void CAlfBrushHandler::SetOwnership(int)
	?SetWindowChangeObserverL@CAlfAppServer@@QAEXPAVMWindowVisibilityObserver@@H@Z @ 201 NONAME ; void CAlfAppServer::SetWindowChangeObserverL(class MWindowVisibilityObserver *, int)
	?SharedEnv@CAlfSrvEffectEnv@@QAEPAVCHuiEnv@@XZ @ 202 NONAME ; class CHuiEnv * CAlfSrvEffectEnv::SharedEnv(void)
	?SharedHuiEnv@CAlfAppSrvSessionBase@@UBEPAVCHuiEnv@@XZ @ 203 NONAME ; class CHuiEnv * CAlfAppSrvSessionBase::SharedHuiEnv(void) const
	?VisibleControlGroupCountL@CAlfSrvEffectEnv@@QAEHXZ @ 204 NONAME ; int CAlfSrvEffectEnv::VisibleControlGroupCountL(void)
	?WsSession@CAlfAppServer@@QBEAAVRWsSession@@XZ @ 205 NONAME ; class RWsSession & CAlfAppServer::WsSession(void) const
	?SetClientWindowGroupId@CAlfAppSrvSessionBase@@QAEXH@Z @ 206 NONAME ; void CAlfAppSrvSessionBase::SetClientWindowGroupId(int)
	?BrushHandlerExtension@CAlfBorderBrushHandler@@MAEXABVTUid@@PAPAX@Z @ 207 NONAME ; void CAlfBorderBrushHandler::BrushHandlerExtension(class TUid const &, void * *)
	?BrushHandlerExtension@CAlfBrushHandler@@MAEXABVTUid@@PAPAX@Z @ 208 NONAME ; void CAlfBrushHandler::BrushHandlerExtension(class TUid const &, void * *)
	?BrushHandlerExtension@CAlfDropShadowBrushHandler@@MAEXABVTUid@@PAPAX@Z @ 209 NONAME ; void CAlfDropShadowBrushHandler::BrushHandlerExtension(class TUid const &, void * *)
	?BrushHandlerExtension@CAlfFrameBrushHandler@@MAEXABVTUid@@PAPAX@Z @ 210 NONAME ; void CAlfFrameBrushHandler::BrushHandlerExtension(class TUid const &, void * *)
	?BrushHandlerExtension@CAlfGradientBrushHandler@@MAEXABVTUid@@PAPAX@Z @ 211 NONAME ; void CAlfGradientBrushHandler::BrushHandlerExtension(class TUid const &, void * *)
	?BrushHandlerExtension@CAlfImageBrushHandler@@MAEXABVTUid@@PAPAX@Z @ 212 NONAME ; void CAlfImageBrushHandler::BrushHandlerExtension(class TUid const &, void * *)
	?BrushHandlerExtension@CAlfShadowBorderBrushHandler@@MAEXABVTUid@@PAPAX@Z @ 213 NONAME ; void CAlfShadowBorderBrushHandler::BrushHandlerExtension(class TUid const &, void * *)
	?GetInterface@CAlfDeckLayoutHandler@@UAEPAXABW4THuiInterfaceSupport@@@Z @ 214 NONAME ; void * CAlfDeckLayoutHandler::GetInterface(enum THuiInterfaceSupport const &)
	?HandleCmdL@CAlfDeckLayoutHandler@@UAEXHABVTDesC8@@AAVTDes8@@@Z @ 215 NONAME ; void CAlfDeckLayoutHandler::HandleCmdL(int, class TDesC8 const &, class TDes8 &)
	?Release@CAlfDeckLayoutHandler@@UAEXXZ @ 216 NONAME ; void CAlfDeckLayoutHandler::Release(void)
	?VisualHandlerExtension@CAlfAnchorLayoutHandler@@MAEXABVTUid@@PAPAX@Z @ 217 NONAME ; void CAlfAnchorLayoutHandler::VisualHandlerExtension(class TUid const &, void * *)
	?VisualHandlerExtension@CAlfCurvePathLayoutHandler@@MAEXABVTUid@@PAPAX@Z @ 218 NONAME ; void CAlfCurvePathLayoutHandler::VisualHandlerExtension(class TUid const &, void * *)
	?VisualHandlerExtension@CAlfDeckLayoutHandler@@MAEXABVTUid@@PAPAX@Z @ 219 NONAME ; void CAlfDeckLayoutHandler::VisualHandlerExtension(class TUid const &, void * *)
	?VisualHandlerExtension@CAlfFlowLayoutHandler@@MAEXABVTUid@@PAPAX@Z @ 220 NONAME ; void CAlfFlowLayoutHandler::VisualHandlerExtension(class TUid const &, void * *)
	?VisualHandlerExtension@CAlfGridLayoutHandler@@MAEXABVTUid@@PAPAX@Z @ 221 NONAME ; void CAlfGridLayoutHandler::VisualHandlerExtension(class TUid const &, void * *)
	?VisualHandlerExtension@CAlfImageVisualHandler@@MAEXABVTUid@@PAPAX@Z @ 222 NONAME ; void CAlfImageVisualHandler::VisualHandlerExtension(class TUid const &, void * *)
	?VisualHandlerExtension@CAlfLCTAnchorLayoutHandler@@MAEXABVTUid@@PAPAX@Z @ 223 NONAME ; void CAlfLCTAnchorLayoutHandler::VisualHandlerExtension(class TUid const &, void * *)
	?VisualHandlerExtension@CAlfLCTGridLayoutHandler@@MAEXABVTUid@@PAPAX@Z @ 224 NONAME ; void CAlfLCTGridLayoutHandler::VisualHandlerExtension(class TUid const &, void * *)
	?VisualHandlerExtension@CAlfLCTTextVisualHandler@@MAEXABVTUid@@PAPAX@Z @ 225 NONAME ; void CAlfLCTTextVisualHandler::VisualHandlerExtension(class TUid const &, void * *)
	?VisualHandlerExtension@CAlfLayoutHandler@@MAEXABVTUid@@PAPAX@Z @ 226 NONAME ; void CAlfLayoutHandler::VisualHandlerExtension(class TUid const &, void * *)
	?VisualHandlerExtension@CAlfLineVisualHandler@@MAEXABVTUid@@PAPAX@Z @ 227 NONAME ; void CAlfLineVisualHandler::VisualHandlerExtension(class TUid const &, void * *)
	?VisualHandlerExtension@CAlfMeshVisualHandler@@MAEXABVTUid@@PAPAX@Z @ 228 NONAME ; void CAlfMeshVisualHandler::VisualHandlerExtension(class TUid const &, void * *)
	?VisualHandlerExtension@CAlfTextVisualHandler@@MAEXABVTUid@@PAPAX@Z @ 229 NONAME ; void CAlfTextVisualHandler::VisualHandlerExtension(class TUid const &, void * *)
	?VisualHandlerExtension@CAlfViewportLayoutHandler@@MAEXABVTUid@@PAPAX@Z @ 230 NONAME ; void CAlfViewportLayoutHandler::VisualHandlerExtension(class TUid const &, void * *)
	?VisualHandlerExtension@CAlfVisualHandler@@MAEXABVTUid@@PAPAX@Z @ 231 NONAME ; void CAlfVisualHandler::VisualHandlerExtension(class TUid const &, void * *)
	?AlfInterfaceProviderExtension@CAlfAppSrvSessionBase@@UAEXABVTUid@@PAPAX@Z @ 232 NONAME ; void CAlfAppSrvSessionBase::AlfInterfaceProviderExtension(class TUid const &, void * *)
	?CountResources@CAlfAppSrvSessionBase@@MAEHXZ @ 233 NONAME ; int CAlfAppSrvSessionBase::CountResources(void)
	?Disconnect@CAlfAppSrvSessionBase@@MAEXABVRMessage2@@@Z @ 234 NONAME ; void CAlfAppSrvSessionBase::Disconnect(class RMessage2 const &)
	?Extension_@CAlfAppSrvSessionBase@@MAEHIAAPAXPAX@Z @ 235 NONAME ; int CAlfAppSrvSessionBase::Extension_(unsigned int, void * &, void *)
	?ServiceError@CAlfAppSrvSessionBase@@MAEXABVRMessage2@@H@Z @ 236 NONAME ; void CAlfAppSrvSessionBase::ServiceError(class RMessage2 const &, int)
	?ConstructL@CAlfShadowBorderBrushHandler@@QAEXPAVCHuiBrush@@UTAlfMetric@@@Z @ 237 NONAME ; void CAlfShadowBorderBrushHandler::ConstructL(class CHuiBrush *, struct TAlfMetric)
	?NewL@CAlfShadowBorderBrushHandler@@SAPAVMAlfExtension@@AAVMAlfInterfaceProvider@@UTAlfMetric@@@Z @ 238 NONAME ; class MAlfExtension * CAlfShadowBorderBrushHandler::NewL(class MAlfInterfaceProvider &, struct TAlfMetric)
	?ConstructL@CAlfBorderBrushHandler@@QAEXPAVCHuiBrush@@UTAlfXYMetric@@1@Z @ 239 NONAME ; void CAlfBorderBrushHandler::ConstructL(class CHuiBrush *, struct TAlfXYMetric, struct TAlfXYMetric)
	?NewL@CAlfBorderBrushHandler@@SAPAVMAlfExtension@@AAVMAlfInterfaceProvider@@UTAlfXYMetric@@1@Z @ 240 NONAME ; class MAlfExtension * CAlfBorderBrushHandler::NewL(class MAlfInterfaceProvider &, struct TAlfXYMetric, struct TAlfXYMetric)
	?ConstructL@CAlfFrameBrushHandler@@QAEXPAVCHuiBrush@@ABVTAknsItemID@@UTAlfXYMetric@@@Z @ 241 NONAME ; void CAlfFrameBrushHandler::ConstructL(class CHuiBrush *, class TAknsItemID const &, struct TAlfXYMetric)
	?NewL@CAlfFrameBrushHandler@@SAPAVMAlfExtension@@AAVMAlfInterfaceProvider@@ABVTAknsItemID@@UTAlfXYMetric@@@Z @ 242 NONAME ; class MAlfExtension * CAlfFrameBrushHandler::NewL(class MAlfInterfaceProvider &, class TAknsItemID const &, struct TAlfXYMetric)
	?ConstructL@CAlfDropShadowBrushHandler@@QAEXPAVCHuiBrush@@UTAlfMetric@@@Z @ 243 NONAME ; void CAlfDropShadowBrushHandler::ConstructL(class CHuiBrush *, struct TAlfMetric)
	?NewL@CAlfDropShadowBrushHandler@@SAPAVMAlfExtension@@AAVMAlfInterfaceProvider@@UTAlfMetric@@@Z @ 244 NONAME ; class MAlfExtension * CAlfDropShadowBrushHandler::NewL(class MAlfInterfaceProvider &, struct TAlfMetric)
	?VisibleControlGroupL@CAlfSrvEffectEnv@@QAEPAVCHuiControlGroup@@H@Z @ 245 NONAME ; class CHuiControlGroup * CAlfSrvEffectEnv::VisibleControlGroupL(int)
	?ConstructL@CAlfFrameBrushHandler@@QAEXPAVCHuiBrush@@ABVTHuiImage@@UTAlfXYMetric@@@Z @ 246 NONAME ; void CAlfFrameBrushHandler::ConstructL(class CHuiBrush *, class THuiImage const &, struct TAlfXYMetric)
	?NewL@CAlfFrameBrushHandler@@SAPAVMAlfExtension@@AAVMAlfInterfaceProvider@@ABVTHuiImage@@UTAlfXYMetric@@@Z @ 247 NONAME ; class MAlfExtension * CAlfFrameBrushHandler::NewL(class MAlfInterfaceProvider &, class THuiImage const &, struct TAlfXYMetric)
	??0CAlfCanvasVisualHandler@@QAE@AAVMAlfInterfaceProvider@@@Z @ 248 NONAME ; CAlfCanvasVisualHandler::CAlfCanvasVisualHandler(class MAlfInterfaceProvider &)
	??1CAlfCanvasVisualHandler@@MAE@XZ @ 249 NONAME ; CAlfCanvasVisualHandler::~CAlfCanvasVisualHandler(void)
	?ConstructL@CAlfCanvasVisualHandler@@UAEXPAVCHuiVisual@@AAVCHuiControl@@PAVCHuiLayout@@@Z @ 250 NONAME ; void CAlfCanvasVisualHandler::ConstructL(class CHuiVisual *, class CHuiControl &, class CHuiLayout *)
	?GetInterface@CAlfCanvasVisualHandler@@UAEPAXABW4THuiInterfaceSupport@@@Z @ 251 NONAME ; void * CAlfCanvasVisualHandler::GetInterface(enum THuiInterfaceSupport const &)
	?HandleCmdL@CAlfCanvasVisualHandler@@UAEXHABVTDesC8@@AAVTDes8@@@Z @ 252 NONAME ; void CAlfCanvasVisualHandler::HandleCmdL(int, class TDesC8 const &, class TDes8 &)
	?NewL@CAlfCanvasVisualHandler@@SAPAVMAlfExtension@@AAVMAlfInterfaceProvider@@PAVCHuiControl@@PAVCHuiLayout@@@Z @ 253 NONAME ; class MAlfExtension * CAlfCanvasVisualHandler::NewL(class MAlfInterfaceProvider &, class CHuiControl *, class CHuiLayout *)
	?Release@CAlfCanvasVisualHandler@@UAEXXZ @ 254 NONAME ; void CAlfCanvasVisualHandler::Release(void)
	?VisualHandlerExtension@CAlfCanvasVisualHandler@@MAEXABVTUid@@PAPAX@Z @ 255 NONAME ; void CAlfCanvasVisualHandler::VisualHandlerExtension(class TUid const &, void * *)
	?Identifier@CAlfWindow@@QBEIXZ @ 256 NONAME ; unsigned int CAlfWindow::Identifier(void) const
	?Stride@CAlfWindowBuffer@@QBEIXZ @ 257 NONAME ; unsigned int CAlfWindowBuffer::Stride(void) const
	?NewWindow@CAlfWindowFxPlugin@@UAEXABUTWindowIdentifier@@@Z @ 258 NONAME ; void CAlfWindowFxPlugin::NewWindow(struct TWindowIdentifier const &)
	?ScreenId@CAlfWindowManager@@QBEHXZ @ 259 NONAME ; int CAlfWindowManager::ScreenId(void) const
	?Bridge@CAlfWindowManager@@QAEPAVCAlfStreamerBridge@@XZ @ 260 NONAME ; class CAlfStreamerBridge * CAlfWindowManager::Bridge(void)
	?Index@CAlfWindow@@QBEIXZ @ 261 NONAME ; unsigned int CAlfWindow::Index(void) const
	?EnableNewWindowNotificationsL@CAlfWindowManager@@QAEXAAVCAlfWindowFxPlugin@@H@Z @ 262 NONAME ; void CAlfWindowManager::EnableNewWindowNotificationsL(class CAlfWindowFxPlugin &, int)
	?Release@CAlfWindowManager@@QAEXAAVCAlfWindow@@H@Z @ 263 NONAME ; void CAlfWindowManager::Release(class CAlfWindow &, int)
	?IsActive@CAlfWindow@@QBEHXZ @ 264 NONAME ; int CAlfWindow::IsActive(void) const
	?CreateNewWindowL@CAlfWindowManager@@QAEPAVCAlfWindow@@IABVTSize@@@Z @ 265 NONAME ; class CAlfWindow * CAlfWindowManager::CreateNewWindowL(unsigned int, class TSize const &)
	?Format@CAlfWindowBuffer@@QBEHXZ @ 266 NONAME ; int CAlfWindowBuffer::Format(void) const
	?SetRotation@CAlfWindow@@QAEXMI@Z @ 267 NONAME ; void CAlfWindow::SetRotation(float, unsigned int)
	??1CAlfWindowFxPlugin@@UAE@XZ @ 268 NONAME ; CAlfWindowFxPlugin::~CAlfWindowFxPlugin(void)
	?GetWinInfoListL@CAlfWindowManager@@QAEXHHAAV?$RArray@UTAlfWServInfo@@@@@Z @ 269 NONAME ; void CAlfWindowManager::GetWinInfoListL(int, int, class RArray<struct TAlfWServInfo> &)
	?Position@CAlfWindow@@QBE?AVTPoint@@XZ @ 270 NONAME ; class TPoint CAlfWindow::Position(void) const
	?SetPos@CAlfWindow@@QAEXVTPoint@@I@Z @ 271 NONAME ; void CAlfWindow::SetPos(class TPoint, unsigned int)
	?ReserveL@CAlfWindowManager@@QAEPAVCAlfWindow@@ABUTWindowIdentifier@@H@Z @ 272 NONAME ; class CAlfWindow * CAlfWindowManager::ReserveL(struct TWindowIdentifier const &, int)
	?SetSurfaceExtent@CAlfWindow@@QAEXABVTRect@@@Z @ 273 NONAME ; void CAlfWindow::SetSurfaceExtent(class TRect const &)
	?Move@CAlfWindow@@QAEXI@Z @ 274 NONAME ; void CAlfWindow::Move(unsigned int)
	?InBuffer@CAlfWindow@@QAEPAVCAlfWindowBuffer@@XZ @ 275 NONAME ; class CAlfWindowBuffer * CAlfWindow::InBuffer(void)
	?CancelMessage@CAlfWindowFxPlugin@@UAEXH@Z @ 276 NONAME ; void CAlfWindowFxPlugin::CancelMessage(int)
	?PostIt@CAlfWindowManager@@QAEHABVTAlfBridgerData@@@Z @ 277 NONAME ; int CAlfWindowManager::PostIt(struct TAlfBridgerData const &)
	?WindowManager@CAlfWindowFxPlugin@@QAEPAVCAlfWindowManager@@XZ @ 278 NONAME ; class CAlfWindowManager * CAlfWindowFxPlugin::WindowManager(void)
	?ConstructL@CAlfWindowFxPlugin@@UAEXABVCAlfWindowManager@@H@Z @ 279 NONAME ; void CAlfWindowFxPlugin::ConstructL(class CAlfWindowManager const &, int)
	?EnableDestroyWindowNotificationsL@CAlfWindowManager@@QAEXAAVCAlfWindowFxPlugin@@H@Z @ 280 NONAME ; void CAlfWindowManager::EnableDestroyWindowNotificationsL(class CAlfWindowFxPlugin &, int)
	?Size@CAlfWindow@@QBE?AVTSize@@XZ @ 281 NONAME ; class TSize CAlfWindow::Size(void) const
	?OutBufferL@CAlfWindow@@QAEPAVCAlfWindowBuffer@@H@Z @ 282 NONAME ; class CAlfWindowBuffer * CAlfWindow::OutBufferL(int)
	?BufferPtr@CAlfWindowBuffer@@QBEPAXXZ @ 283 NONAME ; void * CAlfWindowBuffer::BufferPtr(void) const
	?DestroyWindow@CAlfWindowFxPlugin@@UAEXABUTWindowIdentifier@@@Z @ 284 NONAME ; void CAlfWindowFxPlugin::DestroyWindow(struct TWindowIdentifier const &)
	?SurfaceExtent@CAlfWindow@@QBE?AVTRect@@XZ @ 285 NONAME ; class TRect CAlfWindow::SurfaceExtent(void) const
	?WsInfo@CAlfWindow@@QBEABUTAlfWServInfo@@XZ @ 286 NONAME ; struct TAlfWServInfo const & CAlfWindow::WsInfo(void) const
	?AppendVarDataL@CAlfStreamerBridge@@QAEPBXHAAH@Z @ 287 NONAME ; void const * CAlfStreamerBridge::AppendVarDataL(int, int &)
	?DestroyWindow@CAlfWindowManager@@QAEXAAVCAlfWindow@@@Z @ 288 NONAME ; void CAlfWindowManager::DestroyWindow(class CAlfWindow &)
	?Opacity@CAlfWindow@@QBEMXZ @ 289 NONAME ; float CAlfWindow::Opacity(void) const
	?EnableIndexChangedNotifications@CAlfWindow@@QAEXH@Z @ 290 NONAME ; void CAlfWindow::EnableIndexChangedNotifications(int)
	?SetBufferPtr@CAlfWindowBuffer@@QBEXPAX@Z @ 291 NONAME ; void CAlfWindowBuffer::SetBufferPtr(void *) const
	??1CAlfWindowBuffer@@UAE@XZ @ 292 NONAME ; CAlfWindowBuffer::~CAlfWindowBuffer(void)
	?Size@CAlfWindowBuffer@@QBE?AVTSize@@XZ @ 293 NONAME ; class TSize CAlfWindowBuffer::Size(void) const
	?SetActive@CAlfWindow@@QAEXH@Z @ 294 NONAME ; void CAlfWindow::SetActive(int)
	?Rotation@CAlfWindow@@QBEMXZ @ 295 NONAME ; float CAlfWindow::Rotation(void) const
	?HandleMessageL@CAlfWindowFxPlugin@@UAEXABVTDesC8@@ABVRMessage2@@@Z @ 296 NONAME ; void CAlfWindowFxPlugin::HandleMessageL(class TDesC8 const &, class RMessage2 const &)
	?SetFormat@CAlfWindowBuffer@@QAEXH@Z @ 297 NONAME ; void CAlfWindowBuffer::SetFormat(int)
	?SetSize@CAlfWindowBuffer@@QAEXABVTSize@@@Z @ 298 NONAME ; void CAlfWindowBuffer::SetSize(class TSize const &)
	?GetWinIdListL@CAlfWindowManager@@QAEXHAAV?$RArray@UTWindowIdentifier@@@@@Z @ 299 NONAME ; void CAlfWindowManager::GetWinIdListL(int, class RArray<struct TWindowIdentifier> &)
	?HandleMessageL@CAlfWindowFxPlugin@@UAEXABVTDesC8@@AAVTPtr8@@@Z @ 300 NONAME ; void CAlfWindowFxPlugin::HandleMessageL(class TDesC8 const &, class TPtr8 &)
	?SetOpacity@CAlfWindow@@QAEXMI@Z @ 301 NONAME ; void CAlfWindow::SetOpacity(float, unsigned int)
	?SetStride@CAlfWindowBuffer@@QAEXI@Z @ 302 NONAME ; void CAlfWindowBuffer::SetStride(unsigned int)
	?ContentReady@CAlfWindow@@QAEXABVTRegion@@@Z @ 303 NONAME ; void CAlfWindow::ContentReady(class TRegion const &)
	?NewL@CAlfWindowBuffer@@SAPAV1@ABVTSize@@HIPAX@Z @ 304 NONAME ; class CAlfWindowBuffer * CAlfWindowBuffer::NewL(class TSize const &, int, unsigned int, void *)
	?SetSize@CAlfWindow@@QAEXVTSize@@I@Z @ 305 NONAME ; void CAlfWindow::SetSize(class TSize, unsigned int)
	?AppendEffectsDataL@CAlfStreamerBridge@@QAEPBXHAAH@Z @ 306 NONAME ; void const * CAlfStreamerBridge::AppendEffectsDataL(int, int &)
	?FindWgForAppUid@CAlfStreamerBridge@@QAEHVTUid@@@Z @ 307 NONAME ; int CAlfStreamerBridge::FindWgForAppUid(class TUid)
	?FindAppUidForWgId@CAlfStreamerBridge@@QAE?AVTUid@@H@Z @ 308 NONAME ; class TUid CAlfStreamerBridge::FindAppUidForWgId(int)
	?SetLayerUsesAplhaFlag@CAlfWindow@@QAEXH@Z @ 309 NONAME ; void CAlfWindow::SetLayerUsesAplhaFlag(int)
	?ClientAboutToExit@CAlfWindowFxPlugin@@UAEXVTThreadId@@@Z @ 310 NONAME ; void CAlfWindowFxPlugin::ClientAboutToExit(class TThreadId)

