EXPORTS
	??0CSaslMechanism@@IAE@XZ @ 1 NONAME ; CSaslMechanism::CSaslMechanism(void)
	??0CSenApplicationContext@@IAE@VTSecureId@@AAVCSenServerContext@@@Z @ 2 NONAME ; CSenApplicationContext::CSenApplicationContext(class TSecureId, class CSenServerContext &)
	??0CSenClientContext@@IAE@HAAVCSenApplicationContext@@@Z @ 3 NONAME ; CSenClientContext::CSenClientContext(int, class CSenApplicationContext &)
	??0CSenContext@@IAE@W4TContextDirection@SenContext@@@Z @ 4 NONAME ; CSenContext::CSenContext(enum SenContext::TContextDirection)
	??0CSenHandlerBase@@IAE@XZ @ 5 NONAME ; CSenHandlerBase::CSenHandlerBase(void)
	??0CSenInternalServiceConsumer@@IAE@W4TDescriptionClassType@MSenServiceDescription@@AAVCSIF@@@Z @ 6 NONAME ; CSenInternalServiceConsumer::CSenInternalServiceConsumer(enum MSenServiceDescription::TDescriptionClassType, class CSIF &)
	??0CSenLayeredTransportProperties@@IAE@XZ @ 7 NONAME ; CSenLayeredTransportProperties::CSenLayeredTransportProperties(void)
	??0CSenMessageContext@@IAE@W4TContextDirection@SenContext@@PAVMSenProperties@@@Z @ 8 NONAME ; CSenMessageContext::CSenMessageContext(enum SenContext::TContextDirection, class MSenProperties *)
	??0CSenServerContext@@IAE@AAVMSenCoreServiceManager@@@Z @ 9 NONAME ; CSenServerContext::CSenServerContext(class MSenCoreServiceManager &)
	??0CSenServiceSession@@IAE@W4TDescriptionClassType@MSenServiceDescription@@AAVMSIF@@@Z @ 10 NONAME ; CSenServiceSession::CSenServiceSession(enum MSenServiceDescription::TDescriptionClassType, class MSIF &)
	??0CSenSessionContext@@IAE@XZ @ 11 NONAME ; CSenSessionContext::CSenSessionContext(void)
	??0CSenSyncRequester@@IAE@AAVMSenTransport@@AAVMSenCoreServiceManager@@@Z @ 12 NONAME ; CSenSyncRequester::CSenSyncRequester(class MSenTransport &, class MSenCoreServiceManager &)
	??0CSenTransportContext@@IAE@XZ @ 13 NONAME ; CSenTransportContext::CSenTransportContext(void)
	??0CSenWSDescription@@IAE@W4TDescriptionClassType@MSenServiceDescription@@@Z @ 14 NONAME ; CSenWSDescription::CSenWSDescription(enum MSenServiceDescription::TDescriptionClassType)
	??0CSenWSPattern@@IAE@W4TDescriptionClassType@MSenServiceDescription@@@Z @ 15 NONAME ; CSenWSPattern::CSenWSPattern(enum MSenServiceDescription::TDescriptionClassType)
	??0CSenWebServiceSession@@IAE@W4TDescriptionClassType@MSenServiceDescription@@AAVMSIF@@@Z @ 16 NONAME ; CSenWebServiceSession::CSenWebServiceSession(enum MSenServiceDescription::TDescriptionClassType, class MSIF &)
	??1CSaslMechanism@@UAE@XZ @ 17 NONAME ; CSaslMechanism::~CSaslMechanism(void)
	??1CSenApplicationContext@@UAE@XZ @ 18 NONAME ; CSenApplicationContext::~CSenApplicationContext(void)
	??1CSenClientContext@@UAE@XZ @ 19 NONAME ; CSenClientContext::~CSenClientContext(void)
	??1CSenContext@@UAE@XZ @ 20 NONAME ; CSenContext::~CSenContext(void)
	??1CSenContextItem@@UAE@XZ @ 21 NONAME ; CSenContextItem::~CSenContextItem(void)
	??1CSenHandlerBase@@UAE@XZ @ 22 NONAME ; CSenHandlerBase::~CSenHandlerBase(void)
	??1CSenInternalServiceConsumer@@UAE@XZ @ 23 NONAME ; CSenInternalServiceConsumer::~CSenInternalServiceConsumer(void)
	??1CSenLayeredTransportProperties@@UAE@XZ @ 24 NONAME ; CSenLayeredTransportProperties::~CSenLayeredTransportProperties(void)
	??1CSenMessageContext@@UAE@XZ @ 25 NONAME ; CSenMessageContext::~CSenMessageContext(void)
	??1CSenServerContext@@UAE@XZ @ 26 NONAME ; CSenServerContext::~CSenServerContext(void)
	??1CSenServiceSession@@UAE@XZ @ 27 NONAME ; CSenServiceSession::~CSenServiceSession(void)
	??1CSenSessionContext@@UAE@XZ @ 28 NONAME ; CSenSessionContext::~CSenSessionContext(void)
	??1CSenSyncRequester@@UAE@XZ @ 29 NONAME ; CSenSyncRequester::~CSenSyncRequester(void)
	??1CSenTransportContext@@UAE@XZ @ 30 NONAME ; CSenTransportContext::~CSenTransportContext(void)
	??1CSenWSDescription@@UAE@XZ @ 31 NONAME ; CSenWSDescription::~CSenWSDescription(void)
	??1CSenWSPattern@@UAE@XZ @ 32 NONAME ; CSenWSPattern::~CSenWSPattern(void)
	??1CSenWebServiceSession@@UAE@XZ @ 33 NONAME ; CSenWebServiceSession::~CSenWebServiceSession(void)
	?AcceptsConsumerPolicy@CSenWSPattern@@UAEHAAVMSenConsumerPolicy@@@Z @ 34 NONAME ; int CSenWSPattern::AcceptsConsumerPolicy(class MSenConsumerPolicy &)
	?Account@CSaslMechanism@@UAEAAVCSenIdentityProvider@@XZ @ 35 NONAME ; class CSenIdentityProvider & CSaslMechanism::Account(void)
	?AddConsumerIdentityProviderIdL@CSenWSPattern@@UAEHABVTDesC8@@@Z @ 36 NONAME ; int CSenWSPattern::AddConsumerIdentityProviderIdL(class TDesC8 const &)
	?AddConsumerL@CSenWebServiceSession@@UAEHAAVMSenRemoteServiceConsumer@@@Z @ 37 NONAME ; int CSenWebServiceSession::AddConsumerL(class MSenRemoteServiceConsumer &)
	?AddCredentialL@CSenWebServiceSession@@UAEHAAVCSenCredential@@@Z @ 38 NONAME ; int CSenWebServiceSession::AddCredentialL(class CSenCredential &)
	?AddCredentialObserverL@CSenWebServiceSession@@QAEHAAVCSenInternalCredential@@@Z @ 39 NONAME ; int CSenWebServiceSession::AddCredentialObserverL(class CSenInternalCredential &)
	?AddFacetL@CSenServiceSession@@UAEHABVCSenFacet@@@Z @ 40 NONAME ; int CSenServiceSession::AddFacetL(class CSenFacet const &)
	?AsServiceDescription@CSenServiceSession@@UAEAAVMSenServiceDescription@@XZ @ 41 NONAME ; class MSenServiceDescription & CSenServiceSession::AsServiceDescription(void)
	?AsUtf8L@CSenLayeredTransportProperties@@UAEPAVHBufC8@@W4TSenPropertiesLayer@MSenLayeredProperties@@@Z @ 42 NONAME ; class HBufC8 * CSenLayeredTransportProperties::AsUtf8L(enum MSenLayeredProperties::TSenPropertiesLayer)
	?AsUtf8L@CSenLayeredTransportProperties@@UAEPAVHBufC8@@XZ @ 43 NONAME ; class HBufC8 * CSenLayeredTransportProperties::AsUtf8L(void)
	?AsUtf8LC@CSenLayeredTransportProperties@@UAEPAVHBufC8@@W4TSenPropertiesLayer@MSenLayeredProperties@@@Z @ 44 NONAME ; class HBufC8 * CSenLayeredTransportProperties::AsUtf8LC(enum MSenLayeredProperties::TSenPropertiesLayer)
	?AsUtf8LC@CSenLayeredTransportProperties@@UAEPAVHBufC8@@XZ @ 45 NONAME ; class HBufC8 * CSenLayeredTransportProperties::AsUtf8LC(void)
	?AsXmlL@CSenHandlerBase@@UAEPAVHBufC8@@XZ @ 46 NONAME ; class HBufC8 * CSenHandlerBase::AsXmlL(void)
	?BaseConstructL@CSenApplicationContext@@IAEXXZ @ 47 NONAME ; void CSenApplicationContext::BaseConstructL(void)
	?BaseConstructL@CSenClientContext@@IAEXXZ @ 48 NONAME ; void CSenClientContext::BaseConstructL(void)
	?BaseConstructL@CSenContext@@IAEXXZ @ 49 NONAME ; void CSenContext::BaseConstructL(void)
	?BaseConstructL@CSenLayeredTransportProperties@@MAEXABVCSenElement@@PAVRStringPool@@@Z @ 50 NONAME ; void CSenLayeredTransportProperties::BaseConstructL(class CSenElement const &, class RStringPool *)
	?BaseConstructL@CSenLayeredTransportProperties@@MAEXABVTDesC8@@000PAVCSenXmlReader@@PAVRStringPool@@@Z @ 51 NONAME ; void CSenLayeredTransportProperties::BaseConstructL(class TDesC8 const &, class TDesC8 const &, class TDesC8 const &, class TDesC8 const &, class CSenXmlReader *, class RStringPool *)
	?BaseConstructL@CSenLayeredTransportProperties@@MAEXABVTDesC8@@00PAVCSenXmlReader@@PAVRStringPool@@@Z @ 52 NONAME ; void CSenLayeredTransportProperties::BaseConstructL(class TDesC8 const &, class TDesC8 const &, class TDesC8 const &, class CSenXmlReader *, class RStringPool *)
	?BaseConstructL@CSenLayeredTransportProperties@@MAEXABVTDesC8@@0PAVCSenXmlReader@@PAVRStringPool@@@Z @ 53 NONAME ; void CSenLayeredTransportProperties::BaseConstructL(class TDesC8 const &, class TDesC8 const &, class CSenXmlReader *, class RStringPool *)
	?BaseConstructL@CSenMessageContext@@IAEXXZ @ 54 NONAME ; void CSenMessageContext::BaseConstructL(void)
	?BaseConstructL@CSenServerContext@@IAEXXZ @ 55 NONAME ; void CSenServerContext::BaseConstructL(void)
	?BaseConstructL@CSenServiceSession@@IAEXXZ @ 56 NONAME ; void CSenServiceSession::BaseConstructL(void)
	?BaseConstructL@CSenSessionContext@@IAEXXZ @ 57 NONAME ; void CSenSessionContext::BaseConstructL(void)
	?BaseConstructL@CSenSyncRequester@@IAEXXZ @ 58 NONAME ; void CSenSyncRequester::BaseConstructL(void)
	?BaseConstructL@CSenTransportContext@@IAEXAAVMSenCoreServiceManager@@AAVCSenWSDescription@@PAVCSenServiceSession@@@Z @ 59 NONAME ; void CSenTransportContext::BaseConstructL(class MSenCoreServiceManager &, class CSenWSDescription &, class CSenServiceSession *)
	?BaseConstructL@CSenWSPattern@@IAEXABVTDesC8@@0@Z @ 60 NONAME ; void CSenWSPattern::BaseConstructL(class TDesC8 const &, class TDesC8 const &)
	?BaseConstructL@CSenWSPattern@@IAEXABVTDesC8@@@Z @ 61 NONAME ; void CSenWSPattern::BaseConstructL(class TDesC8 const &)
	?BaseConstructL@CSenWSPattern@@IAEXXZ @ 62 NONAME ; void CSenWSPattern::BaseConstructL(void)
	?BoolPropertyL@CSenLayeredTransportProperties@@UAEHABVTDesC8@@AAH@Z @ 63 NONAME ; int CSenLayeredTransportProperties::BoolPropertyL(class TDesC8 const &, int &)
	?BoolPropertyL@CSenLayeredTransportProperties@@UAEHABVTDesC8@@AAHW4TSenPropertiesLayer@MSenLayeredProperties@@@Z @ 64 NONAME ; int CSenLayeredTransportProperties::BoolPropertyL(class TDesC8 const &, int &, enum MSenLayeredProperties::TSenPropertiesLayer)
	?BoundaryLineEndL@SenMultiPartUtils@@SAXABVRBuf8@@AAV2@@Z @ 65 NONAME ; void SenMultiPartUtils::BoundaryLineEndL(class RBuf8 const &, class RBuf8 &)
	?BoundaryLineStartL@SenMultiPartUtils@@SAXABVRBuf8@@AAV2@@Z @ 66 NONAME ; void SenMultiPartUtils::BoundaryLineStartL(class RBuf8 const &, class RBuf8 &)
	?ChunkByTxnIdL@CSenInternalServiceConsumer@@UAEHHAAPAVCSenChunk@@@Z @ 67 NONAME ; int CSenInternalServiceConsumer::ChunkByTxnIdL(int, class CSenChunk * &)
	?CidL@SenMultiPartUtils@@SAXABVRBuf8@@AAV?$RArray@VRBuf8@@@@@Z @ 68 NONAME ; void SenMultiPartUtils::CidL(class RBuf8 const &, class RArray<class RBuf8> &)
	?ClearPasswordL@CSaslMechanism@@UAEXXZ @ 69 NONAME ; void CSaslMechanism::ClearPasswordL(void)
	?ClientServerInterval@CSenWebServiceSession@@UAE?AVTTimeIntervalMicroSeconds@@XZ @ 70 NONAME ; class TTimeIntervalMicroSeconds CSenWebServiceSession::ClientServerInterval(void)
	?Clone@CSenLayeredTransportProperties@@UBEPAVMSenProperties@@AAH@Z @ 71 NONAME ; class MSenProperties * CSenLayeredTransportProperties::Clone(int &) const
	?CloneL@CSenLayeredTransportProperties@@UBEPAVMSenProperties@@XZ @ 72 NONAME ; class MSenProperties * CSenLayeredTransportProperties::CloneL(void) const
	?CompleteServerMessagesOnOffL@CSenServiceSession@@UAEHABH@Z @ 73 NONAME ; int CSenServiceSession::CompleteServerMessagesOnOffL(int const &)
	?ComputeStatusL@CSenServiceSession@@UAEHXZ @ 74 NONAME ; int CSenServiceSession::ComputeStatusL(void)
	?ComputeStatusL@CSenWebServiceSession@@UAEHXZ @ 75 NONAME ; int CSenWebServiceSession::ComputeStatusL(void)
	?ConstructL@CSenInternalServiceConsumer@@IAEXXZ @ 76 NONAME ; void CSenInternalServiceConsumer::ConstructL(void)
	?ConstructL@CSenWebServiceSession@@IAEXXZ @ 77 NONAME ; void CSenWebServiceSession::ConstructL(void)
	?ConstructSecurityTokenL@CSenWebServiceSession@@UAEHAAVCSenCredential@@AAPAVHBufC8@@@Z @ 78 NONAME ; int CSenWebServiceSession::ConstructSecurityTokenL(class CSenCredential &, class HBufC8 * &)
	?Consumer@CSenWebServiceSession@@UAEPAVMSenRemoteServiceConsumer@@XZ @ 79 NONAME ; class MSenRemoteServiceConsumer * CSenWebServiceSession::Consumer(void)
	?ConsumerIapId@CSenWSPattern@@UAEHAAK@Z @ 80 NONAME ; int CSenWSPattern::ConsumerIapId(unsigned long &)
	?ConsumerIdentityProviderIds8L@CSenWSPattern@@UAEABVCSenIdentityProviderIdArray8@@XZ @ 81 NONAME ; class CSenIdentityProviderIdArray8 const & CSenWSPattern::ConsumerIdentityProviderIds8L(void)
	?ConsumerPolicyAsXmlL@CSenWSPattern@@QAEPAVHBufC8@@XZ @ 82 NONAME ; class HBufC8 * CSenWSPattern::ConsumerPolicyAsXmlL(void)
	?Consumers@CSenWebServiceSession@@UBEHAAV?$RPointerArray@VMSenRemoteServiceConsumer@@@@@Z @ 83 NONAME ; int CSenWebServiceSession::Consumers(class RPointerArray<class MSenRemoteServiceConsumer> &) const
	?Contract@CSenServiceSession@@UAE?AVTPtrC8@@XZ @ 84 NONAME ; class TPtrC8 CSenServiceSession::Contract(void)
	?Contract@CSenWebServiceSession@@UAE?AVTPtrC8@@XZ @ 85 NONAME ; class TPtrC8 CSenWebServiceSession::Contract(void)
	?CredentialChanged@CSenWebServiceSession@@UAEXW4TSenCredentialChange@MSenCredentialObserver@@PAX@Z @ 86 NONAME ; void CSenWebServiceSession::CredentialChanged(enum MSenCredentialObserver::TSenCredentialChange, void *)
	?DescriptionClassType@CSenServiceSession@@UAE?AW4TDescriptionClassType@MSenServiceDescription@@XZ @ 87 NONAME ; enum MSenServiceDescription::TDescriptionClassType CSenServiceSession::DescriptionClassType(void)
	?DeviceIDL@CSenLayeredTransportProperties@@UAEHAAVTPtrC8@@@Z @ 88 NONAME ; int CSenLayeredTransportProperties::DeviceIDL(class TPtrC8 &)
	?DownloadFolderL@CSenLayeredTransportProperties@@UAEHAAVTPtrC8@@@Z @ 89 NONAME ; int CSenLayeredTransportProperties::DownloadFolderL(class TPtrC8 &)
	?Endpoint@CSenServiceSession@@UAE?AVTPtrC8@@XZ @ 90 NONAME ; class TPtrC8 CSenServiceSession::Endpoint(void)
	?Endpoint@CSenWebServiceSession@@UAE?AVTPtrC8@@XZ @ 91 NONAME ; class TPtrC8 CSenWebServiceSession::Endpoint(void)
	?ExpandToL@CSenLayeredTransportProperties@@UAEXW4TSenPropertiesLayer@MSenLayeredProperties@@@Z @ 92 NONAME ; void CSenLayeredTransportProperties::ExpandToL(enum MSenLayeredProperties::TSenPropertiesLayer)
	?FacetValue@CSenServiceSession@@UAEHAAVTDesC8@@AAPAVHBufC8@@@Z @ 93 NONAME ; int CSenServiceSession::FacetValue(class TDesC8 &, class HBufC8 * &)
	?FacetsL@CSenServiceSession@@UAEHAAV?$RPointerArray@VCSenFacet@@@@@Z @ 94 NONAME ; int CSenServiceSession::FacetsL(class RPointerArray<class CSenFacet> &)
	?FileAttachmentL@CSenLayeredTransportProperties@@UAEHABVTDesC8@@AAPAVHBufC8@@@Z @ 95 NONAME ; int CSenLayeredTransportProperties::FileAttachmentL(class TDesC8 const &, class HBufC8 * &)
	?FileDataPartL@SenMultiPartUtils@@SAXIIAAV?$RArray@VTXmlEngDataContainer@@@@AAVRBuf8@@@Z @ 96 NONAME ; void SenMultiPartUtils::FileDataPartL(unsigned int, unsigned int, class RArray<class TXmlEngDataContainer> &, class RBuf8 &)
	?FileDataRestL@SenMultiPartUtils@@SAXIIIAAV?$RArray@VTXmlEngDataContainer@@@@AAVRBuf8@@@Z @ 97 NONAME ; void SenMultiPartUtils::FileDataRestL(unsigned int, unsigned int, unsigned int, class RArray<class TXmlEngDataContainer> &, class RBuf8 &)
	?FileProgress@CSenInternalServiceConsumer@@UAEXHHHABVTDesC8@@H@Z @ 98 NONAME ; void CSenInternalServiceConsumer::FileProgress(int, int, int, class TDesC8 const &, int)
	?FillCredentialIdentifierL@CSenWebServiceSession@@UAEXAAVCSenCredentialIdentifier@@@Z @ 99 NONAME ; void CSenWebServiceSession::FillCredentialIdentifierL(class CSenCredentialIdentifier &)
	?Framework@CSenInternalServiceConsumer@@IAEAAVCSIF@@XZ @ 100 NONAME ; class CSIF & CSenInternalServiceConsumer::Framework(void)
	?FrameworkId@CSenServiceSession@@UAE?AVTPtrC8@@XZ @ 101 NONAME ; class TPtrC8 CSenServiceSession::FrameworkId(void)
	?FrameworkId@CSenWebServiceSession@@UAE?AVTPtrC8@@XZ @ 102 NONAME ; class TPtrC8 CSenWebServiceSession::FrameworkId(void)
	?FrameworkVersion@CSenWebServiceSession@@UAE?AVTPtrC8@@XZ @ 103 NONAME ; class TPtrC8 CSenWebServiceSession::FrameworkVersion(void)
	?GenerateRandomBoundaryL@SenMultiPartUtils@@SAXAAVRBuf8@@@Z @ 104 NONAME ; void SenMultiPartUtils::GenerateRandomBoundaryL(class RBuf8 &)
	?GenerateRandomRootCidL@SenMultiPartUtils@@SAXAAVRBuf8@@@Z @ 105 NONAME ; void SenMultiPartUtils::GenerateRandomRootCidL(class RBuf8 &)
	?GetCredentialIdL@CSenWebServiceSession@@QAEHXZ @ 106 NONAME ; int CSenWebServiceSession::GetCredentialIdL(void)
	?HandleErrorL@CSenInternalServiceConsumer@@UAEHPAVHBufC8@@HHPAVMSenProperties@@@Z @ 107 NONAME ; int CSenInternalServiceConsumer::HandleErrorL(class HBufC8 *, int, int, class MSenProperties *)
	?HandleErrorL@CSenWebServiceSession@@UAEHHPAVHBufC8@@HAAVMSenRemoteServiceConsumer@@PAVMSenProperties@@@Z @ 108 NONAME ; int CSenWebServiceSession::HandleErrorL(int, class HBufC8 *, int, class MSenRemoteServiceConsumer &, class MSenProperties *)
	?HandleMessageL@CSenInternalServiceConsumer@@UAEHPAVHBufC8@@HPAVMSenProperties@@@Z @ 109 NONAME ; int CSenInternalServiceConsumer::HandleMessageL(class HBufC8 *, int, class MSenProperties *)
	?HandleSoapFaultL@CSenWebServiceSession@@UAEHPAVCSenSoapMessage@@AAPAVHBufC8@@@Z @ 110 NONAME ; int CSenWebServiceSession::HandleSoapFaultL(class CSenSoapMessage *, class HBufC8 * &)
	?HandleSoapFaultL@CSenWebServiceSession@@UAEHPAVCSenSoapMessage@@HHAAVMSenRemoteServiceConsumer@@PAVMSenProperties@@@Z @ 111 NONAME ; int CSenWebServiceSession::HandleSoapFaultL(class CSenSoapMessage *, int, int, class MSenRemoteServiceConsumer &, class MSenProperties *)
	?HasConsumer@CSenWebServiceSession@@QBEHXZ @ 112 NONAME ; int CSenWebServiceSession::HasConsumer(void) const
	?HasEqualPrimaryKeysL@CSenWSDescription@@UAEHAAVMSenServiceDescription@@@Z @ 113 NONAME ; int CSenWSDescription::HasEqualPrimaryKeysL(class MSenServiceDescription &)
	?HasFacetL@CSenServiceSession@@UAEHABVTDesC8@@AAH@Z @ 114 NONAME ; int CSenServiceSession::HasFacetL(class TDesC8 const &, int &)
	?HasSecurity@CSenWebServiceSession@@IAEHXZ @ 115 NONAME ; int CSenWebServiceSession::HasSecurity(void)
	?HasSuperClass@CSenInternalServiceConsumer@@UAEHW4TDescriptionClassType@MSenServiceDescription@@@Z @ 116 NONAME ; int CSenInternalServiceConsumer::HasSuperClass(enum MSenServiceDescription::TDescriptionClassType)
	?HasSuperClass@CSenServiceSession@@UAEHW4TDescriptionClassType@MSenServiceDescription@@@Z @ 117 NONAME ; int CSenServiceSession::HasSuperClass(enum MSenServiceDescription::TDescriptionClassType)
	?HasSuperClass@CSenWSDescription@@UAEHW4TDescriptionClassType@MSenServiceDescription@@@Z @ 118 NONAME ; int CSenWSDescription::HasSuperClass(enum MSenServiceDescription::TDescriptionClassType)
	?HasSuperClass@CSenWSPattern@@UAEHW4TDescriptionClassType@MSenServiceDescription@@@Z @ 119 NONAME ; int CSenWSPattern::HasSuperClass(enum MSenServiceDescription::TDescriptionClassType)
	?HasSuperClass@CSenWebServiceSession@@UAEHW4TDescriptionClassType@MSenServiceDescription@@@Z @ 120 NONAME ; int CSenWebServiceSession::HasSuperClass(enum MSenServiceDescription::TDescriptionClassType)
	?HeaderBinaryDataL@SenMultiPartUtils@@SAXIAAV?$RArray@VTXmlEngDataContainer@@@@AAVRBuf8@@@Z @ 121 NONAME ; void SenMultiPartUtils::HeaderBinaryDataL(unsigned int, class RArray<class TXmlEngDataContainer> &, class RBuf8 &)
	?HeaderRootL@SenMultiPartUtils@@SAXPAVMSenMessage@@ABVRBuf8@@AAV3@@Z @ 122 NONAME ; void SenMultiPartUtils::HeaderRootL(class MSenMessage *, class RBuf8 const &, class RBuf8 &)
	?HeartbeatL@CSenLayeredTransportProperties@@UAEHAAH@Z @ 123 NONAME ; int CSenLayeredTransportProperties::HeartbeatL(int &)
	?Hostlet@CSenServiceSession@@UBEPAVMSenRemoteHostlet@@XZ @ 124 NONAME ; class MSenRemoteHostlet * CSenServiceSession::Hostlet(void) const
	?IAPDialogL@CSenLayeredTransportProperties@@UAEHAAH@Z @ 125 NONAME ; int CSenLayeredTransportProperties::IAPDialogL(int &)
	?IapIdL@CSenLayeredTransportProperties@@UAEHAAK@Z @ 126 NONAME ; int CSenLayeredTransportProperties::IapIdL(unsigned long &)
	?Id@CSenInternalServiceConsumer@@UBEABVTDesC8@@XZ @ 127 NONAME ; class TDesC8 const & CSenInternalServiceConsumer::Id(void) const
	?Identifier@CSenInternalServiceConsumer@@UBEAAVCSenIdentifier@@XZ @ 128 NONAME ; class CSenIdentifier & CSenInternalServiceConsumer::Identifier(void) const
	?InitFrom@CSaslMechanism@@UAEXV1@@Z @ 129 NONAME ; void CSaslMechanism::InitFrom(class CSaslMechanism)
	?InitializeFromL@CSenServiceSession@@UAEHAAVMSenServiceDescription@@@Z @ 130 NONAME ; int CSenServiceSession::InitializeFromL(class MSenServiceDescription &)
	?InitializeFromL@CSenWebServiceSession@@UAEHAAVMSenServiceDescription@@@Z @ 131 NONAME ; int CSenWebServiceSession::InitializeFromL(class MSenServiceDescription &)
	?IntPropertyL@CSenLayeredTransportProperties@@UAEHABVTDesC8@@AAH@Z @ 132 NONAME ; int CSenLayeredTransportProperties::IntPropertyL(class TDesC8 const &, int &)
	?IntPropertyL@CSenLayeredTransportProperties@@UAEHABVTDesC8@@AAHW4TSenPropertiesLayer@MSenLayeredProperties@@@Z @ 133 NONAME ; int CSenLayeredTransportProperties::IntPropertyL(class TDesC8 const &, int &, enum MSenLayeredProperties::TSenPropertiesLayer)
	?IsExpiredL@CSenWebServiceSession@@UAEHXZ @ 134 NONAME ; int CSenWebServiceSession::IsExpiredL(void)
	?IsLocalL@CSenWSDescription@@UAEHXZ @ 135 NONAME ; int CSenWSDescription::IsLocalL(void)
	?IsPasswordFromUser@CSaslMechanism@@UAEHXZ @ 136 NONAME ; int CSaslMechanism::IsPasswordFromUser(void)
	?IsReadyL@CSenInternalServiceConsumer@@UAEHXZ @ 137 NONAME ; int CSenInternalServiceConsumer::IsReadyL(void)
	?IsReadyL@CSenServiceSession@@UAEHXZ @ 138 NONAME ; int CSenServiceSession::IsReadyL(void)
	?IsReadyL@CSenWebServiceSession@@UAEHXZ @ 139 NONAME ; int CSenWebServiceSession::IsReadyL(void)
	?IsSafeToCast@CSenLayeredTransportProperties@@UAEHW4TSenPropertiesClassType@MSenProperties@@@Z @ 140 NONAME ; int CSenLayeredTransportProperties::IsSafeToCast(enum MSenProperties::TSenPropertiesClassType)
	?Log@CSenServiceSession@@IBEPAVRFileLogger@@XZ @ 141 NONAME ; class RFileLogger * CSenServiceSession::Log(void) const
	?Matches@CSenServiceSession@@UAEHAAVMSenServiceDescription@@@Z @ 142 NONAME ; int CSenServiceSession::Matches(class MSenServiceDescription &)
	?Matches@CSenWSPattern@@UAEHAAVMSenServiceDescription@@@Z @ 143 NONAME ; int CSenWSPattern::Matches(class MSenServiceDescription &)
	?MaxAttempts@CSaslMechanism@@UAEHXZ @ 144 NONAME ; int CSaslMechanism::MaxAttempts(void)
	?MaxTimeToLiveL@CSenLayeredTransportProperties@@UAEHAAH@Z @ 145 NONAME ; int CSenLayeredTransportProperties::MaxTimeToLiveL(int &)
	?MessageForSendingL@CSenWebServiceSession@@UAEHABVTDesC8@@0AAPAVCSenSoapMessage@@@Z @ 146 NONAME ; int CSenWebServiceSession::MessageForSendingL(class TDesC8 const &, class TDesC8 const &, class CSenSoapMessage * &)
	?MinTimeToLiveL@CSenLayeredTransportProperties@@UAEHAAH@Z @ 147 NONAME ; int CSenLayeredTransportProperties::MinTimeToLiveL(int &)
	?MwsNamespaceL@CSenLayeredTransportProperties@@UAEHAAVTPtrC8@@@Z @ 148 NONAME ; int CSenLayeredTransportProperties::MwsNamespaceL(class TPtrC8 &)
	?NewL@CSaslMechanism@@SAPAV1@XZ @ 149 NONAME ; class CSaslMechanism * CSaslMechanism::NewL(void)
	?NewL@CSenApplicationContext@@CAPAV1@VTSecureId@@AAVCSenServerContext@@@Z @ 150 NONAME ; class CSenApplicationContext * CSenApplicationContext::NewL(class TSecureId, class CSenServerContext &)
	?NewL@CSenClientContext@@CAPAV1@HAAVCSenApplicationContext@@@Z @ 151 NONAME ; class CSenClientContext * CSenClientContext::NewL(int, class CSenApplicationContext &)
	?NewL@CSenContext@@SAPAV1@W4TContextDirection@SenContext@@@Z @ 152 NONAME ; class CSenContext * CSenContext::NewL(enum SenContext::TContextDirection)
	?NewL@CSenContextItem@@SAPAV1@AAVCSenChunk@@@Z @ 153 NONAME ; class CSenContextItem * CSenContextItem::NewL(class CSenChunk &)
	?NewL@CSenContextItem@@SAPAV1@AAVCSenElement@@@Z @ 154 NONAME ; class CSenContextItem * CSenContextItem::NewL(class CSenElement &)
	?NewL@CSenContextItem@@SAPAV1@AAVCSenSoapMessage@@@Z @ 155 NONAME ; class CSenContextItem * CSenContextItem::NewL(class CSenSoapMessage &)
	?NewL@CSenContextItem@@SAPAV1@AAVCSenWSDescription@@@Z @ 156 NONAME ; class CSenContextItem * CSenContextItem::NewL(class CSenWSDescription &)
	?NewL@CSenContextItem@@SAPAV1@AAVCSenXmlReader@@@Z @ 157 NONAME ; class CSenContextItem * CSenContextItem::NewL(class CSenXmlReader &)
	?NewL@CSenContextItem@@SAPAV1@AAVMSenCoreServiceManager@@@Z @ 158 NONAME ; class CSenContextItem * CSenContextItem::NewL(class MSenCoreServiceManager &)
	?NewL@CSenContextItem@@SAPAV1@AAVMSenMessage@@@Z @ 159 NONAME ; class CSenContextItem * CSenContextItem::NewL(class MSenMessage &)
	?NewL@CSenContextItem@@SAPAV1@AAVMSenProperties@@@Z @ 160 NONAME ; class CSenContextItem * CSenContextItem::NewL(class MSenProperties &)
	?NewL@CSenContextItem@@SAPAV1@AAVMSenRemoteHostlet@@@Z @ 161 NONAME ; class CSenContextItem * CSenContextItem::NewL(class MSenRemoteHostlet &)
	?NewL@CSenContextItem@@SAPAV1@AAVMSenRemoteServiceConsumer@@@Z @ 162 NONAME ; class CSenContextItem * CSenContextItem::NewL(class MSenRemoteServiceConsumer &)
	?NewL@CSenContextItem@@SAPAV1@ABVTDesC8@@@Z @ 163 NONAME ; class CSenContextItem * CSenContextItem::NewL(class TDesC8 const &)
	?NewL@CSenContextItem@@SAPAV1@H@Z @ 164 NONAME ; class CSenContextItem * CSenContextItem::NewL(int)
	?NewL@CSenContextItem@@SAPAV1@I@Z @ 165 NONAME ; class CSenContextItem * CSenContextItem::NewL(unsigned int)
	?NewL@CSenContextItem@@SAPAV1@PAH@Z @ 166 NONAME ; class CSenContextItem * CSenContextItem::NewL(int *)
	?NewL@CSenContextItem@@SAPAV1@PAI@Z @ 167 NONAME ; class CSenContextItem * CSenContextItem::NewL(unsigned int *)
	?NewL@CSenContextItem@@SAPAV1@PAVCSenAtomEntry@@@Z @ 168 NONAME ; class CSenContextItem * CSenContextItem::NewL(class CSenAtomEntry *)
	?NewL@CSenContextItem@@SAPAV1@PAVCSenChunk@@@Z @ 169 NONAME ; class CSenContextItem * CSenContextItem::NewL(class CSenChunk *)
	?NewL@CSenContextItem@@SAPAV1@PAVCSenElement@@@Z @ 170 NONAME ; class CSenContextItem * CSenContextItem::NewL(class CSenElement *)
	?NewL@CSenContextItem@@SAPAV1@PAVCSenLayeredXmlProperties@@@Z @ 171 NONAME ; class CSenContextItem * CSenContextItem::NewL(class CSenLayeredXmlProperties *)
	?NewL@CSenContextItem@@SAPAV1@PAVCSenMessageBase@@@Z @ 172 NONAME ; class CSenContextItem * CSenContextItem::NewL(class CSenMessageBase *)
	?NewL@CSenContextItem@@SAPAV1@PAVCSenSoapEnvelope2@@@Z @ 173 NONAME ; class CSenContextItem * CSenContextItem::NewL(class CSenSoapEnvelope2 *)
	?NewL@CSenContextItem@@SAPAV1@PAVCSenSoapMessage@@@Z @ 174 NONAME ; class CSenContextItem * CSenContextItem::NewL(class CSenSoapMessage *)
	?NewL@CSenContextItem@@SAPAV1@PAVCSenWSDescription@@@Z @ 175 NONAME ; class CSenContextItem * CSenContextItem::NewL(class CSenWSDescription *)
	?NewL@CSenContextItem@@SAPAV1@PAVCSenXmlProperties@@@Z @ 176 NONAME ; class CSenContextItem * CSenContextItem::NewL(class CSenXmlProperties *)
	?NewL@CSenContextItem@@SAPAV1@PAVCSenXmlReader@@@Z @ 177 NONAME ; class CSenContextItem * CSenContextItem::NewL(class CSenXmlReader *)
	?NewL@CSenContextItem@@SAPAV1@PAVTDesC8@@@Z @ 178 NONAME ; class CSenContextItem * CSenContextItem::NewL(class TDesC8 *)
	?NewL@CSenContextItem@@SAPAV1@PAX@Z @ 179 NONAME ; class CSenContextItem * CSenContextItem::NewL(void *)
	?NewL@CSenLayeredHttpTransportProperties@@SAPAV1@AAVRStringPool@@@Z @ 180 NONAME ; class CSenLayeredHttpTransportProperties * CSenLayeredHttpTransportProperties::NewL(class RStringPool &)
	?NewL@CSenLayeredHttpTransportProperties@@SAPAV1@ABVCSenElement@@@Z @ 181 NONAME ; class CSenLayeredHttpTransportProperties * CSenLayeredHttpTransportProperties::NewL(class CSenElement const &)
	?NewL@CSenLayeredHttpTransportProperties@@SAPAV1@ABVCSenElement@@AAVRStringPool@@@Z @ 182 NONAME ; class CSenLayeredHttpTransportProperties * CSenLayeredHttpTransportProperties::NewL(class CSenElement const &, class RStringPool &)
	?NewL@CSenLayeredHttpTransportProperties@@SAPAV1@ABVTDesC8@@AAVCSenXmlReader@@@Z @ 183 NONAME ; class CSenLayeredHttpTransportProperties * CSenLayeredHttpTransportProperties::NewL(class TDesC8 const &, class CSenXmlReader &)
	?NewL@CSenLayeredHttpTransportProperties@@SAPAV1@ABVTDesC8@@AAVCSenXmlReader@@AAVRStringPool@@@Z @ 184 NONAME ; class CSenLayeredHttpTransportProperties * CSenLayeredHttpTransportProperties::NewL(class TDesC8 const &, class CSenXmlReader &, class RStringPool &)
	?NewL@CSenLayeredHttpTransportProperties@@SAPAV1@XZ @ 185 NONAME ; class CSenLayeredHttpTransportProperties * CSenLayeredHttpTransportProperties::NewL(void)
	?NewL@CSenLayeredTransportProperties@@SAPAV1@AAVRStringPool@@@Z @ 186 NONAME ; class CSenLayeredTransportProperties * CSenLayeredTransportProperties::NewL(class RStringPool &)
	?NewL@CSenLayeredTransportProperties@@SAPAV1@ABVCSenElement@@@Z @ 187 NONAME ; class CSenLayeredTransportProperties * CSenLayeredTransportProperties::NewL(class CSenElement const &)
	?NewL@CSenLayeredTransportProperties@@SAPAV1@ABVCSenElement@@AAVRStringPool@@@Z @ 188 NONAME ; class CSenLayeredTransportProperties * CSenLayeredTransportProperties::NewL(class CSenElement const &, class RStringPool &)
	?NewL@CSenLayeredTransportProperties@@SAPAV1@ABVTDesC8@@AAVCSenXmlReader@@@Z @ 189 NONAME ; class CSenLayeredTransportProperties * CSenLayeredTransportProperties::NewL(class TDesC8 const &, class CSenXmlReader &)
	?NewL@CSenLayeredTransportProperties@@SAPAV1@ABVTDesC8@@AAVCSenXmlReader@@AAVRStringPool@@@Z @ 190 NONAME ; class CSenLayeredTransportProperties * CSenLayeredTransportProperties::NewL(class TDesC8 const &, class CSenXmlReader &, class RStringPool &)
	?NewL@CSenLayeredTransportProperties@@SAPAV1@XZ @ 191 NONAME ; class CSenLayeredTransportProperties * CSenLayeredTransportProperties::NewL(void)
	?NewL@CSenLayeredVtcpTransportProperties@@SAPAV1@ABVCSenElement@@@Z @ 192 NONAME ; class CSenLayeredVtcpTransportProperties * CSenLayeredVtcpTransportProperties::NewL(class CSenElement const &)
	?NewL@CSenLayeredVtcpTransportProperties@@SAPAV1@XZ @ 193 NONAME ; class CSenLayeredVtcpTransportProperties * CSenLayeredVtcpTransportProperties::NewL(void)
	?NewL@CSenMessageContext@@SAPAV1@W4TContextDirection@SenContext@@PAVMSenProperties@@@Z @ 194 NONAME ; class CSenMessageContext * CSenMessageContext::NewL(enum SenContext::TContextDirection, class MSenProperties *)
	?NewL@CSenServerContext@@SAPAV1@AAVMSenCoreServiceManager@@@Z @ 195 NONAME ; class CSenServerContext * CSenServerContext::NewL(class MSenCoreServiceManager &)
	?NewL@CSenSessionContext@@SAPAV1@XZ @ 196 NONAME ; class CSenSessionContext * CSenSessionContext::NewL(void)
	?NewL@CSenSyncRequester@@SAPAV1@AAVMSenTransport@@AAVMSenCoreServiceManager@@@Z @ 197 NONAME ; class CSenSyncRequester * CSenSyncRequester::NewL(class MSenTransport &, class MSenCoreServiceManager &)
	?NewL@CSenTransportContext@@SAPAV1@AAVMSenCoreServiceManager@@AAVCSenWSDescription@@@Z @ 198 NONAME ; class CSenTransportContext * CSenTransportContext::NewL(class MSenCoreServiceManager &, class CSenWSDescription &)
	?NewL@CSenTransportContext@@SAPAV1@AAVMSenCoreServiceManager@@AAVCSenWSDescription@@AAVCSenServiceSession@@@Z @ 199 NONAME ; class CSenTransportContext * CSenTransportContext::NewL(class MSenCoreServiceManager &, class CSenWSDescription &, class CSenServiceSession &)
	?NewL@CSenWSDescription@@SAPAV1@ABVTDesC8@@0@Z @ 200 NONAME ; class CSenWSDescription * CSenWSDescription::NewL(class TDesC8 const &, class TDesC8 const &)
	?NewL@CSenWSDescription@@SAPAV1@ABVTDesC8@@@Z @ 201 NONAME ; class CSenWSDescription * CSenWSDescription::NewL(class TDesC8 const &)
	?NewL@CSenWSDescription@@SAPAV1@XZ @ 202 NONAME ; class CSenWSDescription * CSenWSDescription::NewL(void)
	?NewL@CSenWSPattern@@SAPAV1@ABVTDesC8@@0@Z @ 203 NONAME ; class CSenWSPattern * CSenWSPattern::NewL(class TDesC8 const &, class TDesC8 const &)
	?NewL@CSenWSPattern@@SAPAV1@ABVTDesC8@@@Z @ 204 NONAME ; class CSenWSPattern * CSenWSPattern::NewL(class TDesC8 const &)
	?NewL@CSenWSPattern@@SAPAV1@XZ @ 205 NONAME ; class CSenWSPattern * CSenWSPattern::NewL(void)
	?NewLC@CSaslMechanism@@SAPAV1@XZ @ 206 NONAME ; class CSaslMechanism * CSaslMechanism::NewLC(void)
	?NewLC@CSenApplicationContext@@CAPAV1@VTSecureId@@AAVCSenServerContext@@@Z @ 207 NONAME ; class CSenApplicationContext * CSenApplicationContext::NewLC(class TSecureId, class CSenServerContext &)
	?NewLC@CSenClientContext@@CAPAV1@HAAVCSenApplicationContext@@@Z @ 208 NONAME ; class CSenClientContext * CSenClientContext::NewLC(int, class CSenApplicationContext &)
	?NewLC@CSenContext@@SAPAV1@W4TContextDirection@SenContext@@@Z @ 209 NONAME ; class CSenContext * CSenContext::NewLC(enum SenContext::TContextDirection)
	?NewLC@CSenContextItem@@SAPAV1@AAVCSenChunk@@@Z @ 210 NONAME ; class CSenContextItem * CSenContextItem::NewLC(class CSenChunk &)
	?NewLC@CSenContextItem@@SAPAV1@AAVCSenElement@@@Z @ 211 NONAME ; class CSenContextItem * CSenContextItem::NewLC(class CSenElement &)
	?NewLC@CSenContextItem@@SAPAV1@AAVCSenSoapMessage@@@Z @ 212 NONAME ; class CSenContextItem * CSenContextItem::NewLC(class CSenSoapMessage &)
	?NewLC@CSenContextItem@@SAPAV1@AAVCSenWSDescription@@@Z @ 213 NONAME ; class CSenContextItem * CSenContextItem::NewLC(class CSenWSDescription &)
	?NewLC@CSenContextItem@@SAPAV1@AAVCSenXmlReader@@@Z @ 214 NONAME ; class CSenContextItem * CSenContextItem::NewLC(class CSenXmlReader &)
	?NewLC@CSenContextItem@@SAPAV1@AAVMSenCoreServiceManager@@@Z @ 215 NONAME ; class CSenContextItem * CSenContextItem::NewLC(class MSenCoreServiceManager &)
	?NewLC@CSenContextItem@@SAPAV1@AAVMSenMessage@@@Z @ 216 NONAME ; class CSenContextItem * CSenContextItem::NewLC(class MSenMessage &)
	?NewLC@CSenContextItem@@SAPAV1@AAVMSenProperties@@@Z @ 217 NONAME ; class CSenContextItem * CSenContextItem::NewLC(class MSenProperties &)
	?NewLC@CSenContextItem@@SAPAV1@AAVMSenRemoteHostlet@@@Z @ 218 NONAME ; class CSenContextItem * CSenContextItem::NewLC(class MSenRemoteHostlet &)
	?NewLC@CSenContextItem@@SAPAV1@AAVMSenRemoteServiceConsumer@@@Z @ 219 NONAME ; class CSenContextItem * CSenContextItem::NewLC(class MSenRemoteServiceConsumer &)
	?NewLC@CSenContextItem@@SAPAV1@ABVTDesC8@@@Z @ 220 NONAME ; class CSenContextItem * CSenContextItem::NewLC(class TDesC8 const &)
	?NewLC@CSenContextItem@@SAPAV1@H@Z @ 221 NONAME ; class CSenContextItem * CSenContextItem::NewLC(int)
	?NewLC@CSenContextItem@@SAPAV1@I@Z @ 222 NONAME ; class CSenContextItem * CSenContextItem::NewLC(unsigned int)
	?NewLC@CSenContextItem@@SAPAV1@PAH@Z @ 223 NONAME ; class CSenContextItem * CSenContextItem::NewLC(int *)
	?NewLC@CSenContextItem@@SAPAV1@PAI@Z @ 224 NONAME ; class CSenContextItem * CSenContextItem::NewLC(unsigned int *)
	?NewLC@CSenContextItem@@SAPAV1@PAVCSenAtomEntry@@@Z @ 225 NONAME ; class CSenContextItem * CSenContextItem::NewLC(class CSenAtomEntry *)
	?NewLC@CSenContextItem@@SAPAV1@PAVCSenChunk@@@Z @ 226 NONAME ; class CSenContextItem * CSenContextItem::NewLC(class CSenChunk *)
	?NewLC@CSenContextItem@@SAPAV1@PAVCSenElement@@@Z @ 227 NONAME ; class CSenContextItem * CSenContextItem::NewLC(class CSenElement *)
	?NewLC@CSenContextItem@@SAPAV1@PAVCSenLayeredXmlProperties@@@Z @ 228 NONAME ; class CSenContextItem * CSenContextItem::NewLC(class CSenLayeredXmlProperties *)
	?NewLC@CSenContextItem@@SAPAV1@PAVCSenMessageBase@@@Z @ 229 NONAME ; class CSenContextItem * CSenContextItem::NewLC(class CSenMessageBase *)
	?NewLC@CSenContextItem@@SAPAV1@PAVCSenSoapEnvelope2@@@Z @ 230 NONAME ; class CSenContextItem * CSenContextItem::NewLC(class CSenSoapEnvelope2 *)
	?NewLC@CSenContextItem@@SAPAV1@PAVCSenSoapMessage@@@Z @ 231 NONAME ; class CSenContextItem * CSenContextItem::NewLC(class CSenSoapMessage *)
	?NewLC@CSenContextItem@@SAPAV1@PAVCSenWSDescription@@@Z @ 232 NONAME ; class CSenContextItem * CSenContextItem::NewLC(class CSenWSDescription *)
	?NewLC@CSenContextItem@@SAPAV1@PAVCSenXmlProperties@@@Z @ 233 NONAME ; class CSenContextItem * CSenContextItem::NewLC(class CSenXmlProperties *)
	?NewLC@CSenContextItem@@SAPAV1@PAVCSenXmlReader@@@Z @ 234 NONAME ; class CSenContextItem * CSenContextItem::NewLC(class CSenXmlReader *)
	?NewLC@CSenContextItem@@SAPAV1@PAVTDesC8@@@Z @ 235 NONAME ; class CSenContextItem * CSenContextItem::NewLC(class TDesC8 *)
	?NewLC@CSenContextItem@@SAPAV1@PAX@Z @ 236 NONAME ; class CSenContextItem * CSenContextItem::NewLC(void *)
	?NewLC@CSenLayeredHttpTransportProperties@@SAPAV1@AAVRStringPool@@@Z @ 237 NONAME ; class CSenLayeredHttpTransportProperties * CSenLayeredHttpTransportProperties::NewLC(class RStringPool &)
	?NewLC@CSenLayeredHttpTransportProperties@@SAPAV1@ABVCSenElement@@@Z @ 238 NONAME ; class CSenLayeredHttpTransportProperties * CSenLayeredHttpTransportProperties::NewLC(class CSenElement const &)
	?NewLC@CSenLayeredHttpTransportProperties@@SAPAV1@ABVCSenElement@@AAVRStringPool@@@Z @ 239 NONAME ; class CSenLayeredHttpTransportProperties * CSenLayeredHttpTransportProperties::NewLC(class CSenElement const &, class RStringPool &)
	?NewLC@CSenLayeredHttpTransportProperties@@SAPAV1@ABVTDesC8@@AAVCSenXmlReader@@@Z @ 240 NONAME ; class CSenLayeredHttpTransportProperties * CSenLayeredHttpTransportProperties::NewLC(class TDesC8 const &, class CSenXmlReader &)
	?NewLC@CSenLayeredHttpTransportProperties@@SAPAV1@ABVTDesC8@@AAVCSenXmlReader@@AAVRStringPool@@@Z @ 241 NONAME ; class CSenLayeredHttpTransportProperties * CSenLayeredHttpTransportProperties::NewLC(class TDesC8 const &, class CSenXmlReader &, class RStringPool &)
	?NewLC@CSenLayeredHttpTransportProperties@@SAPAV1@XZ @ 242 NONAME ; class CSenLayeredHttpTransportProperties * CSenLayeredHttpTransportProperties::NewLC(void)
	?NewLC@CSenLayeredTransportProperties@@SAPAV1@AAVRStringPool@@@Z @ 243 NONAME ; class CSenLayeredTransportProperties * CSenLayeredTransportProperties::NewLC(class RStringPool &)
	?NewLC@CSenLayeredTransportProperties@@SAPAV1@ABVCSenElement@@@Z @ 244 NONAME ; class CSenLayeredTransportProperties * CSenLayeredTransportProperties::NewLC(class CSenElement const &)
	?NewLC@CSenLayeredTransportProperties@@SAPAV1@ABVCSenElement@@AAVRStringPool@@@Z @ 245 NONAME ; class CSenLayeredTransportProperties * CSenLayeredTransportProperties::NewLC(class CSenElement const &, class RStringPool &)
	?NewLC@CSenLayeredTransportProperties@@SAPAV1@ABVTDesC8@@AAVCSenXmlReader@@@Z @ 246 NONAME ; class CSenLayeredTransportProperties * CSenLayeredTransportProperties::NewLC(class TDesC8 const &, class CSenXmlReader &)
	?NewLC@CSenLayeredTransportProperties@@SAPAV1@ABVTDesC8@@AAVCSenXmlReader@@AAVRStringPool@@@Z @ 247 NONAME ; class CSenLayeredTransportProperties * CSenLayeredTransportProperties::NewLC(class TDesC8 const &, class CSenXmlReader &, class RStringPool &)
	?NewLC@CSenLayeredTransportProperties@@SAPAV1@XZ @ 248 NONAME ; class CSenLayeredTransportProperties * CSenLayeredTransportProperties::NewLC(void)
	?NewLC@CSenLayeredVtcpTransportProperties@@SAPAV1@ABVCSenElement@@@Z @ 249 NONAME ; class CSenLayeredVtcpTransportProperties * CSenLayeredVtcpTransportProperties::NewLC(class CSenElement const &)
	?NewLC@CSenLayeredVtcpTransportProperties@@SAPAV1@XZ @ 250 NONAME ; class CSenLayeredVtcpTransportProperties * CSenLayeredVtcpTransportProperties::NewLC(void)
	?NewLC@CSenMessageContext@@SAPAV1@W4TContextDirection@SenContext@@PAVMSenProperties@@@Z @ 251 NONAME ; class CSenMessageContext * CSenMessageContext::NewLC(enum SenContext::TContextDirection, class MSenProperties *)
	?NewLC@CSenServerContext@@SAPAV1@AAVMSenCoreServiceManager@@@Z @ 252 NONAME ; class CSenServerContext * CSenServerContext::NewLC(class MSenCoreServiceManager &)
	?NewLC@CSenSessionContext@@SAPAV1@XZ @ 253 NONAME ; class CSenSessionContext * CSenSessionContext::NewLC(void)
	?NewLC@CSenSyncRequester@@SAPAV1@AAVMSenTransport@@AAVMSenCoreServiceManager@@@Z @ 254 NONAME ; class CSenSyncRequester * CSenSyncRequester::NewLC(class MSenTransport &, class MSenCoreServiceManager &)
	?NewLC@CSenTransportContext@@SAPAV1@AAVMSenCoreServiceManager@@AAVCSenWSDescription@@@Z @ 255 NONAME ; class CSenTransportContext * CSenTransportContext::NewLC(class MSenCoreServiceManager &, class CSenWSDescription &)
	?NewLC@CSenTransportContext@@SAPAV1@AAVMSenCoreServiceManager@@AAVCSenWSDescription@@AAVCSenServiceSession@@@Z @ 256 NONAME ; class CSenTransportContext * CSenTransportContext::NewLC(class MSenCoreServiceManager &, class CSenWSDescription &, class CSenServiceSession &)
	?NewLC@CSenWSDescription@@SAPAV1@ABVTDesC8@@0@Z @ 257 NONAME ; class CSenWSDescription * CSenWSDescription::NewLC(class TDesC8 const &, class TDesC8 const &)
	?NewLC@CSenWSDescription@@SAPAV1@ABVTDesC8@@@Z @ 258 NONAME ; class CSenWSDescription * CSenWSDescription::NewLC(class TDesC8 const &)
	?NewLC@CSenWSDescription@@SAPAV1@XZ @ 259 NONAME ; class CSenWSDescription * CSenWSDescription::NewLC(void)
	?NewLC@CSenWSPattern@@SAPAV1@ABVTDesC8@@0@Z @ 260 NONAME ; class CSenWSPattern * CSenWSPattern::NewLC(class TDesC8 const &, class TDesC8 const &)
	?NewLC@CSenWSPattern@@SAPAV1@ABVTDesC8@@@Z @ 261 NONAME ; class CSenWSPattern * CSenWSPattern::NewLC(class TDesC8 const &)
	?NewLC@CSenWSPattern@@SAPAV1@XZ @ 262 NONAME ; class CSenWSPattern * CSenWSPattern::NewLC(void)
	?NewMessageL@CSenWebServiceSession@@UAEHAAPAVCSenSoapMessage@@@Z @ 263 NONAME ; int CSenWebServiceSession::NewMessageL(class CSenSoapMessage * &)
	?ParseMessageL@CSenWebServiceSession@@UAEHAAVCSenSoapMessage@@@Z @ 264 NONAME ; int CSenWebServiceSession::ParseMessageL(class CSenSoapMessage &)
	?ParseResponseL@CSenServiceSession@@UAEHABVTDesC8@@AAPAVHBufC8@@@Z @ 265 NONAME ; int CSenServiceSession::ParseResponseL(class TDesC8 const &, class HBufC8 * &)
	?ParseResponseL@CSenWebServiceSession@@UAEHABVTDesC8@@AAPAVCSenSoapMessage@@@Z @ 266 NONAME ; int CSenWebServiceSession::ParseResponseL(class TDesC8 const &, class CSenSoapMessage * &)
	?ParseResponseL@CSenWebServiceSession@@UAEHABVTDesC8@@AAPAVHBufC8@@@Z @ 267 NONAME ; int CSenWebServiceSession::ParseResponseL(class TDesC8 const &, class HBufC8 * &)
	?Password8L@CSaslMechanism@@UAEPAVHBufC8@@XZ @ 268 NONAME ; class HBufC8 * CSaslMechanism::Password8L(void)
	?ProcessHandlerContextL@CSenHandlerBase@@MAEXAAVMSenHandlerContext@@@Z @ 269 NONAME ; void CSenHandlerBase::ProcessHandlerContextL(class MSenHandlerContext &)
	?PropertiesByTypeL@CSenLayeredTransportProperties@@UAEHABVTDesC8@@AAV?$RPointerArray@VMSenProperty@@@@@Z @ 270 NONAME ; int CSenLayeredTransportProperties::PropertiesByTypeL(class TDesC8 const &, class RPointerArray<class MSenProperty> &)
	?PropertiesClassType@CSenLayeredTransportProperties@@UAE?AW4TSenPropertiesClassType@MSenProperties@@XZ @ 271 NONAME ; enum MSenProperties::TSenPropertiesClassType CSenLayeredTransportProperties::PropertiesClassType(void)
	?PropertyL@CSenLayeredTransportProperties@@UAEHABVTDesC8@@AAPAVMSenProperty@@@Z @ 272 NONAME ; int CSenLayeredTransportProperties::PropertyL(class TDesC8 const &, class MSenProperty * &)
	?PropertyL@CSenLayeredTransportProperties@@UAEHABVTDesC8@@AAPAVMSenProperty@@W4TSenPropertiesLayer@MSenLayeredProperties@@@Z @ 273 NONAME ; int CSenLayeredTransportProperties::PropertyL(class TDesC8 const &, class MSenProperty * &, enum MSenLayeredProperties::TSenPropertiesLayer)
	?PropertyL@CSenLayeredTransportProperties@@UAEHABVTDesC8@@AAVTPtrC8@@1@Z @ 274 NONAME ; int CSenLayeredTransportProperties::PropertyL(class TDesC8 const &, class TPtrC8 &, class TPtrC8 &)
	?PropertyL@CSenLayeredTransportProperties@@UAEHABVTDesC8@@AAVTPtrC8@@@Z @ 275 NONAME ; int CSenLayeredTransportProperties::PropertyL(class TDesC8 const &, class TPtrC8 &)
	?PropertyL@CSenLayeredTransportProperties@@UAEHABVTDesC8@@AAVTPtrC8@@W4TSenPropertiesLayer@MSenLayeredProperties@@@Z @ 276 NONAME ; int CSenLayeredTransportProperties::PropertyL(class TDesC8 const &, class TPtrC8 &, enum MSenLayeredProperties::TSenPropertiesLayer)
	?ProvideHostletResponseL@CSenServiceSession@@UAEHAAVMSenRemoteHostlet@@HHABVTDesC8@@AAVCSenChunk@@@Z @ 277 NONAME ; int CSenServiceSession::ProvideHostletResponseL(class MSenRemoteHostlet &, int, int, class TDesC8 const &, class CSenChunk &)
	?ProvideHostletResponseL@CSenWebServiceSession@@UAEHAAVMSenRemoteHostlet@@HHABVTDesC8@@AAVCSenChunk@@@Z @ 278 NONAME ; int CSenWebServiceSession::ProvideHostletResponseL(class MSenRemoteHostlet &, int, int, class TDesC8 const &, class CSenChunk &)
	?ProxyHostL@CSenLayeredTransportProperties@@UAEHAAVTPtrC8@@@Z @ 279 NONAME ; int CSenLayeredTransportProperties::ProxyHostL(class TPtrC8 &)
	?ProxyPortL@CSenLayeredTransportProperties@@UAEHAAH@Z @ 280 NONAME ; int CSenLayeredTransportProperties::ProxyPortL(int &)
	?ProxyUsageL@CSenLayeredTransportProperties@@UAEHAAH@Z @ 281 NONAME ; int CSenLayeredTransportProperties::ProxyUsageL(int &)
	?ReadFromL@CSenLayeredTransportProperties@@UAEXABVTDesC8@@@Z @ 282 NONAME ; void CSenLayeredTransportProperties::ReadFromL(class TDesC8 const &)
	?ReadFromL@CSenLayeredTransportProperties@@UAEXABVTDesC8@@W4TSenPropertiesLayer@MSenLayeredProperties@@@Z @ 283 NONAME ; void CSenLayeredTransportProperties::ReadFromL(class TDesC8 const &, enum MSenLayeredProperties::TSenPropertiesLayer)
	?RebuildFromConsumerPolicy@CSenWSPattern@@UAEHAAVMSenConsumerPolicy@@@Z @ 284 NONAME ; int CSenWSPattern::RebuildFromConsumerPolicy(class MSenConsumerPolicy &)
	?RefreshMTL@CSenServiceSession@@UAEHAAPAVHBufC8@@@Z @ 285 NONAME ; int CSenServiceSession::RefreshMTL(class HBufC8 * &)
	?RemoteConsumerL@CSenServiceSession@@UAEPAVMSenRemoteServiceConsumer@@ABVTDesC8@@@Z @ 286 NONAME ; class MSenRemoteServiceConsumer * CSenServiceSession::RemoteConsumerL(class TDesC8 const &)
	?RemoveConsumerL@CSenServiceSession@@UAEHAAVMSenRemoteServiceConsumer@@@Z @ 287 NONAME ; int CSenServiceSession::RemoveConsumerL(class MSenRemoteServiceConsumer &)
	?RemoveFacet@CSenServiceSession@@UAEHABVTDesC8@@@Z @ 288 NONAME ; int CSenServiceSession::RemoveFacet(class TDesC8 const &)
	?SaveL@CSenServiceSession@@UAEXXZ @ 289 NONAME ; void CSenServiceSession::SaveL(void)
	?ScoreMatchL@CSenServiceSession@@UAEHAAVMSenServiceDescription@@@Z @ 290 NONAME ; int CSenServiceSession::ScoreMatchL(class MSenServiceDescription &)
	?SecurityL@CSenWebServiceSession@@IAEPAVHBufC8@@XZ @ 291 NONAME ; class HBufC8 * CSenWebServiceSession::SecurityL(void)
	?SendErrorToConsumerL@CSenWebServiceSession@@UAEHHPAVHBufC8@@HAAVMSenRemoteServiceConsumer@@PAVMSenProperties@@@Z @ 292 NONAME ; int CSenWebServiceSession::SendErrorToConsumerL(int, class HBufC8 *, int, class MSenRemoteServiceConsumer &, class MSenProperties *)
	?SendL@CSenServiceSession@@UAEHABVTDesC8@@0AAVMSenRemoteServiceConsumer@@AAHAAPAVHBufC8@@@Z @ 293 NONAME ; int CSenServiceSession::SendL(class TDesC8 const &, class TDesC8 const &, class MSenRemoteServiceConsumer &, int &, class HBufC8 * &)
	?SendL@CSenWebServiceSession@@UAEHABVTDesC8@@0AAVMSenRemoteServiceConsumer@@AAHAAPAVHBufC8@@@Z @ 294 NONAME ; int CSenWebServiceSession::SendL(class TDesC8 const &, class TDesC8 const &, class MSenRemoteServiceConsumer &, int &, class HBufC8 * &)
	?SendSoapL@CSenWebServiceSession@@UAEHABVTDesC8@@0AAVMSenRemoteServiceConsumer@@AAHAAPAVHBufC8@@@Z @ 295 NONAME ; int CSenWebServiceSession::SendSoapL(class TDesC8 const &, class TDesC8 const &, class MSenRemoteServiceConsumer &, int &, class HBufC8 * &)
	?SendSoapMessageToConsumerL@CSenWebServiceSession@@UAEHPAVCSenSoapMessage@@HAAVMSenRemoteServiceConsumer@@PAVMSenProperties@@@Z @ 296 NONAME ; int CSenWebServiceSession::SendSoapMessageToConsumerL(class CSenSoapMessage *, int, class MSenRemoteServiceConsumer &, class MSenProperties *)
	?SendToConsumerL@CSenWebServiceSession@@UAEHPAVHBufC8@@HAAVMSenRemoteServiceConsumer@@PAVMSenProperties@@@Z @ 297 NONAME ; int CSenWebServiceSession::SendToConsumerL(class HBufC8 *, int, class MSenRemoteServiceConsumer &, class MSenProperties *)
	?SendToHostletL@CSenServiceSession@@UAEHAAVMSenRemoteHostlet@@ABVTDesC8@@HAAVMSenRemoteServiceConsumer@@PAVMSenProperties@@@Z @ 298 NONAME ; int CSenServiceSession::SendToHostletL(class MSenRemoteHostlet &, class TDesC8 const &, int, class MSenRemoteServiceConsumer &, class MSenProperties *)
	?SendToHostletL@CSenWebServiceSession@@UAEHAAVMSenRemoteHostlet@@ABVTDesC8@@HAAVMSenRemoteServiceConsumer@@PAVMSenProperties@@@Z @ 299 NONAME ; int CSenWebServiceSession::SendToHostletL(class MSenRemoteHostlet &, class TDesC8 const &, int, class MSenRemoteServiceConsumer &, class MSenProperties *)
	?SerializeMessageL@SenMultiPartUtils@@SAXAAVCSenFragmentBase@@AAVRBuf8@@W4TXmlEngSerializerType@@@Z @ 300 NONAME ; void SenMultiPartUtils::SerializeMessageL(class CSenFragmentBase &, class RBuf8 &, enum TXmlEngSerializerType)
	?ServicePolicy@CSenWSDescription@@UAEPAVMSenServicePolicy@@XZ @ 301 NONAME ; class MSenServicePolicy * CSenWSDescription::ServicePolicy(void)
	?SetBoolPropertyL@CSenLayeredTransportProperties@@UAEHABVTDesC8@@H@Z @ 302 NONAME ; int CSenLayeredTransportProperties::SetBoolPropertyL(class TDesC8 const &, int)
	?SetBoolPropertyL@CSenLayeredTransportProperties@@UAEHABVTDesC8@@HW4TSenPropertiesLayer@MSenLayeredProperties@@@Z @ 303 NONAME ; int CSenLayeredTransportProperties::SetBoolPropertyL(class TDesC8 const &, int, enum MSenLayeredProperties::TSenPropertiesLayer)
	?SetClientServerIntervalL@CSenWebServiceSession@@UAEXVTTimeIntervalMicroSeconds@@@Z @ 304 NONAME ; void CSenWebServiceSession::SetClientServerIntervalL(class TTimeIntervalMicroSeconds)
	?SetConsumerIapIdL@CSenWSPattern@@UAEXK@Z @ 305 NONAME ; void CSenWSPattern::SetConsumerIapIdL(unsigned long)
	?SetConsumerIdentityProviderIdsL@CSenWSPattern@@UAEXAAVCSenIdentityProviderIdArray8@@@Z @ 306 NONAME ; void CSenWSPattern::SetConsumerIdentityProviderIdsL(class CSenIdentityProviderIdArray8 &)
	?SetContractL@CSenWebServiceSession@@UAEXABVTDesC8@@@Z @ 307 NONAME ; void CSenWebServiceSession::SetContractL(class TDesC8 const &)
	?SetCredentialPtrL@CSenWebServiceSession@@UAEXVRSenCredentialPtr@@@Z @ 308 NONAME ; void CSenWebServiceSession::SetCredentialPtrL(class RSenCredentialPtr)
	?SetEndPointL@CSenWebServiceSession@@UAEXABVTDesC8@@@Z @ 309 NONAME ; void CSenWebServiceSession::SetEndPointL(class TDesC8 const &)
	?SetFacetL@CSenServiceSession@@UAEHABVCSenFacet@@@Z @ 310 NONAME ; int CSenServiceSession::SetFacetL(class CSenFacet const &)
	?SetFileL@SenMultiPartUtils@@SAHIHAAVTDesC8@@AAV?$RArray@VRBuf8@@@@@Z @ 311 NONAME ; int SenMultiPartUtils::SetFileL(unsigned int, int, class TDesC8 &, class RArray<class RBuf8> &)
	?SetFrameworkHeadersL@CSenWebServiceSession@@UAEXAAVCSenSoapMessage@@@Z @ 312 NONAME ; void CSenWebServiceSession::SetFrameworkHeadersL(class CSenSoapMessage &)
	?SetHostletL@CSenServiceSession@@UAEHPAVMSenRemoteHostlet@@@Z @ 313 NONAME ; int CSenServiceSession::SetHostletL(class MSenRemoteHostlet *)
	?SetIdentity@CSaslMechanism@@UAEXPAVCSenIdentityProvider@@PAVMSenIdentityManager@@@Z @ 314 NONAME ; void CSaslMechanism::SetIdentity(class CSenIdentityProvider *, class MSenIdentityManager *)
	?SetIntPropertyL@CSenLayeredTransportProperties@@UAEHABVTDesC8@@H@Z @ 315 NONAME ; int CSenLayeredTransportProperties::SetIntPropertyL(class TDesC8 const &, int)
	?SetIntPropertyL@CSenLayeredTransportProperties@@UAEHABVTDesC8@@HW4TSenPropertiesLayer@MSenLayeredProperties@@@Z @ 316 NONAME ; int CSenLayeredTransportProperties::SetIntPropertyL(class TDesC8 const &, int, enum MSenLayeredProperties::TSenPropertiesLayer)
	?SetPolicyL@CSenWSDescription@@UAEHABVTDesC8@@000@Z @ 317 NONAME ; int CSenWSDescription::SetPolicyL(class TDesC8 const &, class TDesC8 const &, class TDesC8 const &, class TDesC8 const &)
	?SetPolicyL@CSenWSDescription@@UAEHABVTDesC8@@0@Z @ 318 NONAME ; int CSenWSDescription::SetPolicyL(class TDesC8 const &, class TDesC8 const &)
	?SetPolicyL@CSenWSDescription@@UAEHABVTDesC8@@@Z @ 319 NONAME ; int CSenWSDescription::SetPolicyL(class TDesC8 const &)
	?SetPropertyL@CSenLayeredTransportProperties@@UAEHABVTDesC8@@00@Z @ 320 NONAME ; int CSenLayeredTransportProperties::SetPropertyL(class TDesC8 const &, class TDesC8 const &, class TDesC8 const &)
	?SetPropertyL@CSenLayeredTransportProperties@@UAEHABVTDesC8@@0@Z @ 321 NONAME ; int CSenLayeredTransportProperties::SetPropertyL(class TDesC8 const &, class TDesC8 const &)
	?SetPropertyL@CSenLayeredTransportProperties@@UAEHABVTDesC8@@0W4TSenPropertiesLayer@MSenLayeredProperties@@@Z @ 322 NONAME ; int CSenLayeredTransportProperties::SetPropertyL(class TDesC8 const &, class TDesC8 const &, enum MSenLayeredProperties::TSenPropertiesLayer)
	?SetProviderIdL@CSenWSDescription@@UAEHABVTDesC8@@@Z @ 323 NONAME ; int CSenWSDescription::SetProviderIdL(class TDesC8 const &)
	?SetReader@CSenLayeredTransportProperties@@UAEXAAVCSenXmlReader@@@Z @ 324 NONAME ; void CSenLayeredTransportProperties::SetReader(class CSenXmlReader &)
	?SetSecurityL@CSenWebServiceSession@@UAEXABVTDesC8@@@Z @ 325 NONAME ; void CSenWebServiceSession::SetSecurityL(class TDesC8 const &)
	?SetSessionL@CSenInternalServiceConsumer@@UAEHAAVMSenRemoteServiceSession@@@Z @ 326 NONAME ; int CSenInternalServiceConsumer::SetSessionL(class MSenRemoteServiceSession &)
	?SetStatusL@CSenInternalServiceConsumer@@UAEXH@Z @ 327 NONAME ; void CSenInternalServiceConsumer::SetStatusL(int)
	?SetStatusL@CSenServiceSession@@UAEHXZ @ 328 NONAME ; int CSenServiceSession::SetStatusL(void)
	?SetTransforms@CSaslMechanism@@UAEXV?$RPointerArray@VCSenPasswordTransform@@@@@Z @ 329 NONAME ; void CSaslMechanism::SetTransforms(class RPointerArray<class CSenPasswordTransform>)
	?SetTransportCueL@CSenServiceSession@@UAEHABVTDesC8@@@Z @ 330 NONAME ; int CSenServiceSession::SetTransportCueL(class TDesC8 const &)
	?SetTransportCueL@CSenWSDescription@@UAEHABVTDesC8@@@Z @ 331 NONAME ; int CSenWSDescription::SetTransportCueL(class TDesC8 const &)
	?SetTransportCueL@CSenWebServiceSession@@UAEHABVTDesC8@@@Z @ 332 NONAME ; int CSenWebServiceSession::SetTransportCueL(class TDesC8 const &)
	?SetTransportL@CSenServiceSession@@UAEXPAVCSenTransportBase@@@Z @ 333 NONAME ; void CSenServiceSession::SetTransportL(class CSenTransportBase *)
	?SetTransportPropertiesL@CSenServiceSession@@UAEHABVTDesC8@@AAVMSenRemoteServiceConsumer@@@Z @ 334 NONAME ; int CSenServiceSession::SetTransportPropertiesL(class TDesC8 const &, class MSenRemoteServiceConsumer &)
	?SetUserNameL@CSenWebServiceSession@@UAEHAAVTDesC8@@@Z @ 335 NONAME ; int CSenWebServiceSession::SetUserNameL(class TDesC8 &)
	?ShrinkTo@CSenLayeredTransportProperties@@UAEHW4TSenPropertiesLayer@MSenLayeredProperties@@@Z @ 336 NONAME ; int CSenLayeredTransportProperties::ShrinkTo(enum MSenLayeredProperties::TSenPropertiesLayer)
	?SoapActionL@CSenLayeredTransportProperties@@UAEHAAVTPtrC8@@@Z @ 337 NONAME ; int CSenLayeredTransportProperties::SoapActionL(class TPtrC8 &)
	?StartElementL@CSenWSPattern@@UAEXABVTDesC8@@00ABV?$RArray@VRAttribute@Xml@@@@@Z @ 338 NONAME ; void CSenWSPattern::StartElementL(class TDesC8 const &, class TDesC8 const &, class TDesC8 const &, class RArray<class Xml::RAttribute> const &)
	?StartTransaction@CSenWebServiceSession@@UAEXXZ @ 339 NONAME ; void CSenWebServiceSession::StartTransaction(void)
	?StatusL@CSenServiceSession@@UAEHXZ @ 340 NONAME ; int CSenServiceSession::StatusL(void)
	?SubmitL@CSenServiceSession@@UAEHABVTDesC8@@0AAVMSenRemoteServiceConsumer@@AAPAVHBufC8@@@Z @ 341 NONAME ; int CSenServiceSession::SubmitL(class TDesC8 const &, class TDesC8 const &, class MSenRemoteServiceConsumer &, class HBufC8 * &)
	?SubmitL@CSenWebServiceSession@@UAEHABVTDesC8@@0AAVMSenRemoteServiceConsumer@@AAPAVHBufC8@@@Z @ 342 NONAME ; int CSenWebServiceSession::SubmitL(class TDesC8 const &, class TDesC8 const &, class MSenRemoteServiceConsumer &, class HBufC8 * &)
	?SubmitSoapL@CSenWebServiceSession@@UAEHABVTDesC8@@0AAVMSenRemoteServiceConsumer@@AAPAVHBufC8@@@Z @ 343 NONAME ; int CSenWebServiceSession::SubmitSoapL(class TDesC8 const &, class TDesC8 const &, class MSenRemoteServiceConsumer &, class HBufC8 * &)
	?TopLayer@CSenLayeredTransportProperties@@UAE?AW4TSenPropertiesLayer@MSenLayeredProperties@@XZ @ 344 NONAME ; enum MSenLayeredProperties::TSenPropertiesLayer CSenLayeredTransportProperties::TopLayer(void)
	?TransactionCompleted@CSenWebServiceSession@@UAEXXZ @ 345 NONAME ; void CSenWebServiceSession::TransactionCompleted(void)
	?TransformL@CSaslMechanism@@UBEPAVHBufC8@@VTPtrC8@@@Z @ 346 NONAME ; class HBufC8 * CSaslMechanism::TransformL(class TPtrC8) const
	?Transport@CSenServiceSession@@UBEPAVMSenTransport@@XZ @ 347 NONAME ; class MSenTransport * CSenServiceSession::Transport(void) const
	?TransportCue@CSenServiceSession@@UAE?AVTPtrC8@@XZ @ 348 NONAME ; class TPtrC8 CSenServiceSession::TransportCue(void)
	?TransportCue@CSenWSDescription@@UAE?AVTPtrC8@@XZ @ 349 NONAME ; class TPtrC8 CSenWSDescription::TransportCue(void)
	?TransportCue@CSenWebServiceSession@@UAE?AVTPtrC8@@XZ @ 350 NONAME ; class TPtrC8 CSenWebServiceSession::TransportCue(void)
	?TransportL@CSenServiceSession@@UAEAAVMSenTransport@@AAVMSenRemoteServiceConsumer@@@Z @ 351 NONAME ; class MSenTransport & CSenServiceSession::TransportL(class MSenRemoteServiceConsumer &)
	?TransportPropertiesL@CSenServiceSession@@UAEHAAPAVHBufC8@@AAVMSenRemoteServiceConsumer@@@Z @ 352 NONAME ; int CSenServiceSession::TransportPropertiesL(class HBufC8 * &, class MSenRemoteServiceConsumer &)
	?TryToSearchValidCredentialL@CSenWebServiceSession@@QAEHXZ @ 353 NONAME ; int CSenWebServiceSession::TryToSearchValidCredentialL(void)
	?UserAgentL@CSenLayeredTransportProperties@@UAEHAAVTPtrC8@@@Z @ 354 NONAME ; int CSenLayeredTransportProperties::UserAgentL(class TPtrC8 &)
	?ValidUntilL@CSenWebServiceSession@@UAEABVTTime@@XZ @ 355 NONAME ; class TTime const & CSenWebServiceSession::ValidUntilL(void)
	?WriteAsXMLToL@CSenHandlerBase@@UAEXAAVRWriteStream@@@Z @ 356 NONAME ; void CSenHandlerBase::WriteAsXMLToL(class RWriteStream &)
	?WriteAsXMLToL@CSenWebServiceSession@@UAEXAAVRWriteStream@@@Z @ 357 NONAME ; void CSenWebServiceSession::WriteAsXMLToL(class RWriteStream &)
	?WriteExtensionsAsXMLToL@CSenServiceSession@@UAEXAAVRWriteStream@@@Z @ 358 NONAME ; void CSenServiceSession::WriteExtensionsAsXMLToL(class RWriteStream &)
	?WriteToL@CSenLayeredTransportProperties@@UAEXAAVRWriteStream@@@Z @ 359 NONAME ; void CSenLayeredTransportProperties::WriteToL(class RWriteStream &)
	?WriteToL@CSenLayeredTransportProperties@@UAEXAAVRWriteStream@@W4TSenPropertiesLayer@MSenLayeredProperties@@@Z @ 360 NONAME ; void CSenLayeredTransportProperties::WriteToL(class RWriteStream &, enum MSenLayeredProperties::TSenPropertiesLayer)
	?XmlReader@CSenWebServiceSession@@UAEPAVCSenXmlReader@@XZ @ 361 NONAME ; class CSenXmlReader * CSenWebServiceSession::XmlReader(void)
	?SnapDialogL@CSenLayeredTransportProperties@@UAEHAAH@Z @ 362 NONAME ; int CSenLayeredTransportProperties::SnapDialogL(int &)
	?SnapIdL@CSenLayeredTransportProperties@@UAEHAAK@Z @ 363 NONAME ; int CSenLayeredTransportProperties::SnapIdL(unsigned long &)
	?ConsumerSnapId@CSenWSPattern@@UAEHAAK@Z @ 364 NONAME ; int CSenWSPattern::ConsumerSnapId(unsigned long &)
	?SetConsumerSnapIdL@CSenWSPattern@@UAEXK@Z @ 365 NONAME ; void CSenWSPattern::SetConsumerSnapIdL(unsigned long)
	?SetSnapIdL@CSenWSDescription@@UAEXK@Z @ 366 NONAME ; void CSenWSDescription::SetSnapIdL(unsigned long)
	?SnapId@CSenWSDescription@@UAEHAAK@Z @ 367 NONAME ; int CSenWSDescription::SnapId(unsigned long &)
	?BoundaryLineStartL@SenMtomUtils@@SAXABVRBuf8@@AAV2@@Z @ 368 NONAME ; void SenMtomUtils::BoundaryLineStartL(class RBuf8 const &, class RBuf8 &)
	?GenerateRandomBoundaryL@SenMtomUtils@@SAXAAVRBuf8@@@Z @ 369 NONAME ; void SenMtomUtils::GenerateRandomBoundaryL(class RBuf8 &)
	?SetDataTrafficDetails@CSenInternalServiceConsumer@@UAEXAAUTSenDataTrafficDetails@@@Z @ 370 NONAME ; void CSenInternalServiceConsumer::SetDataTrafficDetails(struct TSenDataTrafficDetails &)
	?FileDataPartL@SenMtomUtils@@SAXIIAAV?$RArray@VTXmlEngDataContainer@@@@AAVRBuf8@@@Z @ 371 NONAME ; void SenMtomUtils::FileDataPartL(unsigned int, unsigned int, class RArray<class TXmlEngDataContainer> &, class RBuf8 &)
	?HeaderRootL@SenMtomUtils@@SAXAAVCSenSoapEnvelope2@@ABVRBuf8@@AAV3@@Z @ 372 NONAME ; void SenMtomUtils::HeaderRootL(class CSenSoapEnvelope2 &, class RBuf8 const &, class RBuf8 &)
	?CidL@SenMtomUtils@@SAXABVRBuf8@@AAV?$RArray@VRBuf8@@@@@Z @ 373 NONAME ; void SenMtomUtils::CidL(class RBuf8 const &, class RArray<class RBuf8> &)
	?GenerateRandomRootCidL@SenMtomUtils@@SAXAAVRBuf8@@@Z @ 374 NONAME ; void SenMtomUtils::GenerateRandomRootCidL(class RBuf8 &)
	?SerializeEnvelope2L@SenMtomUtils@@SAXAAVCSenSoapEnvelope2@@AAVRBuf8@@@Z @ 375 NONAME ; void SenMtomUtils::SerializeEnvelope2L(class CSenSoapEnvelope2 &, class RBuf8 &)
	?BoundaryLineEndL@SenMtomUtils@@SAXABVRBuf8@@AAV2@@Z @ 376 NONAME ; void SenMtomUtils::BoundaryLineEndL(class RBuf8 const &, class RBuf8 &)
	?SetFileL@SenMtomUtils@@SAHIHAAVTDesC8@@AAV?$RArray@VRBuf8@@@@@Z @ 377 NONAME ; int SenMtomUtils::SetFileL(unsigned int, int, class TDesC8 &, class RArray<class RBuf8> &)
	?FileDataRestL@SenMtomUtils@@SAXIIIAAV?$RArray@VTXmlEngDataContainer@@@@AAVRBuf8@@@Z @ 378 NONAME ; void SenMtomUtils::FileDataRestL(unsigned int, unsigned int, unsigned int, class RArray<class TXmlEngDataContainer> &, class RBuf8 &)
	?HeaderBinaryDataL@SenMtomUtils@@SAXIAAV?$RArray@VTXmlEngDataContainer@@@@AAVRBuf8@@@Z @ 379 NONAME ; void SenMtomUtils::HeaderBinaryDataL(unsigned int, class RArray<class TXmlEngDataContainer> &, class RBuf8 &)
	?SetMinRetryTTLL@CSenLayeredTransportProperties@@UAEHH@Z @ 380 NONAME ; int CSenLayeredTransportProperties::SetMinRetryTTLL(int)
	?MaxRetryTTLL@CSenLayeredTransportProperties@@UAEHAAH@Z @ 381 NONAME ; int CSenLayeredTransportProperties::MaxRetryTTLL(int &)
	?MinRetryTTLL@CSenLayeredTransportProperties@@UAEHAAH@Z @ 382 NONAME ; int CSenLayeredTransportProperties::MinRetryTTLL(int &)
	?SetMaxRetryTTLL@CSenLayeredTransportProperties@@UAEHH@Z @ 383 NONAME ; int CSenLayeredTransportProperties::SetMaxRetryTTLL(int)
	?SetRetryDeltaTimeoutL@CSenLayeredTransportProperties@@UAEHH@Z @ 384 NONAME ; int CSenLayeredTransportProperties::SetRetryDeltaTimeoutL(int)
	?RetryDeltaTimeoutL@CSenLayeredTransportProperties@@UAEHAAH@Z @ 385 NONAME ; int CSenLayeredTransportProperties::RetryDeltaTimeoutL(int &)

