EXPORTS
	??1CUPnPDescriptionComposer@@UAE@XZ @ 1 NONAME ; CUPnPDescriptionComposer::~CUPnPDescriptionComposer(void)
	??1CUPnPDescriptionParser@@UAE@XZ @ 2 NONAME ; CUPnPDescriptionParser::~CUPnPDescriptionParser(void)
	??1CUPnPDevice@@UAE@XZ @ 3 NONAME ; CUPnPDevice::~CUPnPDevice(void)
	??1CUPnPDeviceDescription@@UAE@XZ @ 4 NONAME ; CUPnPDeviceDescription::~CUPnPDeviceDescription(void)
	??1CUPnPIconInfo@@UAE@XZ @ 5 NONAME ; CUPnPIconInfo::~CUPnPIconInfo(void)
	??1CUPnPServiceDescription@@UAE@XZ @ 6 NONAME ; CUPnPServiceDescription::~CUPnPServiceDescription(void)
	??1CUPnPServiceInfo@@UAE@XZ @ 7 NONAME ; CUPnPServiceInfo::~CUPnPServiceInfo(void)
	?ComposeDescriptionXmlL@CUPnPDescriptionComposer@@QAEXPAXW4TUPnPDescriptionType@1@AAVRBuf8@@@Z @ 8 NONAME ; void CUPnPDescriptionComposer::ComposeDescriptionXmlL(void *, enum CUPnPDescriptionComposer::TUPnPDescriptionType, class RBuf8 &)
	?CreateOrFindL@CStringPoolManager@@SAPAV1@ABUTStringTable@@@Z @ 9 NONAME ABSENT ; class CStringPoolManager * CStringPoolManager::CreateOrFindL(struct TStringTable const &)
	?CreateOrFindL@CStringPoolManager@@SAPAV1@XZ @ 10 NONAME ABSENT ; class CStringPoolManager * CStringPoolManager::CreateOrFindL(void)
	?GetTable@CStringPoolManager@@QAEABUTStringTable@@XZ @ 11 NONAME ABSENT ; struct TStringTable const & CStringPoolManager::GetTable(void)
	?NewL@CUPnPDescriptionComposer@@SAPAV1@XZ @ 12 NONAME ABSENT ; class CUPnPDescriptionComposer * CUPnPDescriptionComposer::NewL(void)
	?NewL@CUPnPDescriptionParser@@SAPAV1@W4TUPnPDescriptionType@1@@Z @ 13 NONAME ABSENT ; class CUPnPDescriptionParser * CUPnPDescriptionParser::NewL(enum CUPnPDescriptionParser::TUPnPDescriptionType)
	?NewL@CUPnPDevice@@SAPAV1@XZ @ 14 NONAME ; class CUPnPDevice * CUPnPDevice::NewL(void)
	?NewL@CUPnPDeviceDescription@@SAPAV1@XZ @ 15 NONAME ; class CUPnPDeviceDescription * CUPnPDeviceDescription::NewL(void)
	?NewL@CUPnPIconInfo@@SAPAV1@XZ @ 16 NONAME ; class CUPnPIconInfo * CUPnPIconInfo::NewL(void)
	?NewL@CUPnPServiceDescription@@SAPAV1@XZ @ 17 NONAME ; class CUPnPServiceDescription * CUPnPServiceDescription::NewL(void)
	?NewL@CUPnPServiceInfo@@SAPAV1@XZ @ 18 NONAME ; class CUPnPServiceInfo * CUPnPServiceInfo::NewL(void)
	?NewL@CUPnPValueRange@@SAPAV1@XZ @ 19 NONAME ; class CUPnPValueRange * CUPnPValueRange::NewL(void)
	?ParseDescriptionBufL@CUPnPDescriptionParser@@QAEPAXABVTDesC8@@@Z @ 20 NONAME ; void * CUPnPDescriptionParser::ParseDescriptionBufL(class TDesC8 const &)
	?Release@CStringPoolManager@@QAEXXZ @ 21 NONAME ; void CStringPoolManager::Release(void)
	?StringPool@CStringPoolManager@@QAEAAVRStringPool@@XZ @ 22 NONAME ; class RStringPool & CStringPoolManager::StringPool(void)
	?StringPool@CStringPoolManager@@QBEABVRStringPool@@XZ @ 23 NONAME ABSENT ; class RStringPool const & CStringPoolManager::StringPool(void) const
	?SetStringTable@CUPnPDescriptionParser@@QAEXABUTStringTable@@@Z @ 24 NONAME ABSENT ; void CUPnPDescriptionParser::SetStringTable(struct TStringTable const &)
	??1CUPnPProperty@@UAE@XZ @ 25 NONAME ; CUPnPProperty::~CUPnPProperty(void)
	?Property@CUPnPProperty@@QBEABVTDesC8@@VRString@@@Z @ 26 NONAME ; class TDesC8 const & CUPnPProperty::Property(class RString) const
	?SetPropertyL@CUPnPProperty@@QAEXVRString@@ABVTDesC8@@@Z @ 27 NONAME ; void CUPnPProperty::SetPropertyL(class RString, class TDesC8 const &)
	?NewL@CStringPoolManager@@SAPAV1@ABUTStringTable@@@Z @ 28 NONAME ; class CStringPoolManager * CStringPoolManager::NewL(struct TStringTable const &)
	?SetStringTableL@CStringPoolManager@@QAEXABUTStringTable@@@Z @ 29 NONAME ; void CStringPoolManager::SetStringTableL(struct TStringTable const &)
	?NewL@CStringPoolManager@@SAPAV1@XZ @ 30 NONAME ; class CStringPoolManager * CStringPoolManager::NewL(void)
	?NewL@CUPnPDescriptionComposer@@SAPAV1@ABVRStringPool@@@Z @ 31 NONAME ; class CUPnPDescriptionComposer * CUPnPDescriptionComposer::NewL(class RStringPool const &)
	?NewL@CUPnPDescriptionParser@@SAPAV1@ABVRStringPool@@W4TUPnPDescriptionType@1@@Z @ 32 NONAME ; class CUPnPDescriptionParser * CUPnPDescriptionParser::NewL(class RStringPool const &, enum CUPnPDescriptionParser::TUPnPDescriptionType)
	?GetUPnPTable@CStringPoolManager@@QAEABUTStringTable@@XZ @ 33 NONAME ; struct TStringTable const & CStringPoolManager::GetUPnPTable(void)
	?SetPropertyL@CUPnPProperty@@QAEXVRString@@H@Z @ 34 NONAME ; void CUPnPProperty::SetPropertyL(class RString, int)
	??1CUPnPValueRange@@UAE@XZ @ 35 NONAME ; CUPnPValueRange::~CUPnPValueRange(void)

