EXPORTS
	??0DropAllLocks@JSLock@KJS@@QAE@XZ @ 1 NONAME ; KJS::JSLock::DropAllLocks::DropAllLocks(void)
	??0InternalFunctionImp@KJS@@QAE@PAVFunctionPrototype@1@ABVIdentifier@1@@Z @ 2 NONAME ; KJS::InternalFunctionImp::InternalFunctionImp(class KJS::FunctionPrototype *, class KJS::Identifier const &)
	??0Interpreter@KJS@@QAE@PAVJSObject@1@@Z @ 3 NONAME ; KJS::Interpreter::Interpreter(class KJS::JSObject *)
	??0JSCallbackConstructor@KJS@@QAE@PAVExecState@1@PAUOpaqueJSClass@@P6APAUOpaqueJSValue@@PBUOpaqueJSContext@@PAU4@IQBQBU4@PAPBU4@@Z@Z @ 4 NONAME ; KJS::JSCallbackConstructor::JSCallbackConstructor(class KJS::ExecState *, struct OpaqueJSClass *, struct OpaqueJSValue * (*)(struct OpaqueJSContext const *, struct OpaqueJSValue *, unsigned int, struct OpaqueJSValue const * const * const, struct OpaqueJSValue const * *))
	??0List@KJS@@QAE@XZ @ 5 NONAME ; KJS::List::List(void)
	??0RuntimeObjectImp@KJS@@QAE@PAVInstance@Bindings@1@@Z @ 6 NONAME ; KJS::RuntimeObjectImp::RuntimeObjectImp(class KJS::Bindings::Instance *)
	??0SavedBuiltins@KJS@@QAE@XZ @ 7 NONAME ; KJS::SavedBuiltins::SavedBuiltins(void)
	??0SavedProperties@KJS@@QAE@XZ @ 8 NONAME ; KJS::SavedProperties::SavedProperties(void)
	??0StringInstance@KJS@@QAE@PAVJSObject@1@ABVUString@1@@Z @ 9 NONAME ; KJS::StringInstance::StringInstance(class KJS::JSObject *, class KJS::UString const &)
	??0StringInstance@KJS@@QAE@PAVJSObject@1@PAVStringImp@1@@Z @ 10 NONAME ; KJS::StringInstance::StringInstance(class KJS::JSObject *, class KJS::StringImp *)
	??0UString@KJS@@QAE@ABV01@0@Z @ 11 NONAME ; KJS::UString::UString(class KJS::UString const &, class KJS::UString const &)
	??0UString@KJS@@QAE@PBD@Z @ 12 NONAME ; KJS::UString::UString(char const *)
	??0UString@KJS@@QAE@PBUUChar@1@H@Z @ 13 NONAME ; KJS::UString::UString(struct KJS::UChar const *, int)
	??0UString@KJS@@QAE@XZ @ 14 NONAME ; KJS::UString::UString(void)
	??1CString@KJS@@QAE@XZ @ 15 NONAME ; KJS::CString::~CString(void)
	??1DropAllLocks@JSLock@KJS@@QAE@XZ @ 16 NONAME ; KJS::JSLock::DropAllLocks::~DropAllLocks(void)
	??1Interpreter@KJS@@MAE@XZ @ 17 NONAME ; KJS::Interpreter::~Interpreter(void)
	??1PropertyMap@KJS@@QAE@XZ @ 18 NONAME ; KJS::PropertyMap::~PropertyMap(void)
	??1RootObject@Bindings@KJS@@AAE@XZ @ 19 NONAME ; KJS::Bindings::RootObject::~RootObject(void)
	??1SavedBuiltins@KJS@@QAE@XZ @ 20 NONAME ; KJS::SavedBuiltins::~SavedBuiltins(void)
	??1SavedProperties@KJS@@QAE@XZ @ 21 NONAME ; KJS::SavedProperties::~SavedProperties(void)
	??2JSCell@KJS@@SAPAXI@Z @ 22 NONAME ; void * KJS::JSCell::operator new(unsigned int)
	??4UString@KJS@@QAEAAV01@PBD@Z @ 23 NONAME ; class KJS::UString & KJS::UString::operator=(char const *)
	?UTF8String@UString@KJS@@QBE?AVCString@2@XZ @ 24 NONAME ; class KJS::CString KJS::UString::UTF8String(void) const
	?_NPN_CreateNoScriptObject@@YAPAUNPObject@@XZ @ 25 NONAME ; struct NPObject * _NPN_CreateNoScriptObject(void)
	?_NPN_CreateScriptObject@@YAPAUNPObject@@PAU_NPP@@PAVJSObject@KJS@@V?$PassRefPtr@VRootObject@Bindings@KJS@@@WTF@@2@Z @ 26 NONAME ; struct NPObject * _NPN_CreateScriptObject(struct _NPP *, class KJS::JSObject *, class WTF::PassRefPtr<class KJS::Bindings::RootObject>, class WTF::PassRefPtr<class KJS::Bindings::RootObject>)
	?add@Identifier@KJS@@CA?AV?$PassRefPtr@URep@UString@KJS@@@WTF@@PAURep@UString@2@@Z @ 27 NONAME ; class WTF::PassRefPtr<struct KJS::UString::Rep> KJS::Identifier::add(struct KJS::UString::Rep *)
	?add@Identifier@KJS@@CA?AV?$PassRefPtr@URep@UString@KJS@@@WTF@@PBD@Z @ 28 NONAME ; class WTF::PassRefPtr<struct KJS::UString::Rep> KJS::Identifier::add(char const *)
	?add@Identifier@KJS@@CA?AV?$PassRefPtr@URep@UString@KJS@@@WTF@@PBUUChar@2@H@Z @ 29 NONAME ; class WTF::PassRefPtr<struct KJS::UString::Rep> KJS::Identifier::add(struct KJS::UChar const *, int)
	?append@CString@KJS@@QAEAAV12@ABV12@@Z @ 30 NONAME ; class KJS::CString & KJS::CString::append(class KJS::CString const &)
	?append@List@KJS@@QAEXPAVJSValue@2@@Z @ 31 NONAME ; void KJS::List::append(class KJS::JSValue *)
	?append@UString@KJS@@QAEAAV12@ABV12@@Z @ 32 NONAME ; class KJS::UString & KJS::UString::append(class KJS::UString const &)
	?at@List@KJS@@QBEPAVJSValue@2@H@Z @ 33 NONAME ; class KJS::JSValue * KJS::List::at(int) const
	?builtinArray@Interpreter@KJS@@QBEPAVJSObject@2@XZ @ 34 NONAME ; class KJS::JSObject * KJS::Interpreter::builtinArray(void) const
	?builtinFunction@Interpreter@KJS@@QBEPAVJSObject@2@XZ @ 35 NONAME ; class KJS::JSObject * KJS::Interpreter::builtinFunction(void) const
	?builtinFunctionPrototype@Interpreter@KJS@@QBEPAVJSObject@2@XZ @ 36 NONAME ; class KJS::JSObject * KJS::Interpreter::builtinFunctionPrototype(void) const
	?builtinObjectPrototype@Interpreter@KJS@@QBEPAVJSObject@2@XZ @ 37 NONAME ; class KJS::JSObject * KJS::Interpreter::builtinObjectPrototype(void) const
	?builtinStringPrototype@Interpreter@KJS@@QBEPAVJSObject@2@XZ @ 38 NONAME ; class KJS::JSObject * KJS::Interpreter::builtinStringPrototype(void) const
	?call@JSObject@KJS@@QAEPAVJSValue@2@PAVExecState@2@PAV12@ABVList@2@@Z @ 39 NONAME ; class KJS::JSValue * KJS::JSObject::call(class KJS::ExecState *, class KJS::JSObject *, class KJS::List const &)
	?callAsFunction@JSObject@KJS@@UAEPAVJSValue@2@PAVExecState@2@PAV12@ABVList@2@@Z @ 40 NONAME ; class KJS::JSValue * KJS::JSObject::callAsFunction(class KJS::ExecState *, class KJS::JSObject *, class KJS::List const &)
	?canPut@JSObject@KJS@@UBE_NPAVExecState@2@ABVIdentifier@2@@Z @ 41 NONAME ; bool KJS::JSObject::canPut(class KJS::ExecState *, class KJS::Identifier const &) const
	?cellBlock@Collector@KJS@@CAPAVCollectorBlock@2@PAVJSCell@2@@Z @ 42 NONAME ; class KJS::CollectorBlock * KJS::Collector::cellBlock(class KJS::JSCell *)
	?cellBlock@Collector@KJS@@CAPBVCollectorBlock@2@PBVJSCell@2@@Z @ 43 NONAME ; class KJS::CollectorBlock const * KJS::Collector::cellBlock(class KJS::JSCell const *)
	?cellOffset@Collector@KJS@@CAIPBVJSCell@2@@Z @ 44 NONAME ; unsigned int KJS::Collector::cellOffset(class KJS::JSCell const *)
	?classInfo@InternalFunctionImp@KJS@@UBEPBUClassInfo@2@XZ @ 45 NONAME ; struct KJS::ClassInfo const * KJS::InternalFunctionImp::classInfo(void) const
	?classInfo@JSObject@KJS@@UBEPBUClassInfo@2@XZ @ 46 NONAME ; struct KJS::ClassInfo const * KJS::JSObject::classInfo(void) const
	?classInfo@StringInstance@KJS@@UBEPBUClassInfo@2@XZ @ 47 NONAME ; struct KJS::ClassInfo const * KJS::StringInstance::classInfo(void) const
	?className@JSObject@KJS@@UBE?AVUString@2@XZ @ 48 NONAME ; class KJS::UString KJS::JSObject::className(void) const
	?clear@PropertyMap@KJS@@QAEXXZ @ 49 NONAME ; void KJS::PropertyMap::clear(void)
	?collect@Collector@KJS@@SA_NXZ @ 50 NONAME ; bool KJS::Collector::collect(void)
	?collectOnMainThreadOnly@Collector@KJS@@SAXPAVJSValue@2@@Z @ 51 NONAME ; void KJS::Collector::collectOnMainThreadOnly(class KJS::JSValue *)
	?construct@JSObject@KJS@@UAEPAV12@PAVExecState@2@ABVList@2@@Z @ 52 NONAME ; class KJS::JSObject * KJS::JSObject::construct(class KJS::ExecState *, class KJS::List const &)
	?construct@JSObject@KJS@@UAEPAV12@PAVExecState@2@ABVList@2@ABVIdentifier@2@ABVUString@2@H@Z @ 53 NONAME ; class KJS::JSObject * KJS::JSObject::construct(class KJS::ExecState *, class KJS::List const &, class KJS::Identifier const &, class KJS::UString const &, int)
	?copyTail@List@KJS@@QBE?AV12@XZ @ 54 NONAME ; class KJS::List KJS::List::copyTail(void) const
	?create@RootObject@Bindings@KJS@@SA?AV?$PassRefPtr@VRootObject@Bindings@KJS@@@WTF@@PBXV?$PassRefPtr@VInterpreter@KJS@@@5@@Z @ 55 NONAME ; class WTF::PassRefPtr<class KJS::Bindings::RootObject> KJS::Bindings::RootObject::create(void const *, class WTF::PassRefPtr<class KJS::Interpreter>)
	?defaultValue@JSObject@KJS@@UBEPAVJSValue@2@PAVExecState@2@W4JSType@2@@Z @ 56 NONAME ; class KJS::JSValue * KJS::JSObject::defaultValue(class KJS::ExecState *, enum KJS::JSType) const
	?deleteProperty@JSObject@KJS@@UAE_NPAVExecState@2@ABVIdentifier@2@@Z @ 57 NONAME ; bool KJS::JSObject::deleteProperty(class KJS::ExecState *, class KJS::Identifier const &)
	?deleteProperty@JSObject@KJS@@UAE_NPAVExecState@2@I@Z @ 58 NONAME ; bool KJS::JSObject::deleteProperty(class KJS::ExecState *, unsigned int)
	?deleteProperty@StringInstance@KJS@@UAE_NPAVExecState@2@ABVIdentifier@2@@Z @ 59 NONAME ; bool KJS::StringInstance::deleteProperty(class KJS::ExecState *, class KJS::Identifier const &)
	?destroy@Rep@UString@KJS@@QAEXXZ @ 60 NONAME ; void KJS::UString::Rep::destroy(void)
	?equal@Identifier@KJS@@SA_NPBURep@UString@2@PBD@Z @ 61 NONAME ; bool KJS::Identifier::equal(struct KJS::UString::Rep const *, char const *)
	?evaluate@Interpreter@KJS@@QAE?AVCompletion@2@ABVUString@2@H0PAVJSValue@2@@Z @ 62 NONAME ; class KJS::Completion KJS::Interpreter::evaluate(class KJS::UString const &, int, class KJS::UString const &, class KJS::JSValue *)
	?evaluate@Interpreter@KJS@@QAE?AVCompletion@2@ABVUString@2@HPBUUChar@2@HPAVJSValue@2@@Z @ 63 NONAME ; class KJS::Completion KJS::Interpreter::evaluate(class KJS::UString const &, int, struct KJS::UChar const *, int, class KJS::JSValue *)
	?fastCalloc@WTF@@YAPAXII@Z @ 64 NONAME ; void * WTF::fastCalloc(unsigned int, unsigned int)
	?fastFree@WTF@@YAXPAX@Z @ 65 NONAME ; void WTF::fastFree(void *)
	?fastMalloc@WTF@@YAPAXI@Z @ 66 NONAME ; void * WTF::fastMalloc(unsigned int)
	?fastRealloc@WTF@@YAPAXPAXI@Z @ 67 NONAME ; void * WTF::fastRealloc(void *, unsigned int)
	?fillGetterPropertySlot@JSObject@KJS@@QAEXAAVPropertySlot@2@PAPAVJSValue@2@@Z @ 68 NONAME ; void KJS::JSObject::fillGetterPropertySlot(class KJS::PropertySlot &, class KJS::JSValue * *)
	?findEntry@Lookup@KJS@@SAPBUHashEntry@2@PBUHashTable@2@ABVIdentifier@2@@Z @ 69 NONAME ; struct KJS::HashEntry const * KJS::Lookup::findEntry(struct KJS::HashTable const *, class KJS::Identifier const &)
	?get@JSObject@KJS@@QBEPAVJSValue@2@PAVExecState@2@ABVIdentifier@2@@Z @ 70 NONAME ; class KJS::JSValue * KJS::JSObject::get(class KJS::ExecState *, class KJS::Identifier const &) const
	?get@JSObject@KJS@@QBEPAVJSValue@2@PAVExecState@2@I@Z @ 71 NONAME ; class KJS::JSValue * KJS::JSObject::get(class KJS::ExecState *, unsigned int) const
	?get@PropertyMap@KJS@@QBEPAVJSValue@2@ABVIdentifier@2@@Z @ 72 NONAME ; class KJS::JSValue * KJS::PropertyMap::get(class KJS::Identifier const &) const
	?getLocation@PropertyMap@KJS@@QAEPAPAVJSValue@2@ABVIdentifier@2@@Z @ 73 NONAME ; class KJS::JSValue * * KJS::PropertyMap::getLocation(class KJS::Identifier const &)
	?getNumber@JSCell@KJS@@QBENXZ @ 74 NONAME ; double KJS::JSCell::getNumber(void) const
	?getNumber@JSCell@KJS@@QBE_NAAN@Z @ 75 NONAME ; bool KJS::JSCell::getNumber(double &) const
	?getNumber@JSValue@KJS@@QBE_NAAN@Z @ 76 NONAME ; bool KJS::JSValue::getNumber(double &) const
	?getObject@JSCell@KJS@@QAEPAVJSObject@2@XZ @ 77 NONAME ; class KJS::JSObject * KJS::JSCell::getObject(void)
	?getOwnPropertySlot@JSObject@KJS@@UAE_NPAVExecState@2@IAAVPropertySlot@2@@Z @ 78 NONAME ; bool KJS::JSObject::getOwnPropertySlot(class KJS::ExecState *, unsigned int, class KJS::PropertySlot &)
	?getOwnPropertySlot@StringInstance@KJS@@UAE_NPAVExecState@2@ABVIdentifier@2@AAVPropertySlot@2@@Z @ 79 NONAME ; bool KJS::StringInstance::getOwnPropertySlot(class KJS::ExecState *, class KJS::Identifier const &, class KJS::PropertySlot &)
	?getPropertyNames@JSObject@KJS@@UAEXPAVExecState@2@AAVPropertyNameArray@2@@Z @ 80 NONAME ; void KJS::JSObject::getPropertyNames(class KJS::ExecState *, class KJS::PropertyNameArray &)
	?getPropertyNames@StringInstance@KJS@@UAEXPAVExecState@2@AAVPropertyNameArray@2@@Z @ 81 NONAME ; void KJS::StringInstance::getPropertyNames(class KJS::ExecState *, class KJS::PropertyNameArray &)
	?getString@JSCell@KJS@@QBE_NAAVUString@2@@Z @ 82 NONAME ; bool KJS::JSCell::getString(class KJS::UString &) const
	?getUInt32@JSCell@KJS@@UBE_NAAI@Z @ 83 NONAME ; bool KJS::JSCell::getUInt32(unsigned int &) const
	?globalExec@Interpreter@KJS@@UAEPAVExecState@2@XZ @ 84 NONAME ; class KJS::ExecState * KJS::Interpreter::globalExec(void)
	?globalObject@Interpreter@KJS@@QBEPAVJSObject@2@XZ @ 85 NONAME ; class KJS::JSObject * KJS::Interpreter::globalObject(void) const
	?hasInstance@JSObject@KJS@@UAE_NPAVExecState@2@PAVJSValue@2@@Z @ 86 NONAME ; bool KJS::JSObject::hasInstance(class KJS::ExecState *, class KJS::JSValue *)
	?hasProperty@JSObject@KJS@@QBE_NPAVExecState@2@ABVIdentifier@2@@Z @ 87 NONAME ; bool KJS::JSObject::hasProperty(class KJS::ExecState *, class KJS::Identifier const &) const
	?implementsCall@InternalFunctionImp@KJS@@UBE_NXZ @ 88 NONAME ; bool KJS::InternalFunctionImp::implementsCall(void) const
	?implementsCall@JSObject@KJS@@UBE_NXZ @ 89 NONAME ; bool KJS::JSObject::implementsCall(void) const
	?implementsConstruct@JSObject@KJS@@UBE_NXZ @ 90 NONAME ; bool KJS::JSObject::implementsConstruct(void) const
	?implementsHasInstance@InternalFunctionImp@KJS@@UBE_NXZ @ 91 NONAME ; bool KJS::InternalFunctionImp::implementsHasInstance(void) const
	?implementsHasInstance@JSObject@KJS@@UBE_NXZ @ 92 NONAME ; bool KJS::JSObject::implementsHasInstance(void) const
	?initGlobalObject@Interpreter@KJS@@QAEXXZ @ 93 NONAME ; void KJS::Interpreter::initGlobalObject(void)
	?invalidate@RootObject@Bindings@KJS@@QAEXXZ @ 94 NONAME ; void KJS::Bindings::RootObject::invalidate(void)
	?is8Bit@UString@KJS@@QBE_NXZ @ 95 NONAME ; bool KJS::UString::is8Bit(void) const
	?isInf@KJS@@YA_NN@Z @ 96 NONAME ; bool KJS::isInf(double)
	?isNaN@KJS@@YA_NN@Z @ 97 NONAME ; bool KJS::isNaN(double)
	?isNull@UString@KJS@@QBE_NXZ @ 98 NONAME ; bool KJS::UString::isNull(void) const
	?jsNumberCell@KJS@@YAPAVJSValue@1@N@Z @ 99 NONAME ; class KJS::JSValue * KJS::jsNumberCell(double)
	?jsOwnedString@KJS@@YAPAVJSCell@1@ABVUString@1@@Z @ 100 NONAME ; class KJS::JSCell * KJS::jsOwnedString(class KJS::UString const &)
	?jsString@KJS@@YAPAVJSCell@1@ABVUString@1@@Z @ 101 NONAME ; class KJS::JSCell * KJS::jsString(class KJS::UString const &)
	?jsString@KJS@@YAPAVJSCell@1@PBD@Z @ 102 NONAME ; class KJS::JSCell * KJS::jsString(char const *)
	?lexicalInterpreter@ExecState@KJS@@QBEPAVInterpreter@2@XZ @ 103 NONAME ; class KJS::Interpreter * KJS::ExecState::lexicalInterpreter(void) const
	?lock@JSLock@KJS@@SAXXZ @ 104 NONAME ; void KJS::JSLock::lock(void)
	?mark@GetterSetterImp@KJS@@UAEXXZ @ 105 NONAME ; void KJS::GetterSetterImp::mark(void)
	?mark@Interpreter@KJS@@UAEXXZ @ 106 NONAME ; void KJS::Interpreter::mark(void)
	?mark@JSObject@KJS@@UAEXXZ @ 107 NONAME ; void KJS::JSObject::mark(void)
	?mark@JSWrapperObject@KJS@@UAEXXZ @ 108 NONAME ; void KJS::JSWrapperObject::mark(void)
	?protect@Collector@KJS@@SAXPAVJSValue@2@@Z @ 109 NONAME ; void KJS::Collector::protect(class KJS::JSValue *)
	?put@JSObject@KJS@@UAEXPAVExecState@2@ABVIdentifier@2@PAVJSValue@2@H@Z @ 110 NONAME ; void KJS::JSObject::put(class KJS::ExecState *, class KJS::Identifier const &, class KJS::JSValue *, int)
	?put@JSObject@KJS@@UAEXPAVExecState@2@IPAVJSValue@2@H@Z @ 111 NONAME ; void KJS::JSObject::put(class KJS::ExecState *, unsigned int, class KJS::JSValue *, int)
	?put@StringInstance@KJS@@UAEXPAVExecState@2@ABVIdentifier@2@PAVJSValue@2@H@Z @ 112 NONAME ; void KJS::StringInstance::put(class KJS::ExecState *, class KJS::Identifier const &, class KJS::JSValue *, int)
	?putDirect@JSObject@KJS@@QAEXABVIdentifier@2@HH@Z @ 113 NONAME ; void KJS::JSObject::putDirect(class KJS::Identifier const &, int, int)
	?putDirect@JSObject@KJS@@QAEXABVIdentifier@2@PAVJSValue@2@H@Z @ 114 NONAME ; void KJS::JSObject::putDirect(class KJS::Identifier const &, class KJS::JSValue *, int)
	?registerThread@JSLock@KJS@@SAXXZ @ 115 NONAME ; void KJS::JSLock::registerThread(void)
	?release@List@KJS@@AAEXXZ @ 116 NONAME ; void KJS::List::release(void)
	?removeDirect@JSObject@KJS@@QAEXABVIdentifier@2@@Z @ 117 NONAME ; void KJS::JSObject::removeDirect(class KJS::Identifier const &)
	?restore@PropertyMap@KJS@@QAEXABVSavedProperties@2@@Z @ 118 NONAME ; void KJS::PropertyMap::restore(class KJS::SavedProperties const &)
	?restoreBuiltins@Interpreter@KJS@@QAEXABVSavedBuiltins@2@@Z @ 119 NONAME ; void KJS::Interpreter::restoreBuiltins(class KJS::SavedBuiltins const &)
	?rootObject@Instance@Bindings@KJS@@QBEPAVRootObject@23@XZ @ 120 NONAME ; class KJS::Bindings::RootObject * KJS::Bindings::Instance::rootObject(void) const
	?save@PropertyMap@KJS@@QBEXAAVSavedProperties@2@@Z @ 121 NONAME ; void KJS::PropertyMap::save(class KJS::SavedProperties &) const
	?saveBuiltins@Interpreter@KJS@@QBEXAAVSavedBuiltins@2@@Z @ 122 NONAME ; void KJS::Interpreter::saveBuiltins(class KJS::SavedBuiltins &) const
	?setDidExecuteFunction@Instance@Bindings@KJS@@SAXP6AXPAVExecState@3@PAVJSObject@3@@Z@Z @ 123 NONAME ; void KJS::Bindings::Instance::setDidExecuteFunction(void (*)(class KJS::ExecState *, class KJS::JSObject *))
	?setShouldPrintExceptions@Interpreter@KJS@@SAX_N@Z @ 124 NONAME ; void KJS::Interpreter::setShouldPrintExceptions(bool)
	?shouldPrintExceptions@Interpreter@KJS@@SA_NXZ @ 125 NONAME ; bool KJS::Interpreter::shouldPrintExceptions(void)
	?startTimeoutCheck@Interpreter@KJS@@QAEXXZ @ 126 NONAME ; void KJS::Interpreter::startTimeoutCheck(void)
	?stopTimeoutCheck@Interpreter@KJS@@QAEXXZ @ 127 NONAME ; void KJS::Interpreter::stopTimeoutCheck(void)
	?throwError@KJS@@YAPAVJSObject@1@PAVExecState@1@W4ErrorType@1@@Z @ 128 NONAME ; class KJS::JSObject * KJS::throwError(class KJS::ExecState *, enum KJS::ErrorType)
	?throwError@KJS@@YAPAVJSObject@1@PAVExecState@1@W4ErrorType@1@ABVUString@1@@Z @ 129 NONAME ; class KJS::JSObject * KJS::throwError(class KJS::ExecState *, enum KJS::ErrorType, class KJS::UString const &)
	?throwError@KJS@@YAPAVJSObject@1@PAVExecState@1@W4ErrorType@1@PBD@Z @ 130 NONAME ; class KJS::JSObject * KJS::throwError(class KJS::ExecState *, enum KJS::ErrorType, char const *)
	?toBoolean@JSObject@KJS@@UBE_NPAVExecState@2@@Z @ 131 NONAME ; bool KJS::JSObject::toBoolean(class KJS::ExecState *) const
	?toFloat@JSValue@KJS@@QBEMPAVExecState@2@@Z @ 132 NONAME ; float KJS::JSValue::toFloat(class KJS::ExecState *) const
	?toInt32@JSValue@KJS@@QBEHPAVExecState@2@@Z @ 133 NONAME ; int KJS::JSValue::toInt32(class KJS::ExecState *) const
	?toInt32@JSValue@KJS@@QBEHPAVExecState@2@AA_N@Z @ 134 NONAME ; int KJS::JSValue::toInt32(class KJS::ExecState *, bool &) const
	?toNumber@JSObject@KJS@@UBENPAVExecState@2@@Z @ 135 NONAME ; double KJS::JSObject::toNumber(class KJS::ExecState *) const
	?toObject@JSImmediate@KJS@@SAPAVJSObject@2@PBVJSValue@2@PAVExecState@2@@Z @ 136 NONAME ; class KJS::JSObject * KJS::JSImmediate::toObject(class KJS::JSValue const *, class KJS::ExecState *)
	?toObject@JSObject@KJS@@UBEPAV12@PAVExecState@2@@Z @ 137 NONAME ; class KJS::JSObject * KJS::JSObject::toObject(class KJS::ExecState *) const
	?toStrictUInt32@UString@KJS@@QBEIPA_N@Z @ 138 NONAME ; unsigned int KJS::UString::toStrictUInt32(bool *) const
	?toString@JSImmediate@KJS@@SA?AVUString@2@PBVJSValue@2@@Z @ 139 NONAME ; class KJS::UString KJS::JSImmediate::toString(class KJS::JSValue const *)
	?toString@JSObject@KJS@@UBE?AVUString@2@PAVExecState@2@@Z @ 140 NONAME ; class KJS::UString KJS::JSObject::toString(class KJS::ExecState *) const
	?toUInt32@JSValue@KJS@@QBEIPAVExecState@2@@Z @ 141 NONAME ; unsigned int KJS::JSValue::toUInt32(class KJS::ExecState *) const
	?toUInt32@JSValue@KJS@@QBEIPAVExecState@2@AA_N@Z @ 142 NONAME ; unsigned int KJS::JSValue::toUInt32(class KJS::ExecState *, bool &) const
	?toUInt32@UString@KJS@@QBEIPA_N@Z @ 143 NONAME ; unsigned int KJS::UString::toUInt32(bool *) const
	?toUInt32@UString@KJS@@QBEIPA_N_N@Z @ 144 NONAME ; unsigned int KJS::UString::toUInt32(bool *, bool) const
	?type@JSImmediate@KJS@@SA?AW4JSType@2@PBVJSValue@2@@Z @ 145 NONAME ; enum KJS::JSType KJS::JSImmediate::type(class KJS::JSValue const *)
	?type@JSObject@KJS@@UBE?AW4JSType@2@XZ @ 146 NONAME ; enum KJS::JSType KJS::JSObject::type(void) const
	?undefinedGetter@PropertySlot@KJS@@CAPAVJSValue@2@PAVExecState@2@PAVJSObject@2@ABVIdentifier@2@ABV12@@Z @ 147 NONAME ; class KJS::JSValue * KJS::PropertySlot::undefinedGetter(class KJS::ExecState *, class KJS::JSObject *, class KJS::Identifier const &, class KJS::PropertySlot const &)
	?unlock@JSLock@KJS@@SAXXZ @ 148 NONAME ; void KJS::JSLock::unlock(void)
	?unprotect@Collector@KJS@@SAXPAVJSValue@2@@Z @ 149 NONAME ; void KJS::Collector::unprotect(class KJS::JSValue *)
	JSClassCreate @ 150 NONAME
	JSContextGetGlobalObject @ 151 NONAME
	JSObjectCallAsConstructor @ 152 NONAME
	JSObjectCallAsFunction @ 153 NONAME
	JSObjectGetPrivate @ 154 NONAME
	JSObjectGetProperty @ 155 NONAME
	JSObjectMake @ 156 NONAME
	JSObjectSetPrivate @ 157 NONAME
	JSObjectSetProperty @ 158 NONAME
	JSStringCreateWithCharacters @ 159 NONAME
	JSStringCreateWithUTF8CString @ 160 NONAME
	JSStringGetCharactersPtr @ 161 NONAME
	JSStringGetLength @ 162 NONAME
	JSStringRelease @ 163 NONAME
	JSValueIsNumber @ 164 NONAME
	JSValueIsString @ 165 NONAME
	JSValueMakeBoolean @ 166 NONAME
	JSValueMakeNumber @ 167 NONAME
	JSValueMakeString @ 168 NONAME
	JSValueMakeUndefined @ 169 NONAME
	JSValueProtect @ 170 NONAME
	JSValueToNumber @ 171 NONAME
	JSValueToObject @ 172 NONAME
	JSValueToStringCopy @ 173 NONAME
	JSValueUnprotect @ 174 NONAME
	_NPN_DeallocateObject @ 175 NONAME
	_NPN_ReleaseObject @ 176 NONAME
	kjs_dtoa @ 177 NONAME
	kjs_freedtoa @ 178 NONAME
	kjs_pcre_compile @ 179 NONAME
	kjs_pcre_compile2 @ 180 NONAME
	kjs_pcre_config @ 181 NONAME
	kjs_pcre_copy_named_substring @ 182 NONAME
	kjs_pcre_copy_substring @ 183 NONAME
	kjs_pcre_exec @ 184 NONAME
	kjs_pcre_free_substring @ 185 NONAME
	kjs_pcre_free_substring_list @ 186 NONAME
	kjs_pcre_fullinfo @ 187 NONAME
	kjs_pcre_get_named_substring @ 188 NONAME
	kjs_pcre_get_substring @ 189 NONAME
	kjs_pcre_get_substring_list @ 190 NONAME
	kjs_pcre_info @ 191 NONAME
	kjs_pcre_ord2utf8 @ 192 NONAME
	kjs_pcre_refcount @ 193 NONAME
	kjs_pcre_study @ 194 NONAME
	kjs_pcre_try_flipped @ 195 NONAME
	kjs_pcre_ucp_findchar @ 196 NONAME
	kjs_pcre_version @ 197 NONAME
	kjs_pcre_xclass @ 198 NONAME
	kjs_strtod @ 199 NONAME
	pcre_get_stringnumber @ 200 NONAME
	snprintf @ 201 NONAME
	vsnprintf @ 202 NONAME
	?createBindingForLanguageInstance@Instance@Bindings@KJS@@SAPAV123@W4BindingLanguage@123@PAXV?$PassRefPtr@VRootObject@Bindings@KJS@@@WTF@@@Z @ 203 NONAME ; class KJS::Bindings::Instance * KJS::Bindings::Instance::createBindingForLanguageInstance(enum KJS::Bindings::Instance::BindingLanguage, void *, class WTF::PassRefPtr<class KJS::Bindings::RootObject>)
	_NPN_CreateObject @ 204 NONAME
	_NPN_Enumerate @ 205 NONAME
	_NPN_Evaluate @ 206 NONAME
	_NPN_GetIntIdentifier @ 207 NONAME
	_NPN_GetProperty @ 208 NONAME
	_NPN_GetStringIdentifier @ 209 NONAME
	_NPN_GetStringIdentifiers @ 210 NONAME
	_NPN_HasMethod @ 211 NONAME
	_NPN_HasProperty @ 212 NONAME
	_NPN_IdentifierIsString @ 213 NONAME
	_NPN_IntFromIdentifier @ 214 NONAME
	_NPN_Invoke @ 215 NONAME
	_NPN_InvokeDefault @ 216 NONAME
	_NPN_ReleaseVariantValue @ 217 NONAME
	_NPN_RemoveProperty @ 218 NONAME
	_NPN_RetainObject @ 219 NONAME
	_NPN_SetException @ 220 NONAME
	_NPN_SetProperty @ 221 NONAME
	_NPN_UTF8FromIdentifier @ 222 NONAME
	?from@UString@KJS@@SA?AV12@H@Z @ 223 NONAME ; class KJS::UString KJS::UString::from(int)
	?from@UString@KJS@@SA?AV12@I@Z @ 224 NONAME ; class KJS::UString KJS::UString::from(unsigned int)
	?find@UString@KJS@@QBEHABV12@H@Z @ 225 NONAME ; int KJS::UString::find(class KJS::UString const &, int) const
	?roundValue@KJS@@YANPAVExecState@1@PAVJSValue@1@@Z @ 226 NONAME ; double KJS::roundValue(class KJS::ExecState *, class KJS::JSValue *)
	?append@UString@KJS@@QAEAAV12@PBD@Z @ 227 NONAME ; class KJS::UString & KJS::UString::append(char const *)

