EXPORTS
	??0CSvgEngineInterfaceImpl@@QAE@XZ @ 1 NONAME ; CSvgEngineInterfaceImpl::CSvgEngineInterfaceImpl(void)
	??1CSvgEngineInterfaceImpl@@UAE@XZ @ 2 NONAME ; CSvgEngineInterfaceImpl::~CSvgEngineInterfaceImpl(void)
	?ADDCloseTo@CSvgEngineInterfaceImpl@@QAEXPAVCGfxGeneralPath@@@Z @ 3 NONAME ; void CSvgEngineInterfaceImpl::ADDCloseTo(class CGfxGeneralPath *)
	?ADDCurveTo@CSvgEngineInterfaceImpl@@QAEXPAVCGfxGeneralPath@@MMMMMM@Z @ 4 NONAME ; void CSvgEngineInterfaceImpl::ADDCurveTo(class CGfxGeneralPath *, float, float, float, float, float, float)
	?ADDLineTo@CSvgEngineInterfaceImpl@@QAEXPAVCGfxGeneralPath@@MM@Z @ 5 NONAME ; void CSvgEngineInterfaceImpl::ADDLineTo(class CGfxGeneralPath *, float, float)
	?ADDMoveTo@CSvgEngineInterfaceImpl@@QAEXPAVCGfxGeneralPath@@MM@Z @ 6 NONAME ; void CSvgEngineInterfaceImpl::ADDMoveTo(class CGfxGeneralPath *, float, float)
	?ADDQuadTo@CSvgEngineInterfaceImpl@@QAEXPAVCGfxGeneralPath@@MMMM@Z @ 7 NONAME ; void CSvgEngineInterfaceImpl::ADDQuadTo(class CGfxGeneralPath *, float, float, float, float)
	?ActivateObjectInFocus@CSvgEngineInterfaceImpl@@QAEXXZ @ 8 NONAME ; void CSvgEngineInterfaceImpl::ActivateObjectInFocus(void)
	?AddAnimationListener@CSvgEngineInterfaceImpl@@QAEXPAVMSvgAnimationListener@@H@Z @ 9 NONAME ; void CSvgEngineInterfaceImpl::AddAnimationListener(class MSvgAnimationListener *, int)
	?AddExternalData@CSvgEngineInterfaceImpl@@QAEPAVCSvgElementImpl@@PAVCSvgDocumentImpl@@ABVTDesC16@@ABVTDesC8@@HHH@Z @ 10 NONAME ; class CSvgElementImpl * CSvgEngineInterfaceImpl::AddExternalData(class CSvgDocumentImpl *, class TDesC16 const &, class TDesC8 const &, int, int, int)
	?AddHyperlinkListener@CSvgEngineInterfaceImpl@@QAEXPAVMSvgHyperlinkListener@@H@Z @ 11 NONAME ; void CSvgEngineInterfaceImpl::AddHyperlinkListener(class MSvgHyperlinkListener *, int)
	?AddListener@CSvgEngineInterfaceImpl@@QAEXPBVMSvgListener@@W4TSvgListenerType@@H@Z @ 12 NONAME ; void CSvgEngineInterfaceImpl::AddListener(class MSvgListener const *, enum TSvgListenerType, int)
	?AddTextAreaListener@CSvgEngineInterfaceImpl@@QAEHPAVMSvgTextAreaListener@@H@Z @ 13 NONAME ; int CSvgEngineInterfaceImpl::AddTextAreaListener(class MSvgTextAreaListener *, int)
	?AddTextListener@CSvgEngineInterfaceImpl@@QAEHPAVMSvgTextListener@@H@Z @ 14 NONAME ; int CSvgEngineInterfaceImpl::AddTextListener(class MSvgTextListener *, int)
	?AddToEventReceiverList@CSvgEngineInterfaceImpl@@QAEXPAVCXmlElementImpl@@E@Z @ 15 NONAME ; void CSvgEngineInterfaceImpl::AddToEventReceiverList(class CXmlElementImpl *, unsigned char)
	?AppendChild@CSvgEngineInterfaceImpl@@QAEXPAVCXmlElementImpl@@0H@Z @ 16 NONAME ; void CSvgEngineInterfaceImpl::AppendChild(class CXmlElementImpl *, class CXmlElementImpl *, int)
	?AssignImageData@CSvgEngineInterfaceImpl@@QAEXABVTDesC16@@PAVHBufC8@@@Z @ 17 NONAME ; void CSvgEngineInterfaceImpl::AssignImageData(class TDesC16 const &, class HBufC8 *)
	?CancelLoad@CSvgEngineInterfaceImpl@@QAEXH@Z @ 18 NONAME ; void CSvgEngineInterfaceImpl::CancelLoad(int)
	?ChooseViewBoxIfNotSet@CSvgEngineInterfaceImpl@@QAEXH@Z @ 19 NONAME ; void CSvgEngineInterfaceImpl::ChooseViewBoxIfNotSet(int)
	?ClearFrameBuffer@CSvgEngineInterfaceImpl@@QAEXPAVCFbsBitmap@@KH@Z @ 20 NONAME ; void CSvgEngineInterfaceImpl::ClearFrameBuffer(class CFbsBitmap *, unsigned long, int)
	?ConstructL@CSvgEngineInterfaceImpl@@IAEXPAVCFbsBitmap@@PAVMSvgRequestObserver@@AAVTFontSpec@@@Z @ 21 NONAME ; void CSvgEngineInterfaceImpl::ConstructL(class CFbsBitmap *, class MSvgRequestObserver *, class TFontSpec &)
	?ConstructL@CSvgEngineInterfaceImpl@@IAEXXZ @ 22 NONAME ; void CSvgEngineInterfaceImpl::ConstructL(void)
	?ContentDimensions@CSvgEngineInterfaceImpl@@QAE?AVTSize@@H@Z @ 23 NONAME ; class TSize CSvgEngineInterfaceImpl::ContentDimensions(int)
	?ContentDimensions@CSvgEngineInterfaceImpl@@QAEXAAM0H@Z @ 24 NONAME ; void CSvgEngineInterfaceImpl::ContentDimensions(float &, float &, int)
	?ContentDimensionsInPercentage@CSvgEngineInterfaceImpl@@QAE?AVTSize@@H@Z @ 25 NONAME ; class TSize CSvgEngineInterfaceImpl::ContentDimensionsInPercentage(int)
	?CreateElementL@CSvgEngineInterfaceImpl@@QAEPAVCXmlElementImpl@@PAVCSvgDocumentImpl@@H@Z @ 26 NONAME ; class CXmlElementImpl * CSvgEngineInterfaceImpl::CreateElementL(class CSvgDocumentImpl *, int)
	?CurrentState@CSvgEngineInterfaceImpl@@QAEHH@Z @ 27 NONAME ; int CSvgEngineInterfaceImpl::CurrentState(int)
	?CustomOption@CSvgEngineInterfaceImpl@@QAEXHH@Z @ 28 NONAME ; void CSvgEngineInterfaceImpl::CustomOption(int, int)
	?DeleteDom@CSvgEngineInterfaceImpl@@QAEPAVMSvgError@@H@Z @ 29 NONAME ; class MSvgError * CSvgEngineInterfaceImpl::DeleteDom(int)
	?Destroy@CSvgEngineInterfaceImpl@@QAEXXZ @ 30 NONAME ; void CSvgEngineInterfaceImpl::Destroy(void)
	?DestroyDocument@CSvgEngineInterfaceImpl@@QAEXPAVCSvgDocumentImpl@@@Z @ 31 NONAME ; void CSvgEngineInterfaceImpl::DestroyDocument(class CSvgDocumentImpl *)
	?DestroyElement@CSvgEngineInterfaceImpl@@QAEXPAVCXmlElementImpl@@@Z @ 32 NONAME ; void CSvgEngineInterfaceImpl::DestroyElement(class CXmlElementImpl *)
	?DestroyEngine@CSvgEngineInterfaceImpl@@QAEXPAVCSvgEngineImpl@@@Z @ 33 NONAME ; void CSvgEngineInterfaceImpl::DestroyEngine(class CSvgEngineImpl *)
	?DispatchFocusInEvent@CSvgEngineInterfaceImpl@@QAEXPAVCSvgDocumentImpl@@PAVCSvgElementImpl@@@Z @ 34 NONAME ; void CSvgEngineInterfaceImpl::DispatchFocusInEvent(class CSvgDocumentImpl *, class CSvgElementImpl *)
	?DispatchFocusOutEvent@CSvgEngineInterfaceImpl@@QAEXPAVCSvgDocumentImpl@@PAVCSvgElementImpl@@@Z @ 35 NONAME ; void CSvgEngineInterfaceImpl::DispatchFocusOutEvent(class CSvgDocumentImpl *, class CSvgElementImpl *)
	?DispatchMouseEventsAt@CSvgEngineInterfaceImpl@@QAEHPAVCSvgDocumentImpl@@HHPAVMSvgMouseListener@@@Z @ 36 NONAME ; int CSvgEngineInterfaceImpl::DispatchMouseEventsAt(class CSvgDocumentImpl *, int, int, class MSvgMouseListener *)
	?DrawBox@CSvgEngineInterfaceImpl@@QAEPAVCSvgElementImpl@@VTRect@@H@Z @ 37 NONAME ; class CSvgElementImpl * CSvgEngineInterfaceImpl::DrawBox(class TRect, int)
	?Duration@CSvgEngineInterfaceImpl@@QAEKH@Z @ 38 NONAME ; unsigned long CSvgEngineInterfaceImpl::Duration(int)
	?FillDocumentL@CSvgEngineInterfaceImpl@@QAEXPAVCSvgDocumentImpl@@ABVTDesC16@@@Z @ 39 NONAME ; void CSvgEngineInterfaceImpl::FillDocumentL(class CSvgDocumentImpl *, class TDesC16 const &)
	?FindAllElements@CSvgEngineInterfaceImpl@@QAEXPAVCSvgElementImpl@@HAAV?$RPointerArray@VCSvgElementImpl@@@@H@Z @ 40 NONAME ; void CSvgEngineInterfaceImpl::FindAllElements(class CSvgElementImpl *, int, class RPointerArray<class CSvgElementImpl> &, int)
	?FocusNext@CSvgEngineInterfaceImpl@@QAE?AVTRect@@XZ @ 41 NONAME ; class TRect CSvgEngineInterfaceImpl::FocusNext(void)
	?FocusPrevious@CSvgEngineInterfaceImpl@@QAE?AVTRect@@XZ @ 42 NONAME ; class TRect CSvgEngineInterfaceImpl::FocusPrevious(void)
	?FramesPerSecond@CSvgEngineInterfaceImpl@@QAENHH@Z @ 43 NONAME ; double CSvgEngineInterfaceImpl::FramesPerSecond(int, int)
	?GenerateMask@CSvgEngineInterfaceImpl@@QAEXPAVCFbsBitmap@@H@Z @ 44 NONAME ; void CSvgEngineInterfaceImpl::GenerateMask(class CFbsBitmap *, int)
	?GetAttribute@CSvgSvgElementImpl@@QAEHABVTDesC16@@AAVTDes16@@@Z @ 45 NONAME ; int CSvgSvgElementImpl::GetAttribute(class TDesC16 const &, class TDes16 &)
	?GetElementBoundingbox@CSvgEngineInterfaceImpl@@QAEXPAVCSvgElementImpl@@AAM111@Z @ 46 NONAME ; void CSvgEngineInterfaceImpl::GetElementBoundingbox(class CSvgElementImpl *, float &, float &, float &, float &)
	?GetElementById@CSvgEngineInterfaceImpl@@QAEPAVCXmlElementImpl@@PAVCSvgDocumentImpl@@ABVTDesC16@@@Z @ 47 NONAME ; class CXmlElementImpl * CSvgEngineInterfaceImpl::GetElementById(class CSvgDocumentImpl *, class TDesC16 const &)
	?GetElementColorAttribute@CSvgEngineInterfaceImpl@@QAEJPAVCSvgElementImpl@@H@Z @ 48 NONAME ; long CSvgEngineInterfaceImpl::GetElementColorAttribute(class CSvgElementImpl *, int)
	?GetElementDesAttribute@CSvgEngineInterfaceImpl@@QAEHPAVCSvgElementImpl@@HAAVTPtrC16@@@Z @ 49 NONAME ; int CSvgEngineInterfaceImpl::GetElementDesAttribute(class CSvgElementImpl *, int, class TPtrC16 &)
	?GetElementFloatAttribute@CSvgEngineInterfaceImpl@@QAEMPAVCSvgElementImpl@@H@Z @ 50 NONAME ; float CSvgEngineInterfaceImpl::GetElementFloatAttribute(class CSvgElementImpl *, int)
	?GetElementType@CSvgEngineInterfaceImpl@@QAEHPAVCXmlElementImpl@@@Z @ 51 NONAME ; int CSvgEngineInterfaceImpl::GetElementType(class CXmlElementImpl *)
	?GetElementUnScaledBoundingBox@CSvgEngineInterfaceImpl@@QAEXPAVCSvgElementImpl@@AAM111@Z @ 52 NONAME ; void CSvgEngineInterfaceImpl::GetElementUnScaledBoundingBox(class CSvgElementImpl *, float &, float &, float &, float &)
	?GetEnumAttribute@CSvgEngineInterfaceImpl@@QAEHPAVCSvgElementImpl@@HAAJ@Z @ 53 NONAME ; int CSvgEngineInterfaceImpl::GetEnumAttribute(class CSvgElementImpl *, int, long &)
	?GetExternalListItemL@CSvgEngineInterfaceImpl@@QAEXPAVCSvgDocumentImpl@@HAAVTPtrC16@@@Z @ 54 NONAME ; void CSvgEngineInterfaceImpl::GetExternalListItemL(class CSvgDocumentImpl *, int, class TPtrC16 &)
	?GetExternalListSize@CSvgEngineInterfaceImpl@@QAEHPAVCSvgDocumentImpl@@@Z @ 55 NONAME ; int CSvgEngineInterfaceImpl::GetExternalListSize(class CSvgDocumentImpl *)
	?GetFirstChild@CSvgEngineInterfaceImpl@@QAEPAVCXmlElementImpl@@PAV2@@Z @ 56 NONAME ; class CXmlElementImpl * CSvgEngineInterfaceImpl::GetFirstChild(class CXmlElementImpl *)
	?GetFocusedElement@CSvgEngineInterfaceImpl@@QAEPAVCXmlElementImpl@@PAVCSvgDocumentImpl@@@Z @ 57 NONAME ; class CXmlElementImpl * CSvgEngineInterfaceImpl::GetFocusedElement(class CSvgDocumentImpl *)
	?GetFourPointElementBoundingBox@CSvgEngineInterfaceImpl@@QAEXPAVCSvgTextElementImpl@@AAVTPoint@@111@Z @ 58 NONAME ; void CSvgEngineInterfaceImpl::GetFourPointElementBoundingBox(class CSvgTextElementImpl *, class TPoint &, class TPoint &, class TPoint &, class TPoint &)
	?GetId@CSvgEngineInterfaceImpl@@QAEPAVTDesC16@@PAVCSvgDocumentImpl@@H@Z @ 59 NONAME ; class TDesC16 * CSvgEngineInterfaceImpl::GetId(class CSvgDocumentImpl *, int)
	?GetMatrixAttribute@CSvgEngineInterfaceImpl@@QAEXPAVCXmlElementImpl@@PAM11111@Z @ 60 NONAME ; void CSvgEngineInterfaceImpl::GetMatrixAttribute(class CXmlElementImpl *, float *, float *, float *, float *, float *, float *)
	?GetNextSibling@CSvgEngineInterfaceImpl@@QAEPAVCXmlElementImpl@@PAV2@@Z @ 61 NONAME ; class CXmlElementImpl * CSvgEngineInterfaceImpl::GetNextSibling(class CXmlElementImpl *)
	?GetNumberOfIds@CSvgEngineInterfaceImpl@@QAEHPAVCSvgDocumentImpl@@@Z @ 62 NONAME ; int CSvgEngineInterfaceImpl::GetNumberOfIds(class CSvgDocumentImpl *)
	?GetOwnerDocument@CSvgEngineInterfaceImpl@@QAEPAVCSvgDocumentImpl@@PAVCXmlElementImpl@@@Z @ 63 NONAME ; class CSvgDocumentImpl * CSvgEngineInterfaceImpl::GetOwnerDocument(class CXmlElementImpl *)
	?GetParentElement@CSvgEngineInterfaceImpl@@QAEPAVCXmlElementImpl@@PAV2@@Z @ 64 NONAME ; class CXmlElementImpl * CSvgEngineInterfaceImpl::GetParentElement(class CXmlElementImpl *)
	?GetPathAttribute@CSvgEngineInterfaceImpl@@QAEPAVCGfxGeneralPath@@PAVCXmlElementImpl@@H@Z @ 65 NONAME ; class CGfxGeneralPath * CSvgEngineInterfaceImpl::GetPathAttribute(class CXmlElementImpl *, int)
	?GetRectAttribute@CSvgEngineInterfaceImpl@@QAEHPAVCXmlElementImpl@@PAM111@Z @ 66 NONAME ; int CSvgEngineInterfaceImpl::GetRectAttribute(class CXmlElementImpl *, float *, float *, float *, float *)
	?GetRenderQuality@CSvgEngineInterfaceImpl@@QAEIXZ @ 67 NONAME ; unsigned int CSvgEngineInterfaceImpl::GetRenderQuality(void)
	?GetRootElement@CSvgEngineInterfaceImpl@@QAEPAVCXmlElementImpl@@PAVCSvgDocumentImpl@@@Z @ 68 NONAME ; class CXmlElementImpl * CSvgEngineInterfaceImpl::GetRootElement(class CSvgDocumentImpl *)
	?GetSegmentCount@CSvgEngineInterfaceImpl@@QAEHPAVCGfxGeneralPath@@@Z @ 69 NONAME ; int CSvgEngineInterfaceImpl::GetSegmentCount(class CGfxGeneralPath *)
	?GetSegmentParameter@CSvgEngineInterfaceImpl@@QAEMPAVCGfxGeneralPath@@HH@Z @ 70 NONAME ; float CSvgEngineInterfaceImpl::GetSegmentParameter(class CGfxGeneralPath *, int, int)
	?GetSegmentType@CSvgEngineInterfaceImpl@@QAEHPAVCGfxGeneralPath@@H@Z @ 71 NONAME ; int CSvgEngineInterfaceImpl::GetSegmentType(class CGfxGeneralPath *, int)
	?GetSvgBoundingBox@CSvgEngineInterfaceImpl@@QAE?AVTRect@@H@Z @ 72 NONAME ; class TRect CSvgEngineInterfaceImpl::GetSvgBoundingBox(int)
	?GetTextForTextAreaElement@CSvgEngineInterfaceImpl@@QAEHHAAHAAVTDes16@@@Z @ 73 NONAME ; int CSvgEngineInterfaceImpl::GetTextForTextAreaElement(int, int &, class TDes16 &)
	?GetTextForTextElement@CSvgEngineInterfaceImpl@@QAEHHAAHAAVTDes16@@@Z @ 74 NONAME ; int CSvgEngineInterfaceImpl::GetTextForTextElement(int, int &, class TDes16 &)
	?GetUnscaledContentSize@CSvgEngineInterfaceImpl@@QAE?AVTSize@@H@Z @ 75 NONAME ; class TSize CSvgEngineInterfaceImpl::GetUnscaledContentSize(int)
	?GetViewportHeight@CSvgEngineInterfaceImpl@@QAEHPAVCSvgDocumentImpl@@@Z @ 76 NONAME ; int CSvgEngineInterfaceImpl::GetViewportHeight(class CSvgDocumentImpl *)
	?GetViewportUnits@CSvgEngineInterfaceImpl@@QAEHPAVCSvgDocumentImpl@@@Z @ 77 NONAME ; int CSvgEngineInterfaceImpl::GetViewportUnits(class CSvgDocumentImpl *)
	?GetViewportWidth@CSvgEngineInterfaceImpl@@QAEHPAVCSvgDocumentImpl@@@Z @ 78 NONAME ; int CSvgEngineInterfaceImpl::GetViewportWidth(class CSvgDocumentImpl *)
	?InitRootElement@CSvgEngineInterfaceImpl@@QAEXPAVCSvgDocumentImpl@@@Z @ 79 NONAME ; void CSvgEngineInterfaceImpl::InitRootElement(class CSvgDocumentImpl *)
	?InitSvgStylePropertiesWithNullL@CSvgEngineInterfaceImpl@@QAEXPAVCSvgElementImpl@@@Z @ 80 NONAME ; void CSvgEngineInterfaceImpl::InitSvgStylePropertiesWithNullL(class CSvgElementImpl *)
	?InitializeEngine@CSvgEngineInterfaceImpl@@QAEXPAVCSvgEngineImpl@@H@Z @ 81 NONAME ; void CSvgEngineInterfaceImpl::InitializeEngine(class CSvgEngineImpl *, int)
	?IsContentInteractive@CSvgEngineInterfaceImpl@@QAEHPAVCSvgDocumentImpl@@H@Z @ 82 NONAME ; int CSvgEngineInterfaceImpl::IsContentInteractive(class CSvgDocumentImpl *, int)
	?IsElementActive@CSvgEngineInterfaceImpl@@QAEHPAVCSvgElementImpl@@@Z @ 83 NONAME ; int CSvgEngineInterfaceImpl::IsElementActive(class CSvgElementImpl *)
	?IsElementVisible@CSvgEngineInterfaceImpl@@QAEHHH@Z @ 84 NONAME ; int CSvgEngineInterfaceImpl::IsElementVisible(int, int)
	?IsLoading@CSvgEngineInterfaceImpl@@QAEHH@Z @ 85 NONAME ; int CSvgEngineInterfaceImpl::IsLoading(int)
	?IsPanPossible@CSvgEngineInterfaceImpl@@QAEHHHH@Z @ 86 NONAME ; int CSvgEngineInterfaceImpl::IsPanPossible(int, int, int)
	?IsPanPossibleFourWay@CSvgEngineInterfaceImpl@@QAEXAAH000H@Z @ 87 NONAME ; void CSvgEngineInterfaceImpl::IsPanPossibleFourWay(int &, int &, int &, int &, int)
	?IsRemoveable@CSvgEngineInterfaceImpl@@QAEHPAVCSvgElementImpl@@H@Z @ 88 NONAME ; int CSvgEngineInterfaceImpl::IsRemoveable(class CSvgElementImpl *, int)
	?KeyPress@CSvgEngineInterfaceImpl@@QAEXABUTKeyEvent@@H@Z @ 89 NONAME ; void CSvgEngineInterfaceImpl::KeyPress(struct TKeyEvent const &, int)
	?Load@CSvgEngineInterfaceImpl@@QAEPAVMSvgError@@AAVRFile@@@Z @ 90 NONAME ; class MSvgError * CSvgEngineInterfaceImpl::Load(class RFile &)
	?Load@CSvgEngineInterfaceImpl@@QAEPAVMSvgError@@ABVTDesC16@@@Z @ 91 NONAME ; class MSvgError * CSvgEngineInterfaceImpl::Load(class TDesC16 const &)
	?Load@CSvgEngineInterfaceImpl@@QAEPAVMSvgError@@ABVTDesC8@@@Z @ 92 NONAME ; class MSvgError * CSvgEngineInterfaceImpl::Load(class TDesC8 const &)
	?MediaTime@CSvgEngineInterfaceImpl@@QAEJH@Z @ 93 NONAME ; long CSvgEngineInterfaceImpl::MediaTime(int)
	?MouseDown@CSvgEngineInterfaceImpl@@QAEHHHH@Z @ 94 NONAME ; int CSvgEngineInterfaceImpl::MouseDown(int, int, int)
	?MouseMove@CSvgEngineInterfaceImpl@@QAEXHHH@Z @ 95 NONAME ; void CSvgEngineInterfaceImpl::MouseMove(int, int, int)
	?MouseUp@CSvgEngineInterfaceImpl@@QAEXHHH@Z @ 96 NONAME ; void CSvgEngineInterfaceImpl::MouseUp(int, int, int)
	?NewL@CSvgEngineInterfaceImpl@@SAPAV1@PAVCFbsBitmap@@PAVMSvgRequestObserver@@AAVTFontSpec@@@Z @ 97 NONAME ; class CSvgEngineInterfaceImpl * CSvgEngineInterfaceImpl::NewL(class CFbsBitmap *, class MSvgRequestObserver *, class TFontSpec &)
	?NewLC@CSvgEngineInterfaceImpl@@SAPAV1@PAVCFbsBitmap@@PAVMSvgRequestObserver@@AAVTFontSpec@@@Z @ 98 NONAME ; class CSvgEngineInterfaceImpl * CSvgEngineInterfaceImpl::NewLC(class CFbsBitmap *, class MSvgRequestObserver *, class TFontSpec &)
	?OriginalView@CSvgEngineInterfaceImpl@@QAEXH@Z @ 99 NONAME ; void CSvgEngineInterfaceImpl::OriginalView(int)
	?Pan@CSvgEngineInterfaceImpl@@QAEXHHH@Z @ 100 NONAME ; void CSvgEngineInterfaceImpl::Pan(int, int, int)
	?PanPosition@CSvgEngineInterfaceImpl@@QAE?AVTPoint@@H@Z @ 101 NONAME ; class TPoint CSvgEngineInterfaceImpl::PanPosition(int)
	?Pause@CSvgEngineInterfaceImpl@@QAEXPAVCSvgEngineImpl@@@Z @ 102 NONAME ; void CSvgEngineInterfaceImpl::Pause(class CSvgEngineImpl *)
	?Position@CSvgEngineInterfaceImpl@@QAE?AVTPoint@@H@Z @ 103 NONAME ; class TPoint CSvgEngineInterfaceImpl::Position(int)
	?PrepareDom@CSvgEngineInterfaceImpl@@QAEPAVMSvgError@@AAVRFile@@AAHH@Z @ 104 NONAME ; class MSvgError * CSvgEngineInterfaceImpl::PrepareDom(class RFile &, int &, int)
	?PrepareDom@CSvgEngineInterfaceImpl@@QAEPAVMSvgError@@ABVTDesC16@@AAHH@Z @ 105 NONAME ; class MSvgError * CSvgEngineInterfaceImpl::PrepareDom(class TDesC16 const &, int &, int)
	?PrepareDom@CSvgEngineInterfaceImpl@@QAEPAVMSvgError@@ABVTDesC8@@AAHH@Z @ 106 NONAME ; class MSvgError * CSvgEngineInterfaceImpl::PrepareDom(class TDesC8 const &, int &, int)
	?PrintAllElements@CSvgEngineInterfaceImpl@@QAEXPAVCSvgDocumentImpl@@@Z @ 107 NONAME ; void CSvgEngineInterfaceImpl::PrintAllElements(class CSvgDocumentImpl *)
	?PrintElementsStyles@CSvgEngineInterfaceImpl@@QAEXPAVCSvgElementImpl@@@Z @ 108 NONAME ; void CSvgEngineInterfaceImpl::PrintElementsStyles(class CSvgElementImpl *)
	?Redraw@CSvgEngineInterfaceImpl@@QAEXHH@Z @ 109 NONAME ; void CSvgEngineInterfaceImpl::Redraw(int, int)
	?RemoveAnimationListener@CSvgEngineInterfaceImpl@@QAEXPAVMSvgAnimationListener@@H@Z @ 110 NONAME ; void CSvgEngineInterfaceImpl::RemoveAnimationListener(class MSvgAnimationListener *, int)
	?RemoveChild@CSvgEngineInterfaceImpl@@QAEXPAVCXmlElementImpl@@0@Z @ 111 NONAME ; void CSvgEngineInterfaceImpl::RemoveChild(class CXmlElementImpl *, class CXmlElementImpl *)
	?RemoveFromEventReceiverList@CSvgEngineInterfaceImpl@@QAEXPAVCXmlElementImpl@@@Z @ 112 NONAME ; void CSvgEngineInterfaceImpl::RemoveFromEventReceiverList(class CXmlElementImpl *)
	?RemoveHyperlinkListener@CSvgEngineInterfaceImpl@@QAEXPAVMSvgHyperlinkListener@@H@Z @ 113 NONAME ; void CSvgEngineInterfaceImpl::RemoveHyperlinkListener(class MSvgHyperlinkListener *, int)
	?RemoveListener@CSvgEngineInterfaceImpl@@QAEXPBVMSvgListener@@W4TSvgListenerType@@H@Z @ 114 NONAME ; void CSvgEngineInterfaceImpl::RemoveListener(class MSvgListener const *, enum TSvgListenerType, int)
	?RemoveTextAreaListener@CSvgEngineInterfaceImpl@@QAEHPAVMSvgTextAreaListener@@H@Z @ 115 NONAME ; int CSvgEngineInterfaceImpl::RemoveTextAreaListener(class MSvgTextAreaListener *, int)
	?RemoveTextListener@CSvgEngineInterfaceImpl@@QAEHPAVMSvgTextListener@@H@Z @ 116 NONAME ; int CSvgEngineInterfaceImpl::RemoveTextListener(class MSvgTextListener *, int)
	?RenderDom@CSvgEngineInterfaceImpl@@QAEPAVMSvgError@@HPAVCFbsBitmap@@0@Z @ 117 NONAME ; class MSvgError * CSvgEngineInterfaceImpl::RenderDom(int, class CFbsBitmap *, class CFbsBitmap *)
	?RenderFrame@CSvgEngineInterfaceImpl@@QAEXPAVCSvgEngineImpl@@I@Z @ 118 NONAME ; void CSvgEngineInterfaceImpl::RenderFrame(class CSvgEngineImpl *, unsigned int)
	?RenderFrames@CSvgEngineInterfaceImpl@@QAEPAVMSvgError@@HABVTSize@@IIIW4TDisplayMode@@1AAV?$RPointerArray@VCFbsBitmap@@@@2AAV?$RArray@I@@H@Z @ 119 NONAME ; class MSvgError * CSvgEngineInterfaceImpl::RenderFrames(int, class TSize const &, unsigned int, unsigned int, unsigned int, enum TDisplayMode, enum TDisplayMode, class RPointerArray<class CFbsBitmap> &, class RPointerArray<class CFbsBitmap> &, class RArray<unsigned int> &, int)
	?Replay@CSvgEngineInterfaceImpl@@QAEPAVMSvgError@@H@Z @ 120 NONAME ; class MSvgError * CSvgEngineInterfaceImpl::Replay(int)
	?Resume@CSvgEngineInterfaceImpl@@QAEXPAVCSvgEngineImpl@@@Z @ 121 NONAME ; void CSvgEngineInterfaceImpl::Resume(class CSvgEngineImpl *)
	?RootElement@CSvgDocumentImpl@@QAEPAVMXmlElement@@XZ @ 122 NONAME ; class MXmlElement * CSvgDocumentImpl::RootElement(void)
	?Rotate@CSvgEngineInterfaceImpl@@QAEXMHHH@Z @ 123 NONAME ; void CSvgEngineInterfaceImpl::Rotate(float, int, int, int)
	?SVGElementGetUsedElement@CSvgEngineInterfaceImpl@@QAEPAVCXmlElementImpl@@PAV2@@Z @ 124 NONAME ; class CXmlElementImpl * CSvgEngineInterfaceImpl::SVGElementGetUsedElement(class CXmlElementImpl *)
	?SVGElementInDom@CSvgEngineInterfaceImpl@@QAEHPAVCSvgDocumentImpl@@PAVCXmlElementImpl@@@Z @ 125 NONAME ; int CSvgEngineInterfaceImpl::SVGElementInDom(class CSvgDocumentImpl *, class CXmlElementImpl *)
	?SaveSvg@CSvgEngineInterfaceImpl@@QAEXHABVTDesC16@@H@Z @ 126 NONAME ; void CSvgEngineInterfaceImpl::SaveSvg(int, class TDesC16 const &, int)
	?SaveSvgDom@CSvgEngineInterfaceImpl@@QAEPAVMSvgError@@HABVTDesC16@@H@Z @ 127 NONAME ; class MSvgError * CSvgEngineInterfaceImpl::SaveSvgDom(int, class TDesC16 const &, int)
	?SearchForText@CSvgEngineInterfaceImpl@@QAEHABVTDesC16@@AAV?$RPointerArray@VMRect@@@@AAV?$RArray@VTPtrC16@@@@AAV?$RArray@H@@HH@Z @ 128 NONAME ; int CSvgEngineInterfaceImpl::SearchForText(class TDesC16 const &, class RPointerArray<class MRect> &, class RArray<class TPtrC16> &, class RArray<int> &, int, int)
	?SetAnimFrameDuration@CSvgEngineInterfaceImpl@@QAEXIH@Z @ 129 NONAME ; void CSvgEngineInterfaceImpl::SetAnimFrameDuration(unsigned int, int)
	?SetBackgroundColor@CSvgEngineInterfaceImpl@@QAEXKPAVCSvgEngineImpl@@@Z @ 130 NONAME ; void CSvgEngineInterfaceImpl::SetBackgroundColor(unsigned long, class CSvgEngineImpl *)
	?SetClientWindow@CSvgEngineInterfaceImpl@@QAEXPAVRWindow@@@Z @ 131 NONAME ; void CSvgEngineInterfaceImpl::SetClientWindow(class RWindow *)
	?SetDRMMode@CSvgEngineInterfaceImpl@@QAEXHH@Z @ 132 NONAME ; void CSvgEngineInterfaceImpl::SetDRMMode(int, int)
	?SetDataRetrievalTimeOut@CSvgEngineInterfaceImpl@@QAEXIH@Z @ 133 NONAME ; void CSvgEngineInterfaceImpl::SetDataRetrievalTimeOut(unsigned int, int)
	?SetDocument@CSvgEngineInterfaceImpl@@QAEXPAVCSvgEngineImpl@@PAVCSvgDocumentImpl@@@Z @ 134 NONAME ; void CSvgEngineInterfaceImpl::SetDocument(class CSvgEngineImpl *, class CSvgDocumentImpl *)
	?SetElementColorAttribute@CSvgEngineInterfaceImpl@@QAEXPAVCSvgElementImpl@@HJ@Z @ 135 NONAME ; void CSvgEngineInterfaceImpl::SetElementColorAttribute(class CSvgElementImpl *, int, long)
	?SetElementDesAttribute@CSvgEngineInterfaceImpl@@QAEXPAVCSvgElementImpl@@HABVTDesC16@@@Z @ 136 NONAME ; void CSvgEngineInterfaceImpl::SetElementDesAttribute(class CSvgElementImpl *, int, class TDesC16 const &)
	?SetElementFloatAttribute@CSvgEngineInterfaceImpl@@QAEXPAVCSvgElementImpl@@HM@Z @ 137 NONAME ; void CSvgEngineInterfaceImpl::SetElementFloatAttribute(class CSvgElementImpl *, int, float)
	?SetEnumAttribute@CSvgEngineInterfaceImpl@@QAEXPAVCSvgElementImpl@@HJ@Z @ 138 NONAME ; void CSvgEngineInterfaceImpl::SetEnumAttribute(class CSvgElementImpl *, int, long)
	?SetFirstChildElement@CSvgEngineInterfaceImpl@@QAEXPAVCXmlElementImpl@@0@Z @ 139 NONAME ; void CSvgEngineInterfaceImpl::SetFirstChildElement(class CXmlElementImpl *, class CXmlElementImpl *)
	?SetFocusElement@CSvgEngineInterfaceImpl@@QAEXPAVCXmlElementImpl@@PAVCSvgDocumentImpl@@@Z @ 140 NONAME ; void CSvgEngineInterfaceImpl::SetFocusElement(class CXmlElementImpl *, class CSvgDocumentImpl *)
	?SetFrameBuffer@CSvgEngineInterfaceImpl@@QAEXPAVCFbsBitmap@@H@Z @ 141 NONAME ; void CSvgEngineInterfaceImpl::SetFrameBuffer(class CFbsBitmap *, int)
	?SetGdiContextL@CSvgEngineInterfaceImpl@@QAEXPAVCSvgEngineImpl@@PAVCFbsBitmap@@@Z @ 142 NONAME ; void CSvgEngineInterfaceImpl::SetGdiContextL(class CSvgEngineImpl *, class CFbsBitmap *)
	?SetMatrixAttribute@CSvgEngineInterfaceImpl@@QAEXPAVCXmlElementImpl@@MMMMMM@Z @ 143 NONAME ; void CSvgEngineInterfaceImpl::SetMatrixAttribute(class CXmlElementImpl *, float, float, float, float, float, float)
	?SetMediaTime@CSvgEngineInterfaceImpl@@QAEXJH@Z @ 144 NONAME ; void CSvgEngineInterfaceImpl::SetMediaTime(long, int)
	?SetNextSibling@CSvgEngineInterfaceImpl@@QAEXPAVCXmlElementImpl@@0@Z @ 145 NONAME ; void CSvgEngineInterfaceImpl::SetNextSibling(class CXmlElementImpl *, class CXmlElementImpl *)
	?SetParentElement@CSvgEngineInterfaceImpl@@QAEXPAVCXmlElementImpl@@0@Z @ 146 NONAME ; void CSvgEngineInterfaceImpl::SetParentElement(class CXmlElementImpl *, class CXmlElementImpl *)
	?SetPathAttribute@CSvgEngineInterfaceImpl@@QAEXPAVCSvgElementImpl@@HPAVCGfxGeneralPath@@@Z @ 147 NONAME ; void CSvgEngineInterfaceImpl::SetPathAttribute(class CSvgElementImpl *, int, class CGfxGeneralPath *)
	?SetPreserveAspectRatio@CSvgEngineInterfaceImpl@@QAEXPAVCSvgDocumentImpl@@W4TSvgPreserveAspectAlignType@@W4TSvgMeetOrSliceType@@H@Z @ 148 NONAME ; void CSvgEngineInterfaceImpl::SetPreserveAspectRatio(class CSvgDocumentImpl *, enum TSvgPreserveAspectAlignType, enum TSvgMeetOrSliceType, int)
	?SetRectAttribute@CSvgEngineInterfaceImpl@@QAEXPAVCXmlElementImpl@@MMMM@Z @ 149 NONAME ; void CSvgEngineInterfaceImpl::SetRectAttribute(class CXmlElementImpl *, float, float, float, float)
	?SetRenderQuality@CSvgEngineInterfaceImpl@@QAEXIH@Z @ 150 NONAME ; void CSvgEngineInterfaceImpl::SetRenderQuality(unsigned int, int)
	?SetRequestObserver@CSvgEngineInterfaceImpl@@QAEXPAVCSvgEngineImpl@@PAVMSvgRequestObserver@@@Z @ 151 NONAME ; void CSvgEngineInterfaceImpl::SetRequestObserver(class CSvgEngineImpl *, class MSvgRequestObserver *)
	?SetSvgDimensionToFrameBuffer@CSvgEngineInterfaceImpl@@QAEXIIH@Z @ 152 NONAME ; void CSvgEngineInterfaceImpl::SetSvgDimensionToFrameBuffer(unsigned int, unsigned int, int)
	?SetTextForTextAreaElement@CSvgEngineInterfaceImpl@@QAEHHAAVTDesC16@@@Z @ 153 NONAME ; int CSvgEngineInterfaceImpl::SetTextForTextAreaElement(int, class TDesC16 &)
	?SetTextForTextElement@CSvgEngineInterfaceImpl@@QAEHHAAVTDesC16@@@Z @ 154 NONAME ; int CSvgEngineInterfaceImpl::SetTextForTextElement(int, class TDesC16 &)
	?SetThumbNailMode@CSvgEngineInterfaceImpl@@QAEXHH@Z @ 155 NONAME ; void CSvgEngineInterfaceImpl::SetThumbNailMode(int, int)
	?SetViewportHeight@CSvgEngineInterfaceImpl@@QAEXPAVCSvgDocumentImpl@@H@Z @ 156 NONAME ; void CSvgEngineInterfaceImpl::SetViewportHeight(class CSvgDocumentImpl *, int)
	?SetViewportWidth@CSvgEngineInterfaceImpl@@QAEXPAVCSvgDocumentImpl@@H@Z @ 157 NONAME ; void CSvgEngineInterfaceImpl::SetViewportWidth(class CSvgDocumentImpl *, int)
	?Size@CSvgEngineInterfaceImpl@@QAE?AVTSize@@H@Z @ 158 NONAME ; class TSize CSvgEngineInterfaceImpl::Size(int)
	?Start@CSvgEngineInterfaceImpl@@QAEXPAVCSvgEngineImpl@@H@Z @ 159 NONAME ; void CSvgEngineInterfaceImpl::Start(class CSvgEngineImpl *, int)
	?StartEngine@CSvgEngineInterfaceImpl@@QAEXPAVCSvgEngineImpl@@@Z @ 160 NONAME ; void CSvgEngineInterfaceImpl::StartEngine(class CSvgEngineImpl *)
	?Stop@CSvgEngineInterfaceImpl@@QAEXPAVCSvgEngineImpl@@@Z @ 161 NONAME ; void CSvgEngineInterfaceImpl::Stop(class CSvgEngineImpl *)
	?SvgActivateAnimation@CSvgEngineInterfaceImpl@@QAEXPAVCSvgDocumentImpl@@@Z @ 162 NONAME ; void CSvgEngineInterfaceImpl::SvgActivateAnimation(class CSvgDocumentImpl *)
	?SvgBeginElementAt@CSvgEngineInterfaceImpl@@QAEXPAVCXmlElementImpl@@KPAVCSvgDocumentImpl@@@Z @ 163 NONAME ; void CSvgEngineInterfaceImpl::SvgBeginElementAt(class CXmlElementImpl *, unsigned long, class CSvgDocumentImpl *)
	?SvgCreatePath@CSvgEngineInterfaceImpl@@QAEPAVCGfxGeneralPath@@XZ @ 164 NONAME ; class CGfxGeneralPath * CSvgEngineInterfaceImpl::SvgCreatePath(void)
	?SvgDestroyPath@CSvgEngineInterfaceImpl@@QAEXPAVCGfxGeneralPath@@@Z @ 165 NONAME ; void CSvgEngineInterfaceImpl::SvgDestroyPath(class CGfxGeneralPath *)
	?SvgDocument@CSvgEngineInterfaceImpl@@QAEPAVCSvgDocumentImpl@@XZ @ 166 NONAME ; class CSvgDocumentImpl * CSvgEngineInterfaceImpl::SvgDocument(void)
	?SvgDocumentNewL@CSvgEngineInterfaceImpl@@QAEPAVCSvgDocumentImpl@@XZ @ 167 NONAME ; class CSvgDocumentImpl * CSvgEngineInterfaceImpl::SvgDocumentNewL(void)
	?SvgEndElementAt@CSvgEngineInterfaceImpl@@QAEXPAVCXmlElementImpl@@KPAVCSvgDocumentImpl@@@Z @ 168 NONAME ; void CSvgEngineInterfaceImpl::SvgEndElementAt(class CXmlElementImpl *, unsigned long, class CSvgDocumentImpl *)
	?SvgEngineNewL@CSvgEngineInterfaceImpl@@QAEPAVCSvgEngineImpl@@XZ @ 169 NONAME ; class CSvgEngineImpl * CSvgEngineInterfaceImpl::SvgEngineNewL(void)
	?SvgGetMediaTime@CSvgEngineInterfaceImpl@@QAEMPAVCSvgDocumentImpl@@@Z @ 170 NONAME ; float CSvgEngineInterfaceImpl::SvgGetMediaTime(class CSvgDocumentImpl *)
	?SvgHasAnimation@CSvgEngineInterfaceImpl@@QAEHPAVCSvgDocumentImpl@@@Z @ 171 NONAME ; int CSvgEngineInterfaceImpl::SvgHasAnimation(class CSvgDocumentImpl *)
	?SvgSetMediaTime@CSvgEngineInterfaceImpl@@QAEXPAVCSvgDocumentImpl@@K@Z @ 172 NONAME ; void CSvgEngineInterfaceImpl::SvgSetMediaTime(class CSvgDocumentImpl *, unsigned long)
	?SwitchDebugInfo@CSvgEngineInterfaceImpl@@QAEXH@Z @ 173 NONAME ; void CSvgEngineInterfaceImpl::SwitchDebugInfo(int)
	?UpdatePath@CSvgEngineInterfaceImpl@@QAEXHPAVCSvgElementImpl@@@Z @ 174 NONAME ; void CSvgEngineInterfaceImpl::UpdatePath(int, class CSvgElementImpl *)
	?UseDom@CSvgEngineInterfaceImpl@@QAEPAVMSvgError@@HPAVCFbsBitmap@@0H@Z @ 175 NONAME ; class MSvgError * CSvgEngineInterfaceImpl::UseDom(int, class CFbsBitmap *, class CFbsBitmap *, int)
	?ViewportInit@CSvgEngineInterfaceImpl@@QAEXPAVCSvgDocumentImpl@@@Z @ 176 NONAME ; void CSvgEngineInterfaceImpl::ViewportInit(class CSvgDocumentImpl *)
	?WaitForImages@CSvgEngineInterfaceImpl@@QAEXHH@Z @ 177 NONAME ; void CSvgEngineInterfaceImpl::WaitForImages(int, int)
	?Zoom@CSvgEngineInterfaceImpl@@QAEXMH@Z @ 178 NONAME ; void CSvgEngineInterfaceImpl::Zoom(float, int)
	?Start@CSvgEngineInterfaceImpl@@QAEXAAPAVMSvgError@@PAVCSvgEngineImpl@@@Z @ 179 NONAME ; void CSvgEngineInterfaceImpl::Start(class MSvgError * &, class CSvgEngineImpl *)
	?MuteAudioVolume@CSvgEngineInterfaceImpl@@QAEXH@Z @ 180 NONAME ; void CSvgEngineInterfaceImpl::MuteAudioVolume(int)
	?SetAudioVolume@CSvgEngineInterfaceImpl@@QAEXHH@Z @ 181 NONAME ; void CSvgEngineInterfaceImpl::SetAudioVolume(int, int)
	?SetDRMRights@CSvgEngineInterfaceImpl@@QAEXH@Z @ 182 NONAME ; void CSvgEngineInterfaceImpl::SetDRMRights(int)
	?GetMatrixAttribute@CSvgEngineInterfaceImpl@@QAEXPAVCXmlElementImpl@@HPAM11111@Z @ 183 NONAME ; void CSvgEngineInterfaceImpl::GetMatrixAttribute(class CXmlElementImpl *, int, float *, float *, float *, float *, float *, float *)
	?ConstructL@CSvgEngineInterfaceImpl@@IAEXPAVCFbsBitmap@@PAVMSvgRequestObserver@@AAVTFontSpec@@W4SVGRendererId@@@Z @ 184 NONAME ; void CSvgEngineInterfaceImpl::ConstructL(class CFbsBitmap *, class MSvgRequestObserver *, class TFontSpec &, SVGRendererId)
	?NewL@CSvgEngineInterfaceImpl@@SAPAV1@PAVCFbsBitmap@@PAVMSvgRequestObserver@@AAVTFontSpec@@W4SVGRendererId@@@Z @ 185 NONAME ; class CSvgEngineInterfaceImpl * CSvgEngineInterfaceImpl::NewL(class CFbsBitmap *, class MSvgRequestObserver *, class TFontSpec &, SVGRendererId))
	?NewLC@CSvgEngineInterfaceImpl@@SAPAV1@PAVCFbsBitmap@@PAVMSvgRequestObserver@@AAVTFontSpec@@W4SVGRendererId@@@Z @ 186 NONAME ; class CSvgEngineInterfaceImpl * CSvgEngineInterfaceImpl::NewLC(class CFbsBitmap *, class MSvgRequestObserver *, class TFontSpec &, SVGRendererId))
	?UseDom@CSvgEngineInterfaceImpl@@QAEPAVMSvgError@@HPAVCFbsBitmap@@0VTSize@@W4TDisplayMode@@2H@Z @ 187 NONAME ; class MSvgError * CSvgEngineInterfaceImpl::UseDom(int, class CFbsBitmap *, class CFbsBitmap *, class TSize, enum TDisplayMode, enum TDisplayMode, int)
	?Start@CSvgEngineInterfaceImpl@@QAEXAAPAVMSvgError@@PBVTDesC8@@PAVCSvgEngineImpl@@@Z @ 188 NONAME ; void CSvgEngineInterfaceImpl::Start(class MSvgError * &, class TDesC8 const *, class CSvgEngineImpl *)
	?Start@CSvgEngineInterfaceImpl@@QAEXPBVTDesC8@@PAVCSvgEngineImpl@@H@Z @ 189 NONAME ; void CSvgEngineInterfaceImpl::Start(class TDesC8 const *, class CSvgEngineImpl *, int)
	?ResetContext@CSvgEngineInterfaceImpl@@QAEXH@Z @ 190 NONAME ; void CSvgEngineInterfaceImpl::ResetContext(int)
	?ConstructL@CSvgEngineInterfaceImpl@@IAEXAAVTFontSpec@@@Z @ 191 NONAME ; void CSvgEngineInterfaceImpl::ConstructL(class TFontSpec &)
	?TLVEncodedData@CSvgEngineInterfaceImpl@@QBE?BVTPtrC8@@XZ @ 192 NONAME ; class TPtrC8 const CSvgEngineInterfaceImpl::TLVEncodedData(void) const
	?GenerateMask@CSvgEngineInterfaceImpl@@QAEXPAVCSvgtBitmap@@H@Z @ 193 NONAME ; void CSvgEngineInterfaceImpl::GenerateMask(class CSvgtBitmap *, int)
	?SetGdiContextL@CSvgEngineInterfaceImpl@@QAEXPAVCSvgEngineImpl@@PAVCSvgtBitmap@@@Z @ 194 NONAME ; void CSvgEngineInterfaceImpl::SetGdiContextL(class CSvgEngineImpl *, class CSvgtBitmap *)

