EXPORTS
	??0CSenInternalCredential@@AAE@XZ @ 1 NONAME ; CSenInternalCredential::CSenInternalCredential(void)
	??0RSenCredentialPtr@@QAE@XZ @ 2 NONAME ; RSenCredentialPtr::RSenCredentialPtr(void)
	??1CSenCredentialIdentifier@@UAE@XZ @ 3 NONAME ; CSenCredentialIdentifier::~CSenCredentialIdentifier(void)
	??1CSenCredentialManager@@UAE@XZ @ 4 NONAME ; CSenCredentialManager::~CSenCredentialManager(void)
	??1CSenCredentialProperties@@UAE@XZ @ 5 NONAME ; CSenCredentialProperties::~CSenCredentialProperties(void)
	??1CSenInternalCredential@@UAE@XZ @ 6 NONAME ; CSenInternalCredential::~CSenInternalCredential(void)
	?AddCredentialObserverL@RSenCredentialPtr@@QAEXAAVMSenCredentialObserver@@@Z @ 7 NONAME ; void RSenCredentialPtr::AddCredentialObserverL(class MSenCredentialObserver &)
	?AddFacetL@CSenCredentialProperties@@UAEHABVCSenFacet@@@Z @ 8 NONAME ; int CSenCredentialProperties::AddFacetL(class CSenFacet const &)
	?Clone@RSenCredentialPtr@@QAE?AV1@XZ @ 9 NONAME ; class RSenCredentialPtr RSenCredentialPtr::Clone(void)
	?Close@RSenCredentialPtr@@QAEXXZ @ 10 NONAME ; void RSenCredentialPtr::Close(void)
	?CloseAndDestroyCredential@RSenCredentialPtr@@QAEXXZ @ 11 NONAME ; void RSenCredentialPtr::CloseAndDestroyCredential(void)
	?ConstructL@CSenInternalCredential@@AAEXAAV1@@Z @ 12 NONAME ; void CSenInternalCredential::ConstructL(class CSenInternalCredential &)
	?ConstructL@CSenInternalCredential@@AAEXABVTDesC8@@00ABV?$RArray@VRAttribute@Xml@@@@@Z @ 13 NONAME ; void CSenInternalCredential::ConstructL(class TDesC8 const &, class TDesC8 const &, class TDesC8 const &, class RArray<class Xml::RAttribute> const &)
	?ConstructL@CSenInternalCredential@@AAEXABVTDesC8@@00ABV?$RArray@VRAttribute@Xml@@@@AAVTXmlEngElement@@@Z @ 14 NONAME ; void CSenInternalCredential::ConstructL(class TDesC8 const &, class TDesC8 const &, class TDesC8 const &, class RArray<class Xml::RAttribute> const &, class TXmlEngElement &)
	?ConstructL@CSenInternalCredential@@AAEXABVTDesC8@@00ABV?$RArray@VRAttribute@Xml@@@@AAVTXmlEngElement@@AAVRSenDocument@@@Z @ 15 NONAME ; void CSenInternalCredential::ConstructL(class TDesC8 const &, class TDesC8 const &, class TDesC8 const &, class RArray<class Xml::RAttribute> const &, class TXmlEngElement &, class RSenDocument &)
	?ConstructL@CSenInternalCredential@@AAEXABVTDesC8@@@Z @ 16 NONAME ; void CSenInternalCredential::ConstructL(class TDesC8 const &)
	?Credential@RSenCredentialPtr@@QAEPAVCSenInternalCredential@@XZ @ 17 NONAME ; class CSenInternalCredential * RSenCredentialPtr::Credential(void)
	?FacetValueL@CSenCredentialProperties@@UAEHAAVTDesC8@@AAPAVHBufC8@@@Z @ 18 NONAME ; int CSenCredentialProperties::FacetValueL(class TDesC8 &, class HBufC8 * &)
	?HasProperties@CSenInternalCredential@@QAEHXZ @ 19 NONAME ; int CSenInternalCredential::HasProperties(void)
	?IdL@CSenCredentialIdentifier@@UAEHXZ @ 20 NONAME ; int CSenCredentialIdentifier::IdL(void)
	?IdentifierL@CSenInternalCredential@@UAEAAVCSenCredentialIdentifier@@XZ @ 21 NONAME ; class CSenCredentialIdentifier & CSenInternalCredential::IdentifierL(void)
	?IdentityProviderIdL@CSenInternalCredential@@UAEHAAVTPtrC8@@@Z @ 22 NONAME ; int CSenInternalCredential::IdentityProviderIdL(class TPtrC8 &)
	?IsApplicableL@CSenInternalCredential@@UAEHABVCSenWSDescription@@@Z @ 23 NONAME ; int CSenInternalCredential::IsApplicableL(class CSenWSDescription const &)
	?NewL@CSenCredentialIdentifier@@SAPAV1@ABVTDesC8@@00ABV?$RArray@VRAttribute@Xml@@@@@Z @ 24 NONAME ; class CSenCredentialIdentifier * CSenCredentialIdentifier::NewL(class TDesC8 const &, class TDesC8 const &, class TDesC8 const &, class RArray<class Xml::RAttribute> const &)
	?NewL@CSenCredentialIdentifier@@SAPAV1@ABVTDesC8@@00ABV?$RArray@VRAttribute@Xml@@@@AAVTXmlEngElement@@@Z @ 25 NONAME ; class CSenCredentialIdentifier * CSenCredentialIdentifier::NewL(class TDesC8 const &, class TDesC8 const &, class TDesC8 const &, class RArray<class Xml::RAttribute> const &, class TXmlEngElement &)
	?NewL@CSenCredentialIdentifier@@SAPAV1@ABVTDesC8@@00ABV?$RArray@VRAttribute@Xml@@@@AAVTXmlEngElement@@AAVRSenDocument@@@Z @ 26 NONAME ; class CSenCredentialIdentifier * CSenCredentialIdentifier::NewL(class TDesC8 const &, class TDesC8 const &, class TDesC8 const &, class RArray<class Xml::RAttribute> const &, class TXmlEngElement &, class RSenDocument &)
	?NewL@CSenCredentialIdentifier@@SAPAV1@XZ @ 27 NONAME ; class CSenCredentialIdentifier * CSenCredentialIdentifier::NewL(void)
	?NewL@CSenCredentialManager@@SAPAV1@AAVMSenCoreServiceManager@@@Z @ 28 NONAME ; class CSenCredentialManager * CSenCredentialManager::NewL(class MSenCoreServiceManager &)
	?NewL@CSenCredentialProperties@@SAPAV1@ABVTDesC8@@00ABV?$RArray@VRAttribute@Xml@@@@@Z @ 29 NONAME ; class CSenCredentialProperties * CSenCredentialProperties::NewL(class TDesC8 const &, class TDesC8 const &, class TDesC8 const &, class RArray<class Xml::RAttribute> const &)
	?NewL@CSenCredentialProperties@@SAPAV1@ABVTDesC8@@00ABV?$RArray@VRAttribute@Xml@@@@AAVTXmlEngElement@@@Z @ 30 NONAME ; class CSenCredentialProperties * CSenCredentialProperties::NewL(class TDesC8 const &, class TDesC8 const &, class TDesC8 const &, class RArray<class Xml::RAttribute> const &, class TXmlEngElement &)
	?NewL@CSenCredentialProperties@@SAPAV1@ABVTDesC8@@00ABV?$RArray@VRAttribute@Xml@@@@AAVTXmlEngElement@@AAVRSenDocument@@@Z @ 31 NONAME ; class CSenCredentialProperties * CSenCredentialProperties::NewL(class TDesC8 const &, class TDesC8 const &, class TDesC8 const &, class RArray<class Xml::RAttribute> const &, class TXmlEngElement &, class RSenDocument &)
	?NewL@CSenCredentialProperties@@SAPAV1@XZ @ 32 NONAME ; class CSenCredentialProperties * CSenCredentialProperties::NewL(void)
	?NewL@CSenInternalCredential@@SAPAV1@ABV1@@Z @ 33 NONAME ; class CSenInternalCredential * CSenInternalCredential::NewL(class CSenInternalCredential const &)
	?NewL@CSenInternalCredential@@SAPAV1@ABVTDesC8@@00ABV?$RArray@VRAttribute@Xml@@@@@Z @ 34 NONAME ; class CSenInternalCredential * CSenInternalCredential::NewL(class TDesC8 const &, class TDesC8 const &, class TDesC8 const &, class RArray<class Xml::RAttribute> const &)
	?NewL@CSenInternalCredential@@SAPAV1@ABVTDesC8@@00ABV?$RArray@VRAttribute@Xml@@@@AAVTXmlEngElement@@@Z @ 35 NONAME ; class CSenInternalCredential * CSenInternalCredential::NewL(class TDesC8 const &, class TDesC8 const &, class TDesC8 const &, class RArray<class Xml::RAttribute> const &, class TXmlEngElement &)
	?NewL@CSenInternalCredential@@SAPAV1@ABVTDesC8@@00ABV?$RArray@VRAttribute@Xml@@@@AAVTXmlEngElement@@AAVRSenDocument@@@Z @ 36 NONAME ; class CSenInternalCredential * CSenInternalCredential::NewL(class TDesC8 const &, class TDesC8 const &, class TDesC8 const &, class RArray<class Xml::RAttribute> const &, class TXmlEngElement &, class RSenDocument &)
	?NewL@CSenInternalCredential@@SAPAV1@XZ @ 37 NONAME ; class CSenInternalCredential * CSenInternalCredential::NewL(void)
	?NewLC@CSenCredentialIdentifier@@SAPAV1@ABVTDesC8@@00ABV?$RArray@VRAttribute@Xml@@@@@Z @ 38 NONAME ; class CSenCredentialIdentifier * CSenCredentialIdentifier::NewLC(class TDesC8 const &, class TDesC8 const &, class TDesC8 const &, class RArray<class Xml::RAttribute> const &)
	?NewLC@CSenCredentialIdentifier@@SAPAV1@ABVTDesC8@@00ABV?$RArray@VRAttribute@Xml@@@@AAVTXmlEngElement@@@Z @ 39 NONAME ; class CSenCredentialIdentifier * CSenCredentialIdentifier::NewLC(class TDesC8 const &, class TDesC8 const &, class TDesC8 const &, class RArray<class Xml::RAttribute> const &, class TXmlEngElement &)
	?NewLC@CSenCredentialIdentifier@@SAPAV1@ABVTDesC8@@00ABV?$RArray@VRAttribute@Xml@@@@AAVTXmlEngElement@@AAVRSenDocument@@@Z @ 40 NONAME ; class CSenCredentialIdentifier * CSenCredentialIdentifier::NewLC(class TDesC8 const &, class TDesC8 const &, class TDesC8 const &, class RArray<class Xml::RAttribute> const &, class TXmlEngElement &, class RSenDocument &)
	?NewLC@CSenCredentialIdentifier@@SAPAV1@XZ @ 41 NONAME ; class CSenCredentialIdentifier * CSenCredentialIdentifier::NewLC(void)
	?NewLC@CSenCredentialManager@@SAPAV1@AAVMSenCoreServiceManager@@@Z @ 42 NONAME ; class CSenCredentialManager * CSenCredentialManager::NewLC(class MSenCoreServiceManager &)
	?NewLC@CSenCredentialProperties@@SAPAV1@ABVTDesC8@@00ABV?$RArray@VRAttribute@Xml@@@@@Z @ 43 NONAME ; class CSenCredentialProperties * CSenCredentialProperties::NewLC(class TDesC8 const &, class TDesC8 const &, class TDesC8 const &, class RArray<class Xml::RAttribute> const &)
	?NewLC@CSenCredentialProperties@@SAPAV1@ABVTDesC8@@00ABV?$RArray@VRAttribute@Xml@@@@AAVTXmlEngElement@@@Z @ 44 NONAME ; class CSenCredentialProperties * CSenCredentialProperties::NewLC(class TDesC8 const &, class TDesC8 const &, class TDesC8 const &, class RArray<class Xml::RAttribute> const &, class TXmlEngElement &)
	?NewLC@CSenCredentialProperties@@SAPAV1@ABVTDesC8@@00ABV?$RArray@VRAttribute@Xml@@@@AAVTXmlEngElement@@AAVRSenDocument@@@Z @ 45 NONAME ; class CSenCredentialProperties * CSenCredentialProperties::NewLC(class TDesC8 const &, class TDesC8 const &, class TDesC8 const &, class RArray<class Xml::RAttribute> const &, class TXmlEngElement &, class RSenDocument &)
	?NewLC@CSenCredentialProperties@@SAPAV1@XZ @ 46 NONAME ; class CSenCredentialProperties * CSenCredentialProperties::NewLC(void)
	?NewLC@CSenInternalCredential@@SAPAV1@ABV1@@Z @ 47 NONAME ; class CSenInternalCredential * CSenInternalCredential::NewLC(class CSenInternalCredential const &)
	?NewLC@CSenInternalCredential@@SAPAV1@ABVTDesC8@@00ABV?$RArray@VRAttribute@Xml@@@@@Z @ 48 NONAME ; class CSenInternalCredential * CSenInternalCredential::NewLC(class TDesC8 const &, class TDesC8 const &, class TDesC8 const &, class RArray<class Xml::RAttribute> const &)
	?NewLC@CSenInternalCredential@@SAPAV1@ABVTDesC8@@00ABV?$RArray@VRAttribute@Xml@@@@AAVTXmlEngElement@@@Z @ 49 NONAME ; class CSenInternalCredential * CSenInternalCredential::NewLC(class TDesC8 const &, class TDesC8 const &, class TDesC8 const &, class RArray<class Xml::RAttribute> const &, class TXmlEngElement &)
	?NewLC@CSenInternalCredential@@SAPAV1@ABVTDesC8@@00ABV?$RArray@VRAttribute@Xml@@@@AAVTXmlEngElement@@AAVRSenDocument@@@Z @ 50 NONAME ; class CSenInternalCredential * CSenInternalCredential::NewLC(class TDesC8 const &, class TDesC8 const &, class TDesC8 const &, class RArray<class Xml::RAttribute> const &, class TXmlEngElement &, class RSenDocument &)
	?NewLC@CSenInternalCredential@@SAPAV1@XZ @ 51 NONAME ; class CSenInternalCredential * CSenInternalCredential::NewLC(void)
	?OpenL@RSenCredentialPtr@@QAEXPAVCSenInternalCredential@@@Z @ 52 NONAME ; void RSenCredentialPtr::OpenL(class CSenInternalCredential *)
	?PropertiesL@CSenInternalCredential@@UAEAAVCSenCredentialProperties@@XZ @ 53 NONAME ; class CSenCredentialProperties & CSenInternalCredential::PropertiesL(void)
	?PropertyL@CSenCredentialProperties@@UAEHABVTDesC8@@AAVTPtrC8@@@Z @ 54 NONAME ; int CSenCredentialProperties::PropertyL(class TDesC8 const &, class TPtrC8 &)
	?RemoveCredentialObserver@RSenCredentialPtr@@QAEHAAVMSenCredentialObserver@@@Z @ 55 NONAME ; int RSenCredentialPtr::RemoveCredentialObserver(class MSenCredentialObserver &)
	?RemoveFacetL@CSenCredentialProperties@@UAEHABVTDesC8@@@Z @ 56 NONAME ; int CSenCredentialProperties::RemoveFacetL(class TDesC8 const &)
	?Session@CSenInternalCredential@@UAEPAVCSenServiceSession@@XZ @ 57 NONAME ; class CSenServiceSession * CSenInternalCredential::Session(void)
	?SetCredential@RSenCredentialPtr@@QAEXPAVCSenInternalCredential@@@Z @ 58 NONAME ; void RSenCredentialPtr::SetCredential(class CSenInternalCredential *)
	?SetFacetL@CSenCredentialProperties@@UAEHABVCSenFacet@@@Z @ 59 NONAME ; int CSenCredentialProperties::SetFacetL(class CSenFacet const &)
	?SetIdL@CSenCredentialIdentifier@@UAEXH@Z @ 60 NONAME ; void CSenCredentialIdentifier::SetIdL(int)
	?SetIdentifier@CSenInternalCredential@@UAEXPAVCSenCredentialIdentifier@@@Z @ 61 NONAME ; void CSenInternalCredential::SetIdentifier(class CSenCredentialIdentifier *)
	?SetIdentityProviderIdL@CSenInternalCredential@@UAEXAAVTDesC8@@@Z @ 62 NONAME ; void CSenInternalCredential::SetIdentityProviderIdL(class TDesC8 &)
	?SetProperties@CSenInternalCredential@@UAEXPAVCSenCredentialProperties@@@Z @ 63 NONAME ; void CSenInternalCredential::SetProperties(class CSenCredentialProperties *)
	?SetPropertyL@CSenCredentialProperties@@UAEHABVTDesC8@@0@Z @ 64 NONAME ; int CSenCredentialProperties::SetPropertyL(class TDesC8 const &, class TDesC8 const &)
	?SetSession@CSenInternalCredential@@UAEXAAVCSenServiceSession@@@Z @ 65 NONAME ; void CSenInternalCredential::SetSession(class CSenServiceSession &)
	?SetValidUntilL@CSenCredentialProperties@@UAEXVTTime@@@Z @ 66 NONAME ; void CSenCredentialProperties::SetValidUntilL(class TTime)
	?ValidUntilL@CSenCredentialProperties@@UAE?AVTTime@@XZ @ 67 NONAME ; class TTime CSenCredentialProperties::ValidUntilL(void)
	?UpdateTouchCredDBL@CSenCredentialManager@@UAEXAAVMSenServiceDescription@@@Z @ 68 NONAME ; void CSenCredentialManager::UpdateTouchCredDBL(class MSenServiceDescription &)
	?SetAuthInfo@CSenInternalCredential@@QAEXAAVTDesC8@@0@Z @ 69 NONAME ; void CSenInternalCredential::SetAuthInfo(class TDesC8 &, class TDesC8 &)

