EXPORTS
	??0CSvgJavaInterfaceImpl@@AAE@XZ @ 1 NONAME ; CSvgJavaInterfaceImpl::CSvgJavaInterfaceImpl(void)
	??1CSvgJavaInterfaceImpl@@UAE@XZ @ 2 NONAME ; CSvgJavaInterfaceImpl::~CSvgJavaInterfaceImpl(void)
	?NewL@CSvgJavaInterfaceImpl@@SAPAV1@XZ @ 3 NONAME ; class CSvgJavaInterfaceImpl * CSvgJavaInterfaceImpl::NewL(void)
	?SvgDocumentActivate@CSvgJavaInterfaceImpl@@QAEXH@Z @ 4 NONAME ; void CSvgJavaInterfaceImpl::SvgDocumentActivate(int)
	?SvgDocumentBeginElementAt@CSvgJavaInterfaceImpl@@QAEXHHM@Z @ 5 NONAME ; void CSvgJavaInterfaceImpl::SvgDocumentBeginElementAt(int, int, float)
	?SvgDocumentCreateEmpty@CSvgJavaInterfaceImpl@@QAEHXZ @ 6 NONAME ; int CSvgJavaInterfaceImpl::SvgDocumentCreateEmpty(void)
	?SvgDocumentCreateL@CSvgJavaInterfaceImpl@@QAEHABVTPtrC16@@@Z @ 7 NONAME ; int CSvgJavaInterfaceImpl::SvgDocumentCreateL(class TPtrC16 const &)
	?SvgDocumentDestroy@CSvgJavaInterfaceImpl@@QAEXH@Z @ 8 NONAME ; void CSvgJavaInterfaceImpl::SvgDocumentDestroy(int)
	?SvgDocumentDispatchMouseEvent@CSvgJavaInterfaceImpl@@QAEHHHH@Z @ 9 NONAME ; int CSvgJavaInterfaceImpl::SvgDocumentDispatchMouseEvent(int, int, int)
	?SvgDocumentEndElementAt@CSvgJavaInterfaceImpl@@QAEXHHM@Z @ 10 NONAME ; void CSvgJavaInterfaceImpl::SvgDocumentEndElementAt(int, int, float)
	?SvgDocumentFocusOn@CSvgJavaInterfaceImpl@@QAEXHH@Z @ 11 NONAME ; void CSvgJavaInterfaceImpl::SvgDocumentFocusOn(int, int)
	?SvgDocumentFocusOut@CSvgJavaInterfaceImpl@@QAEXHH@Z @ 12 NONAME ; void CSvgJavaInterfaceImpl::SvgDocumentFocusOut(int, int)
	?SvgDocumentGetElementById@CSvgJavaInterfaceImpl@@QAEHHABVTPtrC16@@@Z @ 13 NONAME ; int CSvgJavaInterfaceImpl::SvgDocumentGetElementById(int, class TPtrC16 const &)
	?SvgDocumentGetExternalListItem@CSvgJavaInterfaceImpl@@QAEHHHAAVTPtrC16@@@Z @ 14 NONAME ; int CSvgJavaInterfaceImpl::SvgDocumentGetExternalListItem(int, int, class TPtrC16 &)
	?SvgDocumentGetExternalListSize@CSvgJavaInterfaceImpl@@QAEHH@Z @ 15 NONAME ; int CSvgJavaInterfaceImpl::SvgDocumentGetExternalListSize(int)
	?SvgDocumentGetFocus@CSvgJavaInterfaceImpl@@QAEHH@Z @ 16 NONAME ; int CSvgJavaInterfaceImpl::SvgDocumentGetFocus(int)
	?SvgDocumentGetId@CSvgJavaInterfaceImpl@@QAEHHHAAVTPtrC16@@@Z @ 17 NONAME ; int CSvgJavaInterfaceImpl::SvgDocumentGetId(int, int, class TPtrC16 &)
	?SvgDocumentGetMediaTime@CSvgJavaInterfaceImpl@@QAEMH@Z @ 18 NONAME ; float CSvgJavaInterfaceImpl::SvgDocumentGetMediaTime(int)
	?SvgDocumentGetNumberOfIds@CSvgJavaInterfaceImpl@@QAEHH@Z @ 19 NONAME ; int CSvgJavaInterfaceImpl::SvgDocumentGetNumberOfIds(int)
	?SvgDocumentGetRootElement@CSvgJavaInterfaceImpl@@QAEHH@Z @ 20 NONAME ; int CSvgJavaInterfaceImpl::SvgDocumentGetRootElement(int)
	?SvgDocumentGetViewportHeight@CSvgJavaInterfaceImpl@@QAEHH@Z @ 21 NONAME ; int CSvgJavaInterfaceImpl::SvgDocumentGetViewportHeight(int)
	?SvgDocumentGetViewportHeightUnits@CSvgJavaInterfaceImpl@@QAEHH@Z @ 22 NONAME ; int CSvgJavaInterfaceImpl::SvgDocumentGetViewportHeightUnits(int)
	?SvgDocumentGetViewportWidth@CSvgJavaInterfaceImpl@@QAEHH@Z @ 23 NONAME ; int CSvgJavaInterfaceImpl::SvgDocumentGetViewportWidth(int)
	?SvgDocumentGetViewportWidthUnits@CSvgJavaInterfaceImpl@@QAEHH@Z @ 24 NONAME ; int CSvgJavaInterfaceImpl::SvgDocumentGetViewportWidthUnits(int)
	?SvgDocumentHasAnimation@CSvgJavaInterfaceImpl@@QAEHH@Z @ 25 NONAME ; int CSvgJavaInterfaceImpl::SvgDocumentHasAnimation(int)
	?SvgDocumentRequestCompleted@CSvgJavaInterfaceImpl@@QAEHHABVTPtrC16@@ABVTPtrC8@@@Z @ 26 NONAME ; int CSvgJavaInterfaceImpl::SvgDocumentRequestCompleted(int, class TPtrC16 const &, class TPtrC8 const &)
	?SvgDocumentSetMediaTime@CSvgJavaInterfaceImpl@@QAEXHM@Z @ 27 NONAME ; void CSvgJavaInterfaceImpl::SvgDocumentSetMediaTime(int, float)
	?SvgDocumentSetViewportHeight@CSvgJavaInterfaceImpl@@QAEXHH@Z @ 28 NONAME ; void CSvgJavaInterfaceImpl::SvgDocumentSetViewportHeight(int, int)
	?SvgDocumentSetViewportWidth@CSvgJavaInterfaceImpl@@QAEXHH@Z @ 29 NONAME ; void CSvgJavaInterfaceImpl::SvgDocumentSetViewportWidth(int, int)
	?SvgDocumentViewportInit@CSvgJavaInterfaceImpl@@QAEXH@Z @ 30 NONAME ; void CSvgJavaInterfaceImpl::SvgDocumentViewportInit(int)
	?SvgElementAddEventListener@CSvgJavaInterfaceImpl@@QAEXHHF@Z @ 31 NONAME ; void CSvgJavaInterfaceImpl::SvgElementAddEventListener(int, int, short)
	?SvgElementAppendChild@CSvgJavaInterfaceImpl@@QAEXHH@Z @ 32 NONAME ; void CSvgJavaInterfaceImpl::SvgElementAppendChild(int, int)
	?SvgElementCheckRemoveable@CSvgJavaInterfaceImpl@@QAEHH@Z @ 33 NONAME ; int CSvgJavaInterfaceImpl::SvgElementCheckRemoveable(int)
	?SvgElementCreate@CSvgJavaInterfaceImpl@@QAEHF@Z @ 34 NONAME ; int CSvgJavaInterfaceImpl::SvgElementCreate(short)
	?SvgElementDestroy@CSvgJavaInterfaceImpl@@QAEXH@Z @ 35 NONAME ; void CSvgJavaInterfaceImpl::SvgElementDestroy(int)
	?SvgElementElementInDOM@CSvgJavaInterfaceImpl@@QAEHHH@Z @ 36 NONAME ; int CSvgJavaInterfaceImpl::SvgElementElementInDOM(int, int)
	?SvgElementGetBBox@CSvgJavaInterfaceImpl@@QAEXHFPAM000@Z @ 37 NONAME ; void CSvgJavaInterfaceImpl::SvgElementGetBBox(int, short, float *, float *, float *, float *)
	?SvgElementGetColorAttribute@CSvgJavaInterfaceImpl@@QAEHHFPAH00@Z @ 38 NONAME ; int CSvgJavaInterfaceImpl::SvgElementGetColorAttribute(int, short, int *, int *, int *)
	?SvgElementGetEnumAttribute@CSvgJavaInterfaceImpl@@QAEFHF@Z @ 39 NONAME ; short CSvgJavaInterfaceImpl::SvgElementGetEnumAttribute(int, short)
	?SvgElementGetFirstElementChild@CSvgJavaInterfaceImpl@@QAEHH@Z @ 40 NONAME ; int CSvgJavaInterfaceImpl::SvgElementGetFirstElementChild(int)
	?SvgElementGetFloatAttribute@CSvgJavaInterfaceImpl@@QAEMHF@Z @ 41 NONAME ; float CSvgJavaInterfaceImpl::SvgElementGetFloatAttribute(int, short)
	?SvgElementGetMatrixAttribute@CSvgJavaInterfaceImpl@@QAEHHFPAM00000@Z @ 42 NONAME ; int CSvgJavaInterfaceImpl::SvgElementGetMatrixAttribute(int, short, float *, float *, float *, float *, float *, float *)
	?SvgElementGetNextElementSibling@CSvgJavaInterfaceImpl@@QAEHH@Z @ 43 NONAME ; int CSvgJavaInterfaceImpl::SvgElementGetNextElementSibling(int)
	?SvgElementGetParent@CSvgJavaInterfaceImpl@@QAEHH@Z @ 44 NONAME ; int CSvgJavaInterfaceImpl::SvgElementGetParent(int)
	?SvgElementGetPathAttribute@CSvgJavaInterfaceImpl@@QAEHHF@Z @ 45 NONAME ; int CSvgJavaInterfaceImpl::SvgElementGetPathAttribute(int, short)
	?SvgElementGetRectAttribute@CSvgJavaInterfaceImpl@@QAEHHFPAM000@Z @ 46 NONAME ; int CSvgJavaInterfaceImpl::SvgElementGetRectAttribute(int, short, float *, float *, float *, float *)
	?SvgElementGetScreenBBox@CSvgJavaInterfaceImpl@@QAEXHPAM000@Z @ 47 NONAME ; void CSvgJavaInterfaceImpl::SvgElementGetScreenBBox(int, float *, float *, float *, float *)
	?SvgElementGetStringAttribute@CSvgJavaInterfaceImpl@@QAEHHFAAVTPtrC16@@@Z @ 48 NONAME ; int CSvgJavaInterfaceImpl::SvgElementGetStringAttribute(int, short, class TPtrC16 &)
	?SvgElementGetType@CSvgJavaInterfaceImpl@@QAEHH@Z @ 49 NONAME ; int CSvgJavaInterfaceImpl::SvgElementGetType(int)
	?SvgElementGetUsedFromElement@CSvgJavaInterfaceImpl@@QAEHH@Z @ 50 NONAME ; int CSvgJavaInterfaceImpl::SvgElementGetUsedFromElement(int)
	?SvgElementHasAnimation@CSvgJavaInterfaceImpl@@QAEHH@Z @ 51 NONAME ; int CSvgJavaInterfaceImpl::SvgElementHasAnimation(int)
	?SvgElementInsertBefore@CSvgJavaInterfaceImpl@@QAEXHHH@Z @ 52 NONAME ; void CSvgJavaInterfaceImpl::SvgElementInsertBefore(int, int, int)
	?SvgElementIsActive@CSvgJavaInterfaceImpl@@QAEHH@Z @ 53 NONAME ; int CSvgJavaInterfaceImpl::SvgElementIsActive(int)
	?SvgElementIsUsed@CSvgJavaInterfaceImpl@@QAEHH@Z @ 54 NONAME ; int CSvgJavaInterfaceImpl::SvgElementIsUsed(int)
	?SvgElementRemoveChild@CSvgJavaInterfaceImpl@@QAEHHH@Z @ 55 NONAME ; int CSvgJavaInterfaceImpl::SvgElementRemoveChild(int, int)
	?SvgElementRemoveEventListener@CSvgJavaInterfaceImpl@@QAEXHHF@Z @ 56 NONAME ; void CSvgJavaInterfaceImpl::SvgElementRemoveEventListener(int, int, short)
	?SvgElementSetColorAttribute@CSvgJavaInterfaceImpl@@QAEXHFHHH@Z @ 57 NONAME ; void CSvgJavaInterfaceImpl::SvgElementSetColorAttribute(int, short, int, int, int)
	?SvgElementSetEnumAttribute@CSvgJavaInterfaceImpl@@QAEXHFF@Z @ 58 NONAME ; void CSvgJavaInterfaceImpl::SvgElementSetEnumAttribute(int, short, short)
	?SvgElementSetFloatAttribute@CSvgJavaInterfaceImpl@@QAEXHFM@Z @ 59 NONAME ; void CSvgJavaInterfaceImpl::SvgElementSetFloatAttribute(int, short, float)
	?SvgElementSetMatrixAttribute@CSvgJavaInterfaceImpl@@QAEXHFMMMMMM@Z @ 60 NONAME ; void CSvgJavaInterfaceImpl::SvgElementSetMatrixAttribute(int, short, float, float, float, float, float, float)
	?SvgElementSetPathAttribute@CSvgJavaInterfaceImpl@@QAEXHFH@Z @ 61 NONAME ; void CSvgJavaInterfaceImpl::SvgElementSetPathAttribute(int, short, int)
	?SvgElementSetRectAttribute@CSvgJavaInterfaceImpl@@QAEXHFMMMM@Z @ 62 NONAME ; void CSvgJavaInterfaceImpl::SvgElementSetRectAttribute(int, short, float, float, float, float)
	?SvgElementSetStringAttribute@CSvgJavaInterfaceImpl@@QAEXHFABVTPtrC16@@@Z @ 63 NONAME ; void CSvgJavaInterfaceImpl::SvgElementSetStringAttribute(int, short, class TPtrC16 const &)
	?SvgElementUpdatePath@CSvgJavaInterfaceImpl@@QAEXHH@Z @ 64 NONAME ; void CSvgJavaInterfaceImpl::SvgElementUpdatePath(int, int)
	?SvgEngineCreate@CSvgJavaInterfaceImpl@@QAEHXZ @ 65 NONAME ; int CSvgJavaInterfaceImpl::SvgEngineCreate(void)
	?SvgEngineDestroy@CSvgJavaInterfaceImpl@@QAEXH@Z @ 66 NONAME ; void CSvgJavaInterfaceImpl::SvgEngineDestroy(int)
	?SvgEngineRenderDocument@CSvgJavaInterfaceImpl@@QAEXHHHHM@Z @ 67 NONAME ; void CSvgJavaInterfaceImpl::SvgEngineRenderDocument(int, int, int, int, float)
	?SvgEngineRenderDocumentL@CSvgJavaInterfaceImpl@@QAEXHHHABVTPoint@@ABVTRect@@MM@Z @ 68 NONAME ; void CSvgJavaInterfaceImpl::SvgEngineRenderDocumentL(int, int, int, class TPoint const &, class TRect const &, float, float)
	?SvgEngineResume@CSvgJavaInterfaceImpl@@QAEXH@Z @ 69 NONAME ; void CSvgJavaInterfaceImpl::SvgEngineResume(int)
	?SvgEngineSetRenderQuality@CSvgJavaInterfaceImpl@@QAEXHH@Z @ 70 NONAME ; void CSvgJavaInterfaceImpl::SvgEngineSetRenderQuality(int, int)
	?SvgEngineStart@CSvgJavaInterfaceImpl@@QAEXH@Z @ 71 NONAME ; void CSvgJavaInterfaceImpl::SvgEngineStart(int)
	?SvgEngineStop@CSvgJavaInterfaceImpl@@QAEXH@Z @ 72 NONAME ; void CSvgJavaInterfaceImpl::SvgEngineStop(int)
	?SvgPathAddClose@CSvgJavaInterfaceImpl@@QAEXH@Z @ 73 NONAME ; void CSvgJavaInterfaceImpl::SvgPathAddClose(int)
	?SvgPathAddCurveTo@CSvgJavaInterfaceImpl@@QAEXHMMMMMM@Z @ 74 NONAME ; void CSvgJavaInterfaceImpl::SvgPathAddCurveTo(int, float, float, float, float, float, float)
	?SvgPathAddLineTo@CSvgJavaInterfaceImpl@@QAEXHMM@Z @ 75 NONAME ; void CSvgJavaInterfaceImpl::SvgPathAddLineTo(int, float, float)
	?SvgPathAddMoveTo@CSvgJavaInterfaceImpl@@QAEXHMM@Z @ 76 NONAME ; void CSvgJavaInterfaceImpl::SvgPathAddMoveTo(int, float, float)
	?SvgPathAddQuadTo@CSvgJavaInterfaceImpl@@QAEXHMMMM@Z @ 77 NONAME ; void CSvgJavaInterfaceImpl::SvgPathAddQuadTo(int, float, float, float, float)
	?SvgPathCreate@CSvgJavaInterfaceImpl@@QAEHXZ @ 78 NONAME ; int CSvgJavaInterfaceImpl::SvgPathCreate(void)
	?SvgPathDestroy@CSvgJavaInterfaceImpl@@QAEXH@Z @ 79 NONAME ; void CSvgJavaInterfaceImpl::SvgPathDestroy(int)
	?SvgPathGetSegmentCount@CSvgJavaInterfaceImpl@@QAEHH@Z @ 80 NONAME ; int CSvgJavaInterfaceImpl::SvgPathGetSegmentCount(int)
	?SvgPathGetSegmentParameter@CSvgJavaInterfaceImpl@@QAEMHHH@Z @ 81 NONAME ; float CSvgJavaInterfaceImpl::SvgPathGetSegmentParameter(int, int, int)
	?SvgPathGetSegmentType@CSvgJavaInterfaceImpl@@QAEHHH@Z @ 82 NONAME ; int CSvgJavaInterfaceImpl::SvgPathGetSegmentType(int, int)
	?SvgRenderingSurfaceCreate@CSvgJavaInterfaceImpl@@QAEHHH@Z @ 83 NONAME ; int CSvgJavaInterfaceImpl::SvgRenderingSurfaceCreate(int, int)
	?SvgRenderingSurfaceDestroy@CSvgJavaInterfaceImpl@@QAEXH@Z @ 84 NONAME ; void CSvgJavaInterfaceImpl::SvgRenderingSurfaceDestroy(int)
	?SvgRenderingSurfaceGetBuffer@CSvgJavaInterfaceImpl@@QAEPAIH@Z @ 85 NONAME ; unsigned int * CSvgJavaInterfaceImpl::SvgRenderingSurfaceGetBuffer(int)
	?SvgRenderingSurfaceGetHeight@CSvgJavaInterfaceImpl@@QAEHH@Z @ 86 NONAME ; int CSvgJavaInterfaceImpl::SvgRenderingSurfaceGetHeight(int)
	?SvgRenderingSurfaceGetWidth@CSvgJavaInterfaceImpl@@QAEHH@Z @ 87 NONAME ; int CSvgJavaInterfaceImpl::SvgRenderingSurfaceGetWidth(int)
	?NewL@CSvgJavaInterfaceImpl@@SAPAV1@AAVTFontSpec@@@Z @ 88 NONAME ; class CSvgJavaInterfaceImpl * CSvgJavaInterfaceImpl::NewL(class TFontSpec &)
	?SvgEngineRenderDocument@CSvgJavaInterfaceImpl@@QAEXHHIIM@Z @ 89 NONAME ; void CSvgJavaInterfaceImpl::SvgEngineRenderDocument(int, int, unsigned int, unsigned int, float)

