EXPORTS
	_ZN7CAlfEnv4NewLE8TVersion @ 1 NONAME
	_ZN7CAlfEnv5NewLCE8TVersion @ 2 NONAME
	_ZNK7CAlfEnv7VersionEv @ 3 NONAME
	_ZN10CAlfLayout11SetBaseUnitERK12TAlfXYMetric @ 4 NONAME
	_ZN10CAlfLayout12ChildOrdinalEi @ 5 NONAME
	_ZN10CAlfLayout15SetInnerPaddingERK12TAlfXYMetric @ 6 NONAME
	_ZN10CAlfLayout15SetInnerPaddingERK6TPoint @ 7 NONAME
	_ZN10CAlfLayout15SetScrollOffsetERK14TAlfTimedPoint @ 8 NONAME
	_ZN10CAlfLayout16EnableScrollingLEi @ 9 NONAME
	_ZN10CAlfLayout16MoveVisualToBackER10CAlfVisuali @ 10 NONAME
	_ZN10CAlfLayout17MoveVisualToFrontER10CAlfVisuali @ 11 NONAME
	_ZN10CAlfLayout17SetTransitionTimeEi @ 12 NONAME
	_ZN10CAlfLayout20RemoveAndDestroyAllDEv @ 13 NONAME
	_ZN10CAlfLayout20UpdateChildrenLayoutEi @ 14 NONAME
	_ZN10CAlfLayout22DoRemoveAndDestroyAllDEv @ 15 NONAME
	_ZN10CAlfLayout22PropertyOwnerExtensionERK4TUidPPv @ 16 NONAME
	_ZN10CAlfLayout6AppendEP10CAlfVisualii @ 17 NONAME
	_ZN10CAlfLayout6InsertEP10CAlfVisuali @ 18 NONAME
	_ZN10CAlfLayout6RemoveEP10CAlfVisuali @ 19 NONAME
	_ZN10CAlfLayout7AddNewLER11CAlfControlPS_ @ 20 NONAME
	_ZN10CAlfLayout7FindTagERK6TDesC8 @ 21 NONAME
	_ZN10CAlfLayout7ReorderER10CAlfVisualii @ 22 NONAME
	_ZN10CAlfLayout8ChildPosEiR6TPoint @ 23 NONAME
	_ZN10CAlfLayout9ChildSizeEiR5TSize @ 24 NONAME
	_ZN10CAlfLayoutC1Ev @ 25 NONAME
	_ZN10CAlfLayoutC2Ev @ 26 NONAME
	_ZN10CAlfLayoutD0Ev @ 27 NONAME
	_ZN10CAlfLayoutD1Ev @ 28 NONAME
	_ZN10CAlfLayoutD2Ev @ 29 NONAME
	_ZN10CAlfRoster10ClearFocusEv @ 30 NONAME
	_ZN10CAlfRoster10HideVisualER10CAlfVisual @ 31 NONAME
	_ZN10CAlfRoster11ShowVisualLER10CAlfVisual @ 32 NONAME
	_ZN10CAlfRoster17MoveVisualToFrontER10CAlfVisual @ 33 NONAME
	_ZN10CAlfRoster23AddPointerEventObserverE21TAlfPointerEventFlagsR11CAlfControl @ 34 NONAME
	_ZN10CAlfRoster24SetPointerEventObserversEjR11CAlfControl @ 35 NONAME
	_ZN10CAlfRoster26RemovePointerEventObserverE21TAlfPointerEventFlagsR11CAlfControl @ 36 NONAME
	_ZN10CAlfRoster4HideER16CAlfControlGroup @ 37 NONAME
	_ZN10CAlfRoster5ShowLER16CAlfControlGroupi @ 38 NONAME
	_ZN10CAlfRoster8SetFocusER11CAlfControl @ 39 NONAME
	_ZN10CAlfStatic3EnvEv @ 40 NONAME
	_ZN10CAlfStatic4DataEv @ 41 NONAME
	_ZN10CAlfStatic5NewLCEP7CAlfEnv @ 42 NONAME
	_ZN10CAlfVisual10ClearFlagsEj @ 43 NONAME
	_ZN10CAlfVisual10ConstructLER11CAlfControl @ 44 NONAME
	_ZN10CAlfVisual10ConstructLER11CAlfControliiRK6TDesC8 @ 45 NONAME
	_ZN10CAlfVisual10CopyValuesERKS_ii @ 46 NONAME
	_ZN10CAlfVisual10SetMaxSizeERK5TSize @ 47 NONAME
	_ZN10CAlfVisual10SetMinSizeERK5TSize @ 48 NONAME
	_ZN10CAlfVisual10SetOpacityERK14TAlfTimedValue @ 49 NONAME
	_ZN10CAlfVisual10SetPaddingERK13TAlfBoxMetric @ 50 NONAME
	_ZN10CAlfVisual10SetPaddingERK6TPoint @ 51 NONAME
	_ZN10CAlfVisual10SetPaddingEi @ 52 NONAME
	_ZN10CAlfVisual11MoveToFrontEi @ 53 NONAME
	_ZN10CAlfVisual11SetClippingEi @ 54 NONAME
	_ZN10CAlfVisual14EnableBrushesLEi @ 55 NONAME
	_ZN10CAlfVisual14SetDepthOffsetERK14TAlfTimedValue @ 56 NONAME
	_ZN10CAlfVisual14TransformationEv @ 57 NONAME
	_ZN10CAlfVisual20RemoveAndDestroyAllDEv @ 58 NONAME
	_ZN10CAlfVisual20UpdateChildrenLayoutEi @ 59 NONAME
	_ZN10CAlfVisual21EnableTransformationLEi @ 60 NONAME
	_ZN10CAlfVisual21SetCenteredPosAndSizeERK6TPointRK5TSizei @ 61 NONAME
	_ZN10CAlfVisual22DoRemoveAndDestroyAllDEv @ 62 NONAME
	_ZN10CAlfVisual22PropertyOwnerExtensionERK4TUidPPv @ 63 NONAME
	_ZN10CAlfVisual4MoveERK6TPointi @ 64 NONAME
	_ZN10CAlfVisual5MimicERS_i @ 65 NONAME
	_ZN10CAlfVisual6SetPosERK13TAlfRealPointi @ 66 NONAME
	_ZN10CAlfVisual6SetPosERK14TAlfTimedPoint @ 67 NONAME
	_ZN10CAlfVisual7BrushesEv @ 68 NONAME
	_ZN10CAlfVisual7FindTagERK6TDesC8 @ 69 NONAME
	_ZN10CAlfVisual7SetFlagE15TAlfVisualFlags @ 70 NONAME
	_ZN10CAlfVisual7SetRectERK12TAlfRealRecti @ 71 NONAME
	_ZN10CAlfVisual7SetSizeERK12TAlfRealSizei @ 72 NONAME
	_ZN10CAlfVisual7SetSizeERK14TAlfTimedPoint @ 73 NONAME
	_ZN10CAlfVisual7SetTagLERK6TDesC8 @ 74 NONAME
	_ZN10CAlfVisual8SetFlagsEj @ 75 NONAME
	_ZN10CAlfVisual8SetOwnerER11CAlfControl @ 76 NONAME
	_ZN10CAlfVisual9ClearFlagE15TAlfVisualFlags @ 77 NONAME
	_ZN10CAlfVisual9SetOriginE17TAlfVisualHOrigin17TAlfVisualVOrigin @ 78 NONAME
	_ZN10CAlfVisualC1Ev @ 79 NONAME
	_ZN10CAlfVisualC2Ev @ 80 NONAME
	_ZN10CAlfVisualD0Ev @ 81 NONAME
	_ZN10CAlfVisualD1Ev @ 82 NONAME
	_ZN10CAlfVisualD2Ev @ 83 NONAME
	_ZN10TAlfMetricC1Efii @ 84 NONAME
	_ZN10TAlfMetricC1Ei @ 85 NONAME
	_ZN10TAlfMetricC2Efii @ 86 NONAME
	_ZN10TAlfMetricC2Ei @ 87 NONAME
	_ZN11CAlfControl10ConstructLER7CAlfEnv @ 88 NONAME
	_ZN11CAlfControl11BindDisplayER11CAlfDisplay @ 89 NONAME
	_ZN11CAlfControl11OfferEventLERK9TAlfEvent @ 90 NONAME
	_ZN11CAlfControl12AcquireFocusEv @ 91 NONAME
	_ZN11CAlfControl12FocusChangedER11CAlfDisplayi @ 92 NONAME
	_ZN11CAlfControl12VisualAddedLEP10CAlfVisual @ 93 NONAME
	_ZN11CAlfControl13AppendLayoutLE14TAlfLayoutTypeP10CAlfLayouti @ 94 NONAME
	_ZN11CAlfControl13AppendVisualLE14TAlfVisualTypeP10CAlfLayouti @ 95 NONAME
	_ZN11CAlfControl13HostChangingLEPS_ @ 96 NONAME
	_ZN11CAlfControl13VisualRemovedEP10CAlfVisual @ 97 NONAME
	_ZN11CAlfControl14AddConnectionLEPS_i @ 98 NONAME
	_ZN11CAlfControl15RelinquishFocusEv @ 99 NONAME
	_ZN11CAlfControl15VisualDestroyedER10CAlfVisual @ 100 NONAME
	_ZN11CAlfControl16ConnectionAddedLEPS_i @ 101 NONAME
	_ZN11CAlfControl16RemoveConnectionEPS_ @ 102 NONAME
	_ZN11CAlfControl17CancelAllCommandsEv @ 103 NONAME
	_ZN11CAlfControl17ConnectionRemovedEPS_i @ 104 NONAME
	_ZN11CAlfControl19VisualLayoutUpdatedER10CAlfVisual @ 105 NONAME
	_ZN11CAlfControl22PropertyOwnerExtensionERK4TUidPPv @ 106 NONAME
	_ZN11CAlfControl23NotifyControlVisibilityEiR11CAlfDisplay @ 107 NONAME
	_ZN11CAlfControl23VisualPrepareDrawFailedER10CAlfVisuali @ 108 NONAME
	_ZN11CAlfControl5SetIdEi @ 109 NONAME
	_ZN11CAlfControl5ShowLER11CAlfDisplay @ 110 NONAME
	_ZN11CAlfControl6AppendEP10CAlfVisualP10CAlfLayout @ 111 NONAME
	_ZN11CAlfControl6RemoveEP10CAlfVisual @ 112 NONAME
	_ZN11CAlfControl7SetHostEPS_ @ 113 NONAME
	_ZN11CAlfControl7SetRoleEi @ 114 NONAME
	_ZN11CAlfControl9SetHostIdEi @ 115 NONAME
	_ZN11CAlfControlC1Ev @ 116 NONAME
	_ZN11CAlfControlC2Ev @ 117 NONAME
	_ZN11CAlfControlD0Ev @ 118 NONAME
	_ZN11CAlfControlD1Ev @ 119 NONAME
	_ZN11CAlfControlD2Ev @ 120 NONAME
	_ZN11CAlfDisplay10SetQualityE11TAlfQuality @ 121 NONAME
	_ZN11CAlfDisplay11SetUseDepthEi @ 122 NONAME
	_ZN11CAlfDisplay14SetVisibleAreaERK5TRect @ 123 NONAME
	_ZN11CAlfDisplay16SetFocusedEditorEP29MAlfInputCapabilitiesSupplier @ 124 NONAME
	_ZN11CAlfDisplay19SetClearBackgroundLEi @ 125 NONAME
	_ZN11CAlfDisplay3EnvEv @ 126 NONAME
	_ZN11CAlfDisplay6RosterEv @ 127 NONAME
	_ZN11CAlfDisplay8SetDirtyEv @ 128 NONAME
	_ZN11CAlfDisplay9SetUsageLEj @ 129 NONAME
	_ZN11CAlfM3GMesh10LoadSceneLERK7TDesC16 @ 130 NONAME
	_ZN11CAlfTexture11SetPriorityEi @ 131 NONAME
	_ZN11CAlfTexture13StopAnimationEv @ 132 NONAME
	_ZN11CAlfTexture14MaxTextureSizeEv @ 133 NONAME
	_ZN11CAlfTexture14StartAnimationEv @ 134 NONAME
	_ZN11TAlfCommand16CommandExtensionERK4TUidPPv @ 135 NONAME
	_ZN11TAlfCommandC2E15TAlfCommandType @ 136 NONAME
	_ZN11TAlfCommandD0Ev @ 137 NONAME
	_ZN11TAlfCommandD1Ev @ 138 NONAME
	_ZN11TAlfCommandD2Ev @ 139 NONAME
	_ZN12TAlfXYMetricC1ERK10TAlfMetric @ 140 NONAME
	_ZN12TAlfXYMetricC1ERK10TAlfMetricS2_ @ 141 NONAME
	_ZN12TAlfXYMetricC1Ev @ 142 NONAME
	_ZN12TAlfXYMetricC2ERK10TAlfMetric @ 143 NONAME
	_ZN12TAlfXYMetricC2ERK10TAlfMetricS2_ @ 144 NONAME
	_ZN12TAlfXYMetricC2Ev @ 145 NONAME
	_ZN13CAlfCurvePath10AppendArcLERK6TPointRK5TSizefff @ 146 NONAME
	_ZN13CAlfCurvePath10EnableLoopEi @ 147 NONAME
	_ZN13CAlfCurvePath11AppendLineLERK6TPointS2_f @ 148 NONAME
	_ZN13CAlfCurvePath4NewLER7CAlfEnvi @ 149 NONAME
	_ZN13CAlfCurvePath5NewLCER7CAlfEnvi @ 150 NONAME
	_ZN13CAlfCurvePath5ResetEv @ 151 NONAME
	_ZN13CAlfCurvePath9SetOffsetERK14TAlfTimedPoint @ 152 NONAME
	_ZN13CAlfCurvePath9SetOriginEf @ 153 NONAME
	_ZN13CAlfCurvePathD0Ev @ 154 NONAME
	_ZN13CAlfCurvePathD1Ev @ 155 NONAME
	_ZN13CAlfCurvePathD2Ev @ 156 NONAME
	_ZN13CAlfTextStyle11SetParentIdEi @ 157 NONAME
	_ZN13CAlfTextStyle12SetTextColorERK4TRgb @ 158 NONAME
	_ZN13CAlfTextStyle12SetUnderlineEi @ 159 NONAME
	_ZN13CAlfTextStyle16SetStrikeThroughEi @ 160 NONAME
	_ZN13CAlfTextStyle18SetTextSizeInTwipsEii @ 161 NONAME
	_ZN13CAlfTextStyle19SetTextSizeInPixelsEii @ 162 NONAME
	_ZN13CAlfTextStyle7SetBoldEi @ 163 NONAME
	_ZN13CAlfTextStyle9SetItalicEi @ 164 NONAME
	_ZN13TAlfBoxMetricC1ERK10TAlfMetric @ 165 NONAME
	_ZN13TAlfBoxMetricC1ERK10TAlfMetricS2_S2_S2_ @ 166 NONAME
	_ZN13TAlfBoxMetricC1ERK12TAlfXYMetric @ 167 NONAME
	_ZN13TAlfBoxMetricC1Ev @ 168 NONAME
	_ZN13TAlfBoxMetricC2ERK10TAlfMetric @ 169 NONAME
	_ZN13TAlfBoxMetricC2ERK10TAlfMetricS2_S2_S2_ @ 170 NONAME
	_ZN13TAlfBoxMetricC2ERK12TAlfXYMetric @ 171 NONAME
	_ZN13TAlfBoxMetricC2Ev @ 172 NONAME
	_ZN14CAlfBrushArray2AtEi @ 173 NONAME
	_ZN14CAlfBrushArray5ResetEv @ 174 NONAME
	_ZN14CAlfBrushArray6RemoveEi @ 175 NONAME
	_ZN14CAlfBrushArray7AppendLEP9CAlfBrush13TAlfOwnership @ 176 NONAME
	_ZN14CAlfBrushArray7InsertLEiP9CAlfBrush13TAlfOwnership @ 177 NONAME
	_ZN14CAlfBrushArrayixEi @ 178 NONAME
	_ZN14CAlfDeckLayout10ConstructLER11CAlfControl @ 179 NONAME
	_ZN14CAlfDeckLayout20RemoveAndDestroyAllDEv @ 180 NONAME
	_ZN14CAlfDeckLayout20UpdateChildrenLayoutEi @ 181 NONAME
	_ZN14CAlfDeckLayout22DoRemoveAndDestroyAllDEv @ 182 NONAME
	_ZN14CAlfDeckLayout22PropertyOwnerExtensionERK4TUidPPv @ 183 NONAME
	_ZN14CAlfDeckLayout7AddNewLER11CAlfControlP10CAlfLayout @ 184 NONAME
	_ZN14CAlfDeckLayout7FindTagERK6TDesC8 @ 185 NONAME
	_ZN14CAlfDeckLayoutC1Ev @ 186 NONAME
	_ZN14CAlfDeckLayoutC2Ev @ 187 NONAME
	_ZN14CAlfDeckLayoutD0Ev @ 188 NONAME
	_ZN14CAlfDeckLayoutD1Ev @ 189 NONAME
	_ZN14CAlfDeckLayoutD2Ev @ 190 NONAME
	_ZN14CAlfFlowLayout10ConstructLER11CAlfControl @ 191 NONAME
	_ZN14CAlfFlowLayout12SetCenteringEi @ 192 NONAME
	_ZN14CAlfFlowLayout16SetFlowDirectionENS_14TFlowDirectionE @ 193 NONAME
	_ZN14CAlfFlowLayout20RemoveAndDestroyAllDEv @ 194 NONAME
	_ZN14CAlfFlowLayout20UpdateChildrenLayoutEi @ 195 NONAME
	_ZN14CAlfFlowLayout22DoRemoveAndDestroyAllDEv @ 196 NONAME
	_ZN14CAlfFlowLayout22PropertyOwnerExtensionERK4TUidPPv @ 197 NONAME
	_ZN14CAlfFlowLayout7AddNewLER11CAlfControlP10CAlfLayout @ 198 NONAME
	_ZN14CAlfFlowLayout7FindTagERK6TDesC8 @ 199 NONAME
	_ZN14CAlfFlowLayout7SetModeEi @ 200 NONAME
	_ZN14CAlfFlowLayoutC1Ev @ 201 NONAME
	_ZN14CAlfFlowLayoutC2Ev @ 202 NONAME
	_ZN14CAlfFlowLayoutD0Ev @ 203 NONAME
	_ZN14CAlfFlowLayoutD1Ev @ 204 NONAME
	_ZN14CAlfFlowLayoutD2Ev @ 205 NONAME
	_ZN14CAlfFrameBrush14SetFrameRectsLERK5TRectS2_ @ 206 NONAME
	_ZN14CAlfFrameBrush4NewLER7CAlfEnvRK11TAknsItemIDii @ 207 NONAME
	_ZN14CAlfFrameBrush5NewLCER7CAlfEnvRK11TAknsItemIDii @ 208 NONAME
	_ZN14CAlfGridLayout10ConstructLER11CAlfControl @ 209 NONAME
	_ZN14CAlfGridLayout11SetColumnsLERK6RArrayIiE @ 210 NONAME
	_ZN14CAlfGridLayout11SetColumnsLEi @ 211 NONAME
	_ZN14CAlfGridLayout12FillWeightsLE17TAlfGridDimensioniRK10TAlfMetric @ 212 NONAME
	_ZN14CAlfGridLayout12SetExpandingEi @ 213 NONAME
	_ZN14CAlfGridLayout13AppendWeightLE17TAlfGridDimensionRK10TAlfMetric @ 214 NONAME
	_ZN14CAlfGridLayout13InsertWeightLE17TAlfGridDimensionRK10TAlfMetrici @ 215 NONAME
	_ZN14CAlfGridLayout13RemoveWeightLE17TAlfGridDimensioni @ 216 NONAME
	_ZN14CAlfGridLayout14ReplaceWeightLE17TAlfGridDimensionRK10TAlfMetrici @ 217 NONAME
	_ZN14CAlfGridLayout20RemoveAndDestroyAllDEv @ 218 NONAME
	_ZN14CAlfGridLayout20UpdateChildrenLayoutEi @ 219 NONAME
	_ZN14CAlfGridLayout22DoRemoveAndDestroyAllDEv @ 220 NONAME
	_ZN14CAlfGridLayout22PropertyOwnerExtensionERK4TUidPPv @ 221 NONAME
	_ZN14CAlfGridLayout7AddNewLER11CAlfControliiP10CAlfLayout @ 222 NONAME
	_ZN14CAlfGridLayout7FindTagERK6TDesC8 @ 223 NONAME
	_ZN14CAlfGridLayout8SetRowsLERK6RArrayIiE @ 224 NONAME
	_ZN14CAlfGridLayout8SetRowsLEi @ 225 NONAME
	_ZN14CAlfGridLayoutC1Ev @ 226 NONAME
	_ZN14CAlfGridLayoutC2Ev @ 227 NONAME
	_ZN14CAlfGridLayoutD0Ev @ 228 NONAME
	_ZN14CAlfGridLayoutD1Ev @ 229 NONAME
	_ZN14CAlfGridLayoutD2Ev @ 230 NONAME
	_ZN14CAlfImageBrush10SetBordersEiiii @ 231 NONAME
	_ZN14CAlfImageBrush12SetScaleModeEN15CAlfImageVisual10TScaleModeE @ 232 NONAME
	_ZN14CAlfImageBrush4NewLER7CAlfEnvRK9TAlfImage @ 233 NONAME
	_ZN14CAlfImageBrush5NewLCER7CAlfEnvRK9TAlfImage @ 234 NONAME
	_ZN14CAlfImageBrush8SetImageERK9TAlfImage @ 235 NONAME
	_ZN14CAlfImageBrush8SetScaleERK14TAlfTimedValue @ 236 NONAME
	_ZN14CAlfImageBrush9SetOffsetERK14TAlfTimedPoint @ 237 NONAME
	_ZN14CAlfLineVisual10ConstructLER11CAlfControl @ 238 NONAME
	_ZN14CAlfLineVisual11SetStartPosERK14TAlfTimedValue @ 239 NONAME
	_ZN14CAlfLineVisual12SetThicknessERK14TAlfTimedValue @ 240 NONAME
	_ZN14CAlfLineVisual16SetAlphaFunctionEP19MAlfMappingFunction @ 241 NONAME
	_ZN14CAlfLineVisual16SetWidthFunctionEP19MAlfMappingFunction @ 242 NONAME
	_ZN14CAlfLineVisual18SetShadowThicknessERK14TAlfTimedValue @ 243 NONAME
	_ZN14CAlfLineVisual20RemoveAndDestroyAllDEv @ 244 NONAME
	_ZN14CAlfLineVisual20UpdateChildrenLayoutEi @ 245 NONAME
	_ZN14CAlfLineVisual22DoRemoveAndDestroyAllDEv @ 246 NONAME
	_ZN14CAlfLineVisual22PropertyOwnerExtensionERK4TUidPPv @ 247 NONAME
	_ZN14CAlfLineVisual4PathEv @ 248 NONAME
	_ZN14CAlfLineVisual7AddNewLER11CAlfControlP10CAlfLayout @ 249 NONAME
	_ZN14CAlfLineVisual7FindTagERK6TDesC8 @ 250 NONAME
	_ZN14CAlfLineVisual7SetPathEP13CAlfCurvePath13TAlfOwnership @ 251 NONAME
	_ZN14CAlfLineVisual8SetImageERK9TAlfImage @ 252 NONAME
	_ZN14CAlfLineVisual9SetEndPosERK14TAlfTimedValue @ 253 NONAME
	_ZN14CAlfLineVisualC1Ev @ 254 NONAME
	_ZN14CAlfLineVisualC2Ev @ 255 NONAME
	_ZN14CAlfLineVisualD0Ev @ 256 NONAME
	_ZN14CAlfLineVisualD1Ev @ 257 NONAME
	_ZN14CAlfLineVisualD2Ev @ 258 NONAME
	_ZN14CAlfMeshVisual10ConstructLER11CAlfControl @ 259 NONAME
	_ZN14CAlfMeshVisual11CreateMeshLEi @ 260 NONAME
	_ZN14CAlfMeshVisual11SetYawAngleERK14TAlfTimedValue @ 261 NONAME
	_ZN14CAlfMeshVisual13SetPitchAngleERK14TAlfTimedValue @ 262 NONAME
	_ZN14CAlfMeshVisual16SetSpecularImageERK9TAlfImage @ 263 NONAME
	_ZN14CAlfMeshVisual17SetSecondaryAlphaERK14TAlfTimedValue @ 264 NONAME
	_ZN14CAlfMeshVisual17SetSecondaryImageERK9TAlfImage @ 265 NONAME
	_ZN14CAlfMeshVisual20RemoveAndDestroyAllDEv @ 266 NONAME
	_ZN14CAlfMeshVisual20UpdateChildrenLayoutEi @ 267 NONAME
	_ZN14CAlfMeshVisual22DoRemoveAndDestroyAllDEv @ 268 NONAME
	_ZN14CAlfMeshVisual22PropertyOwnerExtensionERK4TUidPPv @ 269 NONAME
	_ZN14CAlfMeshVisual4MeshEv @ 270 NONAME
	_ZN14CAlfMeshVisual7AddNewLER11CAlfControlP10CAlfLayout @ 271 NONAME
	_ZN14CAlfMeshVisual7FindTagERK6TDesC8 @ 272 NONAME
	_ZN14CAlfMeshVisual8SetImageERK9TAlfImage @ 273 NONAME
	_ZN14CAlfMeshVisual8SetScaleERK14TAlfTimedValue @ 274 NONAME
	_ZN14CAlfMeshVisualC1Ev @ 275 NONAME
	_ZN14CAlfMeshVisualC2Ev @ 276 NONAME
	_ZN14CAlfMeshVisualD0Ev @ 277 NONAME
	_ZN14CAlfMeshVisualD1Ev @ 278 NONAME
	_ZN14CAlfMeshVisualD2Ev @ 279 NONAME
	_ZN14CAlfTextVisual10ConstructLER11CAlfControl @ 280 NONAME
	_ZN14CAlfTextVisual11SetWrappingENS_9TLineWrapE @ 281 NONAME
	_ZN14CAlfTextVisual12EnableShadowEi @ 282 NONAME
	_ZN14CAlfTextVisual12SetTextStyleEi @ 283 NONAME
	_ZN14CAlfTextVisual13ShadowOpacityEv @ 284 NONAME
	_ZN14CAlfTextVisual14BackgroundTypeEv @ 285 NONAME
	_ZN14CAlfTextVisual14SetLineSpacingEiNS_17TLineSpacingUnitsE @ 286 NONAME
	_ZN14CAlfTextVisual15SetMaxLineCountEi @ 287 NONAME
	_ZN14CAlfTextVisual16SetShadowOpacityERK14TAlfTimedValue @ 288 NONAME
	_ZN14CAlfTextVisual20RemoveAndDestroyAllDEv @ 289 NONAME
	_ZN14CAlfTextVisual20UpdateChildrenLayoutEi @ 290 NONAME
	_ZN14CAlfTextVisual22DoRemoveAndDestroyAllDEv @ 291 NONAME
	_ZN14CAlfTextVisual22PropertyOwnerExtensionERK4TUidPPv @ 292 NONAME
	_ZN14CAlfTextVisual5StyleEv @ 293 NONAME
	_ZN14CAlfTextVisual7AddNewLER11CAlfControlP10CAlfLayout @ 294 NONAME
	_ZN14CAlfTextVisual7FindTagERK6TDesC8 @ 295 NONAME
	_ZN14CAlfTextVisual8SetAlignE19TAlfAlignHorizontal17TAlfAlignVertical @ 296 NONAME
	_ZN14CAlfTextVisual8SetColorE4TRgb @ 297 NONAME
	_ZN14CAlfTextVisual8SetColorERK11TAknsItemIDi @ 298 NONAME
	_ZN14CAlfTextVisual8SetStyleE26TAlfPreconfiguredTextStyle18TAlfBackgroundType @ 299 NONAME
	_ZN14CAlfTextVisual8SetTextLERK7TDesC16 @ 300 NONAME
	_ZN14CAlfTextVisualC1Ev @ 301 NONAME
	_ZN14CAlfTextVisualC2Ev @ 302 NONAME
	_ZN14CAlfTextVisualD0Ev @ 303 NONAME
	_ZN14CAlfTextVisualD1Ev @ 304 NONAME
	_ZN14CAlfTextVisualD2Ev @ 305 NONAME
	_ZN14RAlfClientBase10LaunchAppLE4TUidjR9TThreadId @ 306 NONAME
	_ZN14RAlfClientBase12StartServerLE4TUid @ 307 NONAME
	_ZN14RAlfClientBase19ConstructServerNameER4TBufILi128EE4TUidj @ 308 NONAME
	_ZN14RAlfClientBase24GrantAccessToPrivateFileERK5RFileii @ 309 NONAME
	_ZN14RAlfClientBase24GrantAccessToPrivateFileERK7TDesC16ii @ 310 NONAME
	_ZN14RAlfClientBase5OpenLEv @ 311 NONAME
	_ZN14RAlfClientBaseC1Ei @ 312 NONAME
	_ZN14RAlfClientBaseC2Ei @ 313 NONAME
	_ZN14TAlfTimedPoint18SetTargetWithSpeedERK13TAlfRealPointf @ 314 NONAME
	_ZN14TAlfTimedPoint18SetTargetWithSpeedEff @ 315 NONAME
	_ZN14TAlfTimedPoint28SetMappingFunctionIdentifierEi @ 316 NONAME
	_ZN14TAlfTimedPoint8SetStyleE22TAlfInterpolationStyle @ 317 NONAME
	_ZN14TAlfTimedPoint9SetTargetERK13TAlfRealPointi @ 318 NONAME
	_ZN14TAlfTimedPoint9SetTargetEfi @ 319 NONAME
	_ZN14TAlfTimedPointC1Eff @ 320 NONAME
	_ZN14TAlfTimedPointC1Effi @ 321 NONAME
	_ZN14TAlfTimedPointC1Ev @ 322 NONAME
	_ZN14TAlfTimedPointC2Eff @ 323 NONAME
	_ZN14TAlfTimedPointC2Effi @ 324 NONAME
	_ZN14TAlfTimedPointC2Ev @ 325 NONAME
	_ZN14TAlfTimedValue11SetValueNowERKf @ 326 NONAME
	_ZN14TAlfTimedValue18SetTargetWithSpeedEff @ 327 NONAME
	_ZN14TAlfTimedValue28SetMappingFunctionIdentifierEi @ 328 NONAME
	_ZN14TAlfTimedValue5FlagsEv @ 329 NONAME
	_ZN14TAlfTimedValue5StyleEv @ 330 NONAME
	_ZN14TAlfTimedValue8SetStyleE22TAlfInterpolationStyle @ 331 NONAME
	_ZN14TAlfTimedValue9SetTargetERKfi @ 332 NONAME
	_ZN14TAlfTimedValueC1Ef @ 333 NONAME
	_ZN14TAlfTimedValueC1Efi @ 334 NONAME
	_ZN14TAlfTimedValueC1Ev @ 335 NONAME
	_ZN14TAlfTimedValueC2Ef @ 336 NONAME
	_ZN14TAlfTimedValueC2Efi @ 337 NONAME
	_ZN14TAlfTimedValueC2Ev @ 338 NONAME
	_ZN15CAlfBorderBrush12SetThicknessERK14TAlfTimedPoint @ 339 NONAME
	_ZN15CAlfBorderBrush13SetEdgeOffsetERK14TAlfTimedPoint @ 340 NONAME
	_ZN15CAlfBorderBrush14SetImageOffsetERK14TAlfTimedPoint @ 341 NONAME
	_ZN15CAlfBorderBrush4NewLER7CAlfEnviiii @ 342 NONAME
	_ZN15CAlfBorderBrush5NewLCER7CAlfEnviiii @ 343 NONAME
	_ZN15CAlfBorderBrush8SetColorERK4TRgb @ 344 NONAME
	_ZN15CAlfBorderBrush8SetImageERK9TAlfImage @ 345 NONAME
	_ZN15CAlfImageVisual10ConstructLER11CAlfControl @ 346 NONAME
	_ZN15CAlfImageVisual10SetStretchEii @ 347 NONAME
	_ZN15CAlfImageVisual12SetColorModeENS_10TColorModeEf @ 348 NONAME
	_ZN15CAlfImageVisual12SetScaleModeENS_10TScaleModeE @ 349 NONAME
	_ZN15CAlfImageVisual12SetTurnAngleERK14TAlfTimedValue @ 350 NONAME
	_ZN15CAlfImageVisual13SetDropShadowEi @ 351 NONAME
	_ZN15CAlfImageVisual14SecondaryAlphaEv @ 352 NONAME
	_ZN15CAlfImageVisual14SetStretchModeEN6CAlfGc12TStretchModeE @ 353 NONAME
	_ZN15CAlfImageVisual17SetSecondaryAlphaERK14TAlfTimedValue @ 354 NONAME
	_ZN15CAlfImageVisual17SetSecondaryImageERK9TAlfImage @ 355 NONAME
	_ZN15CAlfImageVisual20RemoveAndDestroyAllDEv @ 356 NONAME
	_ZN15CAlfImageVisual20UpdateChildrenLayoutEi @ 357 NONAME
	_ZN15CAlfImageVisual22DoRemoveAndDestroyAllDEv @ 358 NONAME
	_ZN15CAlfImageVisual22PropertyOwnerExtensionERK4TUidPPv @ 359 NONAME
	_ZN15CAlfImageVisual5ScaleEv @ 360 NONAME
	_ZN15CAlfImageVisual6OffsetEv @ 361 NONAME
	_ZN15CAlfImageVisual7AddNewLER11CAlfControlP10CAlfLayout @ 362 NONAME
	_ZN15CAlfImageVisual7FindTagERK6TDesC8 @ 363 NONAME
	_ZN15CAlfImageVisual8SetColorERK4TRgb @ 364 NONAME
	_ZN15CAlfImageVisual8SetImageERK9TAlfImage @ 365 NONAME
	_ZN15CAlfImageVisual8SetScaleERK14TAlfTimedValue @ 366 NONAME
	_ZN15CAlfImageVisual9SetOffsetERK14TAlfTimedPoint @ 367 NONAME
	_ZN15CAlfImageVisual9TurnAngleEv @ 368 NONAME
	_ZN15CAlfImageVisualC1Ev @ 369 NONAME
	_ZN15CAlfImageVisualC2Ev @ 370 NONAME
	_ZN15CAlfImageVisualD0Ev @ 371 NONAME
	_ZN15CAlfImageVisualD1Ev @ 372 NONAME
	_ZN15CAlfImageVisualD2Ev @ 373 NONAME
	_ZN15TAlfTextCommand16CommandExtensionERK4TUidPPv @ 374 NONAME
	_ZN15TAlfTextCommandC1ER14CAlfTextVisualRK7TDesC166TAlfOp @ 375 NONAME
	_ZN15TAlfTextCommandC2ER14CAlfTextVisualRK7TDesC166TAlfOp @ 376 NONAME
	_ZN16AlfVisualFactory10NewLayoutLE14TAlfLayoutTypeP10CAlfLayoutR11CAlfControlR7CAlfEnvi @ 377 NONAME
	_ZN16AlfVisualFactory10NewVisualLE14TAlfVisualTypeP10CAlfLayoutR11CAlfControlR7CAlfEnvi @ 378 NONAME
	_ZN16AlfVisualFactory11NewLayoutLCE14TAlfLayoutTypeP10CAlfLayoutR11CAlfControlR7CAlfEnvi @ 379 NONAME
	_ZN16AlfVisualFactory11NewVisualLCE14TAlfVisualTypeP10CAlfLayoutR11CAlfControlR7CAlfEnvi @ 380 NONAME
	_ZN16CAlfAnchorLayout10ConstructLER11CAlfControl @ 381 NONAME
	_ZN16CAlfAnchorLayout12RemoveAnchorE10TAlfAnchori @ 382 NONAME
	_ZN16CAlfAnchorLayout20RemoveAndDestroyAllDEv @ 383 NONAME
	_ZN16CAlfAnchorLayout20UpdateChildrenLayoutEi @ 384 NONAME
	_ZN16CAlfAnchorLayout21SetRelativeAnchorRectEi16TAlfAnchorOriginS0_RK13TAlfRealPointS0_S0_S3_ @ 385 NONAME
	_ZN16CAlfAnchorLayout22DoRemoveAndDestroyAllDEv @ 386 NONAME
	_ZN16CAlfAnchorLayout22PropertyOwnerExtensionERK4TUidPPv @ 387 NONAME
	_ZN16CAlfAnchorLayout5ResetEv @ 388 NONAME
	_ZN16CAlfAnchorLayout7AddNewLER11CAlfControlP10CAlfLayout @ 389 NONAME
	_ZN16CAlfAnchorLayout7FindTagERK6TDesC8 @ 390 NONAME
	_ZN16CAlfAnchorLayout9SetAnchorE10TAlfAnchori16TAlfAnchorOriginS1_16TAlfAnchorMetricS2_RK14TAlfTimedPoint @ 391 NONAME
	_ZN16CAlfAnchorLayoutC1Ev @ 392 NONAME
	_ZN16CAlfAnchorLayoutC2Ev @ 393 NONAME
	_ZN16CAlfAnchorLayoutD0Ev @ 394 NONAME
	_ZN16CAlfAnchorLayoutD1Ev @ 395 NONAME
	_ZN16CAlfAnchorLayoutD2Ev @ 396 NONAME
	_ZN16CAlfControlGroup14SetAcceptInputEi @ 397 NONAME
	_ZN16CAlfControlGroup14TransformationEv @ 398 NONAME
	_ZN16CAlfControlGroup21EnableTransformationLEi @ 399 NONAME
	_ZN16CAlfControlGroup6RemoveEP11CAlfControl @ 400 NONAME
	_ZN16CAlfControlGroup7AppendLEP11CAlfControl @ 401 NONAME
	_ZN16CAlfGenComponent10IdentifierEv @ 402 NONAME
	_ZN16CAlfGenComponent15CancelAsynchCmdEi @ 403 NONAME
	_ZN16CAlfGenComponent16DoSynchronousCmdEjRK6TDesC8R5TDes8 @ 404 NONAME
	_ZN16CAlfGenComponent18DoAsynchronousCmdLEjRK6TDesC8R5TDes8P19MAlfAsyncOpObserver @ 405 NONAME
	_ZN16CAlfGenComponent4NewLER7CAlfEnviiRK6TDesC8 @ 406 NONAME
	_ZN16CAlfGenComponentD0Ev @ 407 NONAME
	_ZN16CAlfGenComponentD1Ev @ 408 NONAME
	_ZN16CAlfGenComponentD2Ev @ 409 NONAME
	_ZN16TAlfGroupCommand16CommandExtensionERK4TUidPPv @ 410 NONAME
	_ZN16TAlfGroupCommandC1ER16CAlfControlGroup6TAlfOpP11CAlfDisplay @ 411 NONAME
	_ZN16TAlfGroupCommandC2ER16CAlfControlGroup6TAlfOpP11CAlfDisplay @ 412 NONAME
	_ZN16TAlfImageCommand16CommandExtensionERK4TUidPPv @ 413 NONAME
	_ZN16TAlfImageCommandC1ER15CAlfImageVisualRK9TAlfImage6TAlfOp @ 414 NONAME
	_ZN16TAlfImageCommandC2ER15CAlfImageVisualRK9TAlfImage6TAlfOp @ 415 NONAME
	_ZN16TAlfPointCommand16CommandExtensionERK4TUidPPv @ 416 NONAME
	_ZN16TAlfPointCommandC1EPv22TAlfPointCommandTarget13TAlfRealPointiNS_16TParameterTargetE @ 417 NONAME
	_ZN16TAlfPointCommandC1EPv22TAlfPointCommandTarget6TAlfOp @ 418 NONAME
	_ZN16TAlfPointCommandC1EPv22TAlfPointCommandTarget6TAlfOp13TAlfRealPointfNS_16TParameterTargetE @ 419 NONAME
	_ZN16TAlfPointCommandC2EPv22TAlfPointCommandTarget13TAlfRealPointiNS_16TParameterTargetE @ 420 NONAME
	_ZN16TAlfPointCommandC2EPv22TAlfPointCommandTarget6TAlfOp @ 421 NONAME
	_ZN16TAlfPointCommandC2EPv22TAlfPointCommandTarget6TAlfOp13TAlfRealPointfNS_16TParameterTargetE @ 422 NONAME
	_ZN16TAlfValueCommand16CommandExtensionERK4TUidPPv @ 423 NONAME
	_ZN16TAlfValueCommandC1EPv22TAlfValueCommandTarget6TAlfOpff @ 424 NONAME
	_ZN16TAlfValueCommandC1EPv22TAlfValueCommandTargetfi @ 425 NONAME
	_ZN16TAlfValueCommandC2EPv22TAlfValueCommandTarget6TAlfOpff @ 426 NONAME
	_ZN16TAlfValueCommandC2EPv22TAlfValueCommandTargetfi @ 427 NONAME
	_ZN17CAlfGradientBrush12AppendColorLEfRK4TRgbf @ 428 NONAME
	_ZN17CAlfGradientBrush12SetDirectionENS_10TDirectionE @ 429 NONAME
	_ZN17CAlfGradientBrush4NewLER7CAlfEnv @ 430 NONAME
	_ZN17CAlfGradientBrush5NewLCER7CAlfEnv @ 431 NONAME
	_ZN17CAlfGradientBrush8SetColorERK4TRgbf @ 432 NONAME
	_ZN17CAlfGradientBrush8SetImageERK9TAlfImage @ 433 NONAME
	_ZN17CAlfLCTGridLayout10ConstructLER11CAlfControl @ 434 NONAME
	_ZN17CAlfLCTGridLayout14SetColsAndRowsER34TAknLayoutHierarchyComponentHandleRK14TAlfTimedPoint @ 435 NONAME
	_ZN17CAlfLCTGridLayout20RemoveAndDestroyAllDEv @ 436 NONAME
	_ZN17CAlfLCTGridLayout20UpdateChildrenLayoutEi @ 437 NONAME
	_ZN17CAlfLCTGridLayout22DoRemoveAndDestroyAllDEv @ 438 NONAME
	_ZN17CAlfLCTGridLayout22PropertyOwnerExtensionERK4TUidPPv @ 439 NONAME
	_ZN17CAlfLCTGridLayout7AddNewLER11CAlfControlP10CAlfLayout @ 440 NONAME
	_ZN17CAlfLCTGridLayout7FindTagERK6TDesC8 @ 441 NONAME
	_ZN17CAlfLCTGridLayoutC1Ev @ 442 NONAME
	_ZN17CAlfLCTGridLayoutC2Ev @ 443 NONAME
	_ZN17CAlfLCTGridLayoutD0Ev @ 444 NONAME
	_ZN17CAlfLCTGridLayoutD1Ev @ 445 NONAME
	_ZN17CAlfLCTGridLayoutD2Ev @ 446 NONAME
	_ZN17CAlfLCTTextVisual10ConstructLER11CAlfControl @ 447 NONAME
	_ZN17CAlfLCTTextVisual11SetTextPaneER34TAknLayoutHierarchyComponentHandle @ 448 NONAME
	_ZN17CAlfLCTTextVisual20RemoveAndDestroyAllDEv @ 449 NONAME
	_ZN17CAlfLCTTextVisual20UpdateChildrenLayoutEi @ 450 NONAME
	_ZN17CAlfLCTTextVisual22DoRemoveAndDestroyAllDEv @ 451 NONAME
	_ZN17CAlfLCTTextVisual22PropertyOwnerExtensionERK4TUidPPv @ 452 NONAME
	_ZN17CAlfLCTTextVisual7AddNewLER11CAlfControlP10CAlfLayout @ 453 NONAME
	_ZN17CAlfLCTTextVisual7FindTagERK6TDesC8 @ 454 NONAME
	_ZN17CAlfLCTTextVisualC1Ev @ 455 NONAME
	_ZN17CAlfLCTTextVisualC2Ev @ 456 NONAME
	_ZN17CAlfLCTTextVisualD0Ev @ 457 NONAME
	_ZN17CAlfLCTTextVisualD1Ev @ 458 NONAME
	_ZN17CAlfLCTTextVisualD2Ev @ 459 NONAME
	_ZN17CAlfPropertyOwner12CopyPropertyERKS_RK6TDesC8 @ 460 NONAME
	_ZN17CAlfPropertyOwner13PropertyClearEv @ 461 NONAME
	_ZN17CAlfPropertyOwner14PropertyRemoveERK6TDesC8 @ 462 NONAME
	_ZN17CAlfPropertyOwner18PropertySetStringLERK6TDesC8RK7TDesC16 @ 463 NONAME
	_ZN17CAlfPropertyOwner19PropertySetIntegerLERK6TDesC8iii @ 464 NONAME
	_ZN17CAlfPropertyOwner22PropertyOwnerExtensionERK4TUidPPv @ 465 NONAME
	_ZN17CAlfPropertyOwnerC1Ev @ 466 NONAME
	_ZN17CAlfPropertyOwnerC2Ev @ 467 NONAME
	_ZN17CAlfPropertyOwnerD0Ev @ 468 NONAME
	_ZN17CAlfPropertyOwnerD1Ev @ 469 NONAME
	_ZN17CAlfPropertyOwnerD2Ev @ 470 NONAME
	_ZN17TAlfActionCommand16CommandExtensionERK4TUidPPv @ 471 NONAME
	_ZN17TAlfActionCommandC1Ei @ 472 NONAME
	_ZN17TAlfActionCommandC2Ei @ 473 NONAME
	_ZN17TAlfMarkerCommand16CommandExtensionERK4TUidPPv @ 474 NONAME
	_ZN17TAlfMarkerCommandC1Ei @ 475 NONAME
	_ZN17TAlfMarkerCommandC2Ei @ 476 NONAME
	_ZN17TAlfObjectCommand16CommandExtensionERK4TUidPPv @ 477 NONAME
	_ZN17TAlfObjectCommandC1E15TAlfCommandTypePv6TAlfOp @ 478 NONAME
	_ZN17TAlfObjectCommandC2E15TAlfCommandTypePv6TAlfOp @ 479 NONAME
	_ZN17TAlfScrollerEventC1ENS_5TCodeENS_12TOrientationEi @ 480 NONAME
	_ZN17TAlfScrollerEventC2ENS_5TCodeENS_12TOrientationEi @ 481 NONAME
	_ZN17TAlfVisualCommand16CommandExtensionERK4TUidPPv @ 482 NONAME
	_ZN17TAlfVisualCommandC1ER10CAlfVisual6TAlfOpii @ 483 NONAME
	_ZN17TAlfVisualCommandC2ER10CAlfVisual6TAlfOpii @ 484 NONAME
	_ZN18CAlfProceduralMesh10MakeTorusLEffiif @ 485 NONAME
	_ZN18CAlfProceduralMesh11MakeSphereLEfii @ 486 NONAME
	_ZN18CAlfProceduralMesh11SetMaterialERK12TAlfMaterial @ 487 NONAME
	_ZN18CAlfProceduralMesh9MakeCubeLEffff @ 488 NONAME
	_ZN18CAlfTextureManager12BlankTextureEv @ 489 NONAME
	_ZN18CAlfTextureManager12LoadTextureLERK7TDesC1616TAlfTextureFlagsi @ 490 NONAME
	_ZN18CAlfTextureManager12LoadTextureLERK7TDesC165TSize16TAlfTextureFlagsi @ 491 NONAME
	_ZN18CAlfTextureManager12LoadTextureLEi5TSize16TAlfTextureFlags @ 492 NONAME
	_ZN18CAlfTextureManager13SetImagePathLERK7TDesC16 @ 493 NONAME
	_ZN18CAlfTextureManager13UnloadTextureERK7TDesC16 @ 494 NONAME
	_ZN18CAlfTextureManager13UnloadTextureEi @ 495 NONAME
	_ZN18CAlfTextureManager14CreateTextureLEiP18MAlfBitmapProvider16TAlfTextureFlags @ 496 NONAME
	_ZN18CAlfTextureManager15DefineFileNameLEiRK7TDesC16 @ 497 NONAME
	_ZN18CAlfTextureManager16AddLoadObserverLEP35MAlfTextureLoadingCompletedObserver @ 498 NONAME
	_ZN18CAlfTextureManager16PrependImagePathER6TDes16 @ 499 NONAME
	_ZN18CAlfTextureManager17AddStateObserverLEP38MAlfTextureManagerStateChangedObserver @ 500 NONAME
	_ZN18CAlfTextureManager18RemoveLoadObserverEP35MAlfTextureLoadingCompletedObserver @ 501 NONAME
	_ZN18CAlfTextureManager19RemoveStateObserverEP38MAlfTextureManagerStateChangedObserver @ 502 NONAME
	_ZN18CAlfTextureManager26SetAutomaticTextureIdRangeEii @ 503 NONAME
	_ZN18CAlfTextureManager3EnvEv @ 504 NONAME
	_ZN18CAlfTextureManager8TextureLEi @ 505 NONAME
	_ZN18CAlfTextureManager9ProcessorEv @ 506 NONAME
	_ZN18CAlfTransformation11ReplaceStepEiNS_10TTransformE @ 507 NONAME
	_ZN18CAlfTransformation12LoadIdentityEv @ 508 NONAME
	_ZN18CAlfTransformation4NewLER7CAlfEnv @ 509 NONAME
	_ZN18CAlfTransformation4StepEi @ 510 NONAME
	_ZN18CAlfTransformation5NewLCER7CAlfEnv @ 511 NONAME
	_ZN18CAlfTransformation5ScaleERK14TAlfTimedValueS2_ @ 512 NONAME
	_ZN18CAlfTransformation5ScaleERK14TAlfTimedValueS2_S2_ @ 513 NONAME
	_ZN18CAlfTransformation5ScaleEff @ 514 NONAME
	_ZN18CAlfTransformation5ScaleEfff @ 515 NONAME
	_ZN18CAlfTransformation6RotateERK14TAlfTimedValue @ 516 NONAME
	_ZN18CAlfTransformation6RotateERK14TAlfTimedValuefff @ 517 NONAME
	_ZN18CAlfTransformation6RotateEf @ 518 NONAME
	_ZN18CAlfTransformation6RotateEffff @ 519 NONAME
	_ZN18CAlfTransformation9TranslateERK14TAlfTimedValueS2_ @ 520 NONAME
	_ZN18CAlfTransformation9TranslateEff @ 521 NONAME
	_ZN18CAlfTransformationD0Ev @ 522 NONAME
	_ZN18CAlfTransformationD1Ev @ 523 NONAME
	_ZN18CAlfTransformationD2Ev @ 524 NONAME
	_ZN18CAlfViewportLayout10ConstructLER11CAlfControl @ 525 NONAME
	_ZN18CAlfViewportLayout14SetViewportPosERK13TAlfRealPointi @ 526 NONAME
	_ZN18CAlfViewportLayout14SetVirtualSizeERK12TAlfRealSizei @ 527 NONAME
	_ZN18CAlfViewportLayout15SetViewportSizeERK12TAlfRealSizei @ 528 NONAME
	_ZN18CAlfViewportLayout20RemoveAndDestroyAllDEv @ 529 NONAME
	_ZN18CAlfViewportLayout20UpdateChildrenLayoutEi @ 530 NONAME
	_ZN18CAlfViewportLayout22DoRemoveAndDestroyAllDEv @ 531 NONAME
	_ZN18CAlfViewportLayout22PropertyOwnerExtensionERK4TUidPPv @ 532 NONAME
	_ZN18CAlfViewportLayout7AddNewLER11CAlfControlP10CAlfLayout @ 533 NONAME
	_ZN18CAlfViewportLayout7FindTagERK6TDesC8 @ 534 NONAME
	_ZN18CAlfViewportLayoutC1Ev @ 535 NONAME
	_ZN18CAlfViewportLayoutC2Ev @ 536 NONAME
	_ZN18CAlfViewportLayoutD0Ev @ 537 NONAME
	_ZN18CAlfViewportLayoutD1Ev @ 538 NONAME
	_ZN18CAlfViewportLayoutD2Ev @ 539 NONAME
	_ZN18TAlfControlCommand16CommandExtensionERK4TUidPPv @ 540 NONAME
	_ZN18TAlfControlCommandC1ER11CAlfControl6TAlfOp @ 541 NONAME
	_ZN18TAlfControlCommandC2ER11CAlfControl6TAlfOp @ 542 NONAME
	_ZN19CAlfCurvePathLayout10ConstructLER11CAlfControl @ 543 NONAME
	_ZN19CAlfCurvePathLayout20RemoveAndDestroyAllDEv @ 544 NONAME
	_ZN19CAlfCurvePathLayout20UpdateChildrenLayoutEi @ 545 NONAME
	_ZN19CAlfCurvePathLayout22DoRemoveAndDestroyAllDEv @ 546 NONAME
	_ZN19CAlfCurvePathLayout22PropertyOwnerExtensionERK4TUidPPv @ 547 NONAME
	_ZN19CAlfCurvePathLayout7AddNewLER11CAlfControlP10CAlfLayout @ 548 NONAME
	_ZN19CAlfCurvePathLayout7FindTagERK6TDesC8 @ 549 NONAME
	_ZN19CAlfCurvePathLayout9CurvePathEv @ 550 NONAME
	_ZN19CAlfCurvePathLayoutC1Ev @ 551 NONAME
	_ZN19CAlfCurvePathLayoutC2Ev @ 552 NONAME
	_ZN19CAlfCurvePathLayoutD0Ev @ 553 NONAME
	_ZN19CAlfCurvePathLayoutD1Ev @ 554 NONAME
	_ZN19CAlfCurvePathLayoutD2Ev @ 555 NONAME
	_ZN19CAlfDropShadowBrush11SetSoftnessERK14TAlfTimedValue @ 556 NONAME
	_ZN19CAlfDropShadowBrush4NewLER7CAlfEnvi @ 557 NONAME
	_ZN19CAlfDropShadowBrush5NewLCER7CAlfEnvi @ 558 NONAME
	_ZN19CAlfDropShadowBrush8SetDepthERK14TAlfTimedValue @ 559 NONAME
	_ZN19CAlfImageLoaderUtil15SetSkinInstanceEP17MAknsSkinInstance @ 560 NONAME
	_ZN19CAlfImageLoaderUtil18CreateImageLoaderLE4TUid16TAknsAppIconType @ 561 NONAME
	_ZN19CAlfImageLoaderUtil18CreateImageLoaderLERK11TAknsItemIDRK7TDesC16ii @ 562 NONAME
	_ZN19CAlfImageLoaderUtil7SetSizeE5TSize10TScaleMode @ 563 NONAME
	_ZN19CAlfImageLoaderUtilC1Ev @ 564 NONAME
	_ZN19CAlfImageLoaderUtilC2Ev @ 565 NONAME
	_ZN19CAlfImageLoaderUtilD0Ev @ 566 NONAME
	_ZN19CAlfImageLoaderUtilD1Ev @ 567 NONAME
	_ZN19CAlfImageLoaderUtilD2Ev @ 568 NONAME
	_ZN19CAlfLCTAnchorLayout10ConstructLER11CAlfControl @ 569 NONAME
	_ZN19CAlfLCTAnchorLayout10SetAnchorsEiR34TAknLayoutHierarchyComponentHandleRK14TAlfTimedPoint @ 570 NONAME
	_ZN19CAlfLCTAnchorLayout20RemoveAndDestroyAllDEv @ 571 NONAME
	_ZN19CAlfLCTAnchorLayout20UpdateChildrenLayoutEi @ 572 NONAME
	_ZN19CAlfLCTAnchorLayout22DoRemoveAndDestroyAllDEv @ 573 NONAME
	_ZN19CAlfLCTAnchorLayout22PropertyOwnerExtensionERK4TUidPPv @ 574 NONAME
	_ZN19CAlfLCTAnchorLayout7AddNewLER11CAlfControlP10CAlfLayout @ 575 NONAME
	_ZN19CAlfLCTAnchorLayout7FindTagERK6TDesC8 @ 576 NONAME
	_ZN19CAlfLCTAnchorLayoutC1Ev @ 577 NONAME
	_ZN19CAlfLCTAnchorLayoutC2Ev @ 578 NONAME
	_ZN19CAlfLCTAnchorLayoutD0Ev @ 579 NONAME
	_ZN19CAlfLCTAnchorLayoutD1Ev @ 580 NONAME
	_ZN19CAlfLCTAnchorLayoutD2Ev @ 581 NONAME
	_ZN20CAlfTextStyleManager14CopyTextStyleLEi @ 582 NONAME
	_ZN20CAlfTextStyleManager24CreatePlatformTextStyleLEi @ 583 NONAME
	_ZN20CAlfTextStyleManager24CreatePlatformTextStyleLEii @ 584 NONAME
	_ZN20CAlfTextStyleManager9TextStyleEi @ 585 NONAME
	_ZN20CAlfTextureProcessor5BlurLERK11CAlfTextureRS0_RK5TSizeii @ 586 NONAME
	_ZN20CAlfTextureProcessor5BlurLERK11CAlfTextureRS0_ii @ 587 NONAME
	_ZN21CAlfShadowBorderBrush4NewLER7CAlfEnvi @ 588 NONAME
	_ZN21CAlfShadowBorderBrush5NewLCER7CAlfEnvi @ 589 NONAME
	_ZN21CAlfShadowBorderBrush8SetWidthERK14TAlfTimedValue @ 590 NONAME
	_ZN22TAlfCustomEventCommand16CommandExtensionERK4TUidPPv @ 591 NONAME
	_ZN22TAlfCustomEventCommandC1EiP16MAlfEventHandleri @ 592 NONAME
	_ZN22TAlfCustomEventCommandC2EiP16MAlfEventHandleri @ 593 NONAME
	_ZN23CAlfSineMappingFunction4NewLER7CAlfEnvff @ 594 NONAME
	_ZN23CAlfSineMappingFunction9SetFactorEf @ 595 NONAME
	_ZN23CAlfSineMappingFunction9SetOffsetEf @ 596 NONAME
	_ZN23CAlfSineMappingFunctionD0Ev @ 597 NONAME
	_ZN23CAlfSineMappingFunctionD1Ev @ 598 NONAME
	_ZN23CAlfSineMappingFunctionD2Ev @ 599 NONAME
	_ZN24CAlfLayoutMetricsUtility10MarkVisualEP7TDesC16P14CAlfTextVisual @ 600 NONAME
	_ZN24CAlfLayoutMetricsUtility11AutoMarkingEv @ 601 NONAME
	_ZN24CAlfLayoutMetricsUtility11WriteReportEv @ 602 NONAME
	_ZN24CAlfLayoutMetricsUtility12UnmarkVisualEP14CAlfTextVisual @ 603 NONAME
	_ZN24CAlfLayoutMetricsUtility14MeasureVisualsEv @ 604 NONAME
	_ZN24CAlfLayoutMetricsUtility17EnableAutoMarkingEi @ 605 NONAME
	_ZN24CAlfTableMappingFunction21SetMappingTableValuesEffP36MAlfTableMappingFunctionDataProvider @ 606 NONAME
	_ZN24CAlfTableMappingFunction4NewLER7CAlfEnv @ 607 NONAME
	_ZN24CAlfTableMappingFunctionD0Ev @ 608 NONAME
	_ZN24CAlfTableMappingFunctionD1Ev @ 609 NONAME
	_ZN24CAlfTableMappingFunctionD2Ev @ 610 NONAME
	_ZN25CAlfCosineMappingFunction4NewLER7CAlfEnvff @ 611 NONAME
	_ZN25CAlfCosineMappingFunction9SetFactorEf @ 612 NONAME
	_ZN25CAlfCosineMappingFunction9SetOffsetEf @ 613 NONAME
	_ZN25CAlfCosineMappingFunctionD0Ev @ 614 NONAME
	_ZN25CAlfCosineMappingFunctionD1Ev @ 615 NONAME
	_ZN25CAlfCosineMappingFunctionD2Ev @ 616 NONAME
	_ZN25CAlfLinearMappingFunction4NewLER7CAlfEnvff @ 617 NONAME
	_ZN25CAlfLinearMappingFunction9SetFactorEf @ 618 NONAME
	_ZN25CAlfLinearMappingFunction9SetOffsetEf @ 619 NONAME
	_ZN25CAlfLinearMappingFunctionD0Ev @ 620 NONAME
	_ZN25CAlfLinearMappingFunctionD1Ev @ 621 NONAME
	_ZN25CAlfLinearMappingFunctionD2Ev @ 622 NONAME
	_ZN25TAlfTransformationCommand16CommandExtensionERK4TUidPPv @ 623 NONAME
	_ZN25TAlfTransformationCommand4SetXERK14TAlfTimedValue @ 624 NONAME
	_ZN25TAlfTransformationCommand4SetYERK14TAlfTimedValue @ 625 NONAME
	_ZN25TAlfTransformationCommand4SetZERK14TAlfTimedValue @ 626 NONAME
	_ZN25TAlfTransformationCommand8SetAngleERK14TAlfTimedValue @ 627 NONAME
	_ZN25TAlfTransformationCommandC1EPvR18CAlfTransformation6TAlfOpi @ 628 NONAME
	_ZN25TAlfTransformationCommandC2EPvR18CAlfTransformation6TAlfOpi @ 629 NONAME
	_ZN26CAlfAverageMappingFunction19SetMappingFunction1EP19MAlfMappingFunction @ 630 NONAME
	_ZN26CAlfAverageMappingFunction19SetMappingFunction2EP19MAlfMappingFunction @ 631 NONAME
	_ZN26CAlfAverageMappingFunction19SetMappingFunctionsEP19MAlfMappingFunctionS1_ @ 632 NONAME
	_ZN26CAlfAverageMappingFunction4NewLER7CAlfEnvP19MAlfMappingFunctionS3_ @ 633 NONAME
	_ZN26CAlfAverageMappingFunction9SetWeightERK14TAlfTimedValue @ 634 NONAME
	_ZN26CAlfAverageMappingFunctionD0Ev @ 635 NONAME
	_ZN26CAlfAverageMappingFunctionD1Ev @ 636 NONAME
	_ZN26CAlfAverageMappingFunctionD2Ev @ 637 NONAME
	_ZN27CAlfConstantMappingFunction4NewLER7CAlfEnvf @ 638 NONAME
	_ZN27CAlfConstantMappingFunction8SetValueEf @ 639 NONAME
	_ZN27CAlfConstantMappingFunctionD0Ev @ 640 NONAME
	_ZN27CAlfConstantMappingFunctionD1Ev @ 641 NONAME
	_ZN27CAlfConstantMappingFunctionD2Ev @ 642 NONAME
	_ZN7AlfUtil10FreeMemoryEPj @ 643 NONAME
	_ZN7AlfUtil10LengthUnitEv @ 644 NONAME
	_ZN7AlfUtil10RandomRealEff @ 645 NONAME
	_ZN7AlfUtil10ScaleImageEiRK5TSizePKhS2_Ph @ 646 NONAME
	_ZN7AlfUtil10ScreenSizeEv @ 647 NONAME
	_ZN7AlfUtil10TagMatchesERK6TDesC8S2_ @ 648 NONAME
	_ZN7AlfUtil11InterpolateEfff @ 649 NONAME
	_ZN7AlfUtil11QuickLengthER13TAlfRealPoint @ 650 NONAME
	_ZN7AlfUtil11QuickLengthEff @ 651 NONAME
	_ZN7AlfUtil11ReleaseFontEP5CFont @ 652 NONAME
	_ZN7AlfUtil12CrossProductEPKfS1_Pf @ 653 NONAME
	_ZN7AlfUtil12ShadowMatrixEPKfS1_S1_Pf @ 654 NONAME
	_ZN7AlfUtil14ColorLightnessERK4TRgb @ 655 NONAME
	_ZN7AlfUtil14CropFbsBitmapLERK10CFbsBitmapRS0_6TPoint @ 656 NONAME
	_ZN7AlfUtil14QuickNormalizeEPf @ 657 NONAME
	_ZN7AlfUtil14QuickNormalizeER13TAlfRealPoint @ 658 NONAME
	_ZN7AlfUtil15Power2RoundDownEi @ 659 NONAME
	_ZN7AlfUtil15ScaleFbsBitmapLERK10CFbsBitmapRS0_ @ 660 NONAME
	_ZN7AlfUtil16NormalFromPointsEPA3_KfPf @ 661 NONAME
	_ZN7AlfUtil19NearestFontInTwipsLERK9TFontSpec @ 662 NONAME
	_ZN7AlfUtil21CombineMaskFbsBitmapLERK10CFbsBitmapS2_RS0_ @ 663 NONAME
	_ZN7AlfUtil28ConvertBitmapToDisplayModeLCERK10CFbsBitmapRK12TDisplayMode @ 664 NONAME
	_ZN7AlfUtil6Power2Ei @ 665 NONAME
	_ZN7AlfUtil9CropImageEiRK5TSizePKhRK6TPointS2_Ph @ 666 NONAME
	_ZN7AlfUtil9RandomIntEii @ 667 NONAME
	_ZN7AlfUtil9WrapValueERfff @ 668 NONAME
	_ZN7CAlfEnv11NewDisplayLERK5TRectii @ 669 NONAME
	_ZN7CAlfEnv11RefreshModeEv @ 670 NONAME
	_ZN7CAlfEnv11TokenClientEv @ 671 NONAME
	_ZN7CAlfEnv12ControlGroupEi @ 672 NONAME
	_ZN7CAlfEnv12PauseRefreshEv @ 673 NONAME
	_ZN7CAlfEnv13AppendWidgetLEPN3Alf10IAlfWidgetE @ 674 NONAME
	_ZN7CAlfEnv14CancelCommandsEPv @ 675 NONAME
	_ZN7CAlfEnv14CancelCommandsEPv15TAlfCommandType @ 676 NONAME
	_ZN7CAlfEnv14CancelCommandsEPv6TAlfOp @ 677 NONAME
	_ZN7CAlfEnv14SetRefreshModeE15TAlfRefreshMode @ 678 NONAME
	_ZN7CAlfEnv15ContinueRefreshEv @ 679 NONAME
	_ZN7CAlfEnv15HandleKeyEventLERK9TKeyEvent10TEventCodeP11CAlfDisplay @ 680 NONAME
	_ZN7CAlfEnv15RefreshCallBackEPv @ 681 NONAME
	_ZN7CAlfEnv15SetMaxFrameRateEf @ 682 NONAME
	_ZN7CAlfEnv16NewControlGroupLEi @ 683 NONAME
	_ZN7CAlfEnv16SetIdleThresholdEi @ 684 NONAME
	_ZN7CAlfEnv18AddActionObserverLEP18MAlfActionObserver @ 685 NONAME
	_ZN7CAlfEnv18DeleteControlGroupEi @ 686 NONAME
	_ZN7CAlfEnv18NotifySkinChangedLEv @ 687 NONAME
	_ZN7CAlfEnv20CancelCustomCommandsEP16MAlfEventHandler @ 688 NONAME
	_ZN7CAlfEnv20CancelCustomCommandsEP16MAlfEventHandleri @ 689 NONAME
	_ZN7CAlfEnv20LastReceivedPtrEventEv @ 690 NONAME
	_ZN7CAlfEnv20LayoutMetricsUtilityEv @ 691 NONAME
	_ZN7CAlfEnv20NotifyLayoutChangedLEv @ 692 NONAME
	_ZN7CAlfEnv20RemoveActionObserverEP18MAlfActionObserver @ 693 NONAME
	_ZN7CAlfEnv20SetFullScreenDrawingEi @ 694 NONAME
	_ZN7CAlfEnv24MilliSecondsUntilCommandEPv @ 695 NONAME
	_ZN7CAlfEnv24MilliSecondsUntilCommandEPv15TAlfCommandType @ 696 NONAME
	_ZN7CAlfEnv24MilliSecondsUntilCommandEPv6TAlfOp @ 697 NONAME
	_ZN7CAlfEnv26DeleteSharedTextureManagerE4TUid @ 698 NONAME
	_ZN7CAlfEnv27CreateSharedTextureManagerLE4TUid @ 699 NONAME
	_ZN7CAlfEnv30MilliSecondsUntilCustomCommandEP16MAlfEventHandler @ 700 NONAME
	_ZN7CAlfEnv30MilliSecondsUntilCustomCommandEP16MAlfEventHandleri @ 701 NONAME
	_ZN10CAlfStatic4NewLEP7CAlfEnv @ 702 NONAME
	_ZN7CAlfEnv4SendERK11TAlfCommandi @ 703 NONAME
	_ZN10CAlfLayout10ConstructLER11CAlfControl @ 704 NONAME
	_ZN7CAlfEnv6ClientEv @ 705 NONAME
	_ZN7CAlfEnv6StaticEv @ 706 NONAME
	_ZN7CAlfEnv7ReleaseEi @ 707 NONAME
	_ZN7CAlfEnv8RestoreLEv @ 708 NONAME
	_ZN7CAlfEnvD0Ev @ 709 NONAME
	_ZN7CAlfEnvD1Ev @ 710 NONAME
	_ZN7CAlfEnvD2Ev @ 711 NONAME
	_ZN8CAlfMesh14ScaleUniformlyEfff @ 712 NONAME
	_ZN8CAlfMesh16StretchUniformlyEffffff @ 713 NONAME
	_ZN8CAlfMesh20SetAnimationPositionEifi @ 714 NONAME
	_ZN8CAlfMesh23StopAnimationControllerEi @ 715 NONAME
	_ZN8CAlfMesh24StartAnimationControllerEi @ 716 NONAME
	_ZN8CAlfMesh5ResetEv @ 717 NONAME
	_ZN9CAlfBrush10ConstructLER7CAlfEnviiRK6TDesC8 @ 718 NONAME
	_ZN9CAlfBrush10ConstructLEv @ 719 NONAME
	_ZN9CAlfBrush10SetOpacityERK14TAlfTimedValue @ 720 NONAME
	_ZN9CAlfBrush22PropertyOwnerExtensionERK4TUidPPv @ 721 NONAME
	_ZN9CAlfBrush8SetLayerE14TAlfBrushLayer @ 722 NONAME
	_ZN9CAlfBrushC1Ev @ 723 NONAME
	_ZN9CAlfBrushC2Ev @ 724 NONAME
	_ZN9CAlfBrushD0Ev @ 725 NONAME
	_ZN9CAlfBrushD1Ev @ 726 NONAME
	_ZN9CAlfBrushD2Ev @ 727 NONAME
	_ZN9TAlfEvent9SetVisualEP10CAlfVisual @ 728 NONAME
	_ZN9TAlfEventC1ER11CAlfDisplayRK13TPointerEvent @ 729 NONAME
	_ZN9TAlfEventC1ER11CAlfDisplayRK17TAlfScrollerEvent @ 730 NONAME
	_ZN9TAlfEventC1ER11CAlfDisplayRK9TKeyEvent10TEventCode @ 731 NONAME
	_ZN9TAlfEventC1Ei @ 732 NONAME
	_ZN9TAlfEventC1Eii @ 733 NONAME
	_ZN9TAlfEventC2ER11CAlfDisplayRK13TPointerEvent @ 734 NONAME
	_ZN9TAlfEventC2ER11CAlfDisplayRK17TAlfScrollerEvent @ 735 NONAME
	_ZN9TAlfEventC2ER11CAlfDisplayRK9TKeyEvent10TEventCode @ 736 NONAME
	_ZN9TAlfEventC2Ei @ 737 NONAME
	_ZN9TAlfEventC2Eii @ 738 NONAME
	_ZN9TAlfImage10SetTextureER11CAlfTexture @ 739 NONAME
	_ZN9TAlfImage12SetTexCoordsEffffi @ 740 NONAME
	_ZN9TAlfImage5ScaleEffi @ 741 NONAME
	_ZN9TAlfImage9TranslateEffi @ 742 NONAME
	_ZN9TAlfImageC1E11TAknsItemID5TSize10TScaleModePK7TDesC16iiffff16TAlfTextureFlagsiP18CAlfTextureManager @ 743 NONAME
	_ZN9TAlfImageC1E4TUid16TAknsAppIconType5TSize10TScaleModeffff16TAlfTextureFlagsiP18CAlfTextureManager @ 744 NONAME
	_ZN9TAlfImageC1ERK11CAlfTextureffff @ 745 NONAME
	_ZN9TAlfImageC1Ev @ 746 NONAME
	_ZN9TAlfImageC2E11TAknsItemID5TSize10TScaleModePK7TDesC16iiffff16TAlfTextureFlagsiP18CAlfTextureManager @ 747 NONAME
	_ZN9TAlfImageC2E4TUid16TAknsAppIconType5TSize10TScaleModeffff16TAlfTextureFlagsiP18CAlfTextureManager @ 748 NONAME
	_ZN9TAlfImageC2ERK11CAlfTextureffff @ 749 NONAME
	_ZN9TAlfImageC2Ev @ 750 NONAME
	_ZN9TAlfImageD1Ev @ 751 NONAME
	_ZN9TAlfImageD2Ev @ 752 NONAME
	_ZNK10CAlfLayout10FindVisualEP10CAlfVisual @ 753 NONAME
	_ZNK10CAlfLayout11VirtualSizeEv @ 754 NONAME
	_ZNK10CAlfLayout12InnerPaddingEv @ 755 NONAME
	_ZNK10CAlfLayout12ScrollOffsetEv @ 756 NONAME
	_ZNK10CAlfLayout14TransitionTimeEv @ 757 NONAME
	_ZNK10CAlfLayout20InnerPaddingAsMetricEv @ 758 NONAME
	_ZNK10CAlfLayout20VerticalInnerPaddingEv @ 759 NONAME
	_ZNK10CAlfLayout22EffectiveLayoutOrdinalERK10CAlfVisual @ 760 NONAME
	_ZNK10CAlfLayout22HorizontalInnerPaddingEv @ 761 NONAME
	_ZNK10CAlfLayout23InnerPaddingInBaseUnitsEv @ 762 NONAME
	_ZNK10CAlfLayout5CountEv @ 763 NONAME
	_ZNK10CAlfLayout6VisualEi @ 764 NONAME
	_ZNK10CAlfLayout8BaseUnitEv @ 765 NONAME
	_ZNK10CAlfLayout9ScrollingEv @ 766 NONAME
	_ZNK10CAlfRoster11FindControlEi @ 767 NONAME
	_ZNK10CAlfRoster12ControlGroupEi @ 768 NONAME
	_ZNK10CAlfRoster4FindERK16CAlfControlGroup @ 769 NONAME
	_ZNK10CAlfRoster5CountEv @ 770 NONAME
	_ZNK10CAlfVisual10IdentifierEv @ 771 NONAME
	_ZNK10CAlfVisual11DepthOffsetEv @ 772 NONAME
	_ZNK10CAlfVisual11DisplayRectEv @ 773 NONAME
	_ZNK10CAlfVisual13AlignByOriginER12TAlfRealRect @ 774 NONAME
	_ZNK10CAlfVisual14DisplayToLocalERK13TAlfRealPoint @ 775 NONAME
	_ZNK10CAlfVisual14DisplayToLocalERK6TPoint @ 776 NONAME
	_ZNK10CAlfVisual14LocalToDisplayERK13TAlfRealPoint @ 777 NONAME
	_ZNK10CAlfVisual14LocalToDisplayERK6TPoint @ 778 NONAME
	_ZNK10CAlfVisual14VerticalOriginEv @ 779 NONAME
	_ZNK10CAlfVisual15PaddingAsMetricEv @ 780 NONAME
	_ZNK10CAlfVisual15PaddingInPixelsEv @ 781 NONAME
	_ZNK10CAlfVisual15VerticalPaddingEv @ 782 NONAME
	_ZNK10CAlfVisual16EffectiveOpacityEv @ 783 NONAME
	_ZNK10CAlfVisual16HorizontalOriginEv @ 784 NONAME
	_ZNK10CAlfVisual17DisplayRectTargetEv @ 785 NONAME
	_ZNK10CAlfVisual17HorizontalPaddingEv @ 786 NONAME
	_ZNK10CAlfVisual3EnvEv @ 787 NONAME
	_ZNK10CAlfVisual3PosEv @ 788 NONAME
	_ZNK10CAlfVisual3TagEv @ 789 NONAME
	_ZNK10CAlfVisual4SizeEv @ 790 NONAME
	_ZNK10CAlfVisual5CommsEv @ 791 NONAME
	_ZNK10CAlfVisual5FlagsEv @ 792 NONAME
	_ZNK10CAlfVisual5OwnerEv @ 793 NONAME
	_ZNK10CAlfVisual6LayoutEv @ 794 NONAME
	_ZNK10CAlfVisual7DisplayEv @ 795 NONAME
	_ZNK10CAlfVisual7MaxSizeEv @ 796 NONAME
	_ZNK10CAlfVisual7MinSizeEv @ 797 NONAME
	_ZNK10CAlfVisual7OpacityEv @ 798 NONAME
	_ZNK10CAlfVisual7PaddingEv @ 799 NONAME
	_ZNK10CAlfVisual8ClippingEv @ 800 NONAME
	_ZNK10CAlfVisual8IsTaggedEv @ 801 NONAME
	_ZNK11CAlfControl10ConnectionEi @ 802 NONAME
	_ZNK11CAlfControl10IdentifierEv @ 803 NONAME
	_ZNK11CAlfControl10IsFocusingEv @ 804 NONAME
	_ZNK11CAlfControl11AcceptInputEv @ 805 NONAME
	_ZNK11CAlfControl11DisplayAreaEv @ 806 NONAME
	_ZNK11CAlfControl11VisualCountEv @ 807 NONAME
	_ZNK11CAlfControl12ControlGroupEv @ 808 NONAME
	_ZNK11CAlfControl13DisplayCenterEv @ 809 NONAME
	_ZNK11CAlfControl13DisplayToHostERK6TPoint @ 810 NONAME
	_ZNK11CAlfControl13HostToDisplayERK6TPoint @ 811 NONAME
	_ZNK11CAlfControl14ConnectionRoleEi @ 812 NONAME
	_ZNK11CAlfControl14FindConnectionEPKS_ @ 813 NONAME
	_ZNK11CAlfControl15ConnectionCountEv @ 814 NONAME
	_ZNK11CAlfControl15ContainerLayoutEPKS_ @ 815 NONAME
	_ZNK11CAlfControl17ConnectionOrdinalEi @ 816 NONAME
	_ZNK11CAlfControl19ConnectionByOrdinalEi @ 817 NONAME
	_ZNK11CAlfControl2IdEv @ 818 NONAME
	_ZNK11CAlfControl3EnvEv @ 819 NONAME
	_ZNK11CAlfControl4HostEv @ 820 NONAME
	_ZNK11CAlfControl4RoleEv @ 821 NONAME
	_ZNK11CAlfControl5FocusEv @ 822 NONAME
	_ZNK11CAlfControl6BoundsEv @ 823 NONAME
	_ZNK11CAlfControl6HostIdEv @ 824 NONAME
	_ZNK11CAlfControl6VisualEi @ 825 NONAME
	_ZNK11CAlfControl7DisplayEv @ 826 NONAME
	_ZNK11CAlfControl7FindTagERK6TDesC8 @ 827 NONAME
	_ZNK11CAlfControl7HitTestERK6TPoint @ 828 NONAME
	_ZNK11CAlfDisplay11VisibleAreaEv @ 829 NONAME
	_ZNK11CAlfDisplay14ObjectProviderEv @ 830 NONAME
	_ZNK11CAlfDisplay6RosterEv @ 831 NONAME
	_ZNK11CAlfDisplay7QualityEv @ 832 NONAME
	_ZNK11CAlfTexture10HasContentEv @ 833 NONAME
	_ZNK11CAlfTexture10IsAnimatedEv @ 834 NONAME
	_ZNK11CAlfTexture12ServerHandleEv @ 835 NONAME
	_ZNK11CAlfTexture2IdEv @ 836 NONAME
	_ZNK11CAlfTexture4SizeEv @ 837 NONAME
	_ZNK11CAlfTexture8FileNameEv @ 838 NONAME
	_ZNK11CAlfTexture8PriorityEv @ 839 NONAME
	_ZNK11TAlfCommand13ObjectCommandEv @ 840 NONAME
	_ZNK11TAlfCommand4TypeEv @ 841 NONAME
	_ZNK13CAlfCurvePath25MappingFunctionIdentifierEv @ 842 NONAME
	_ZNK13CAlfCurvePath4LoopEv @ 843 NONAME
	_ZNK13CAlfCurvePath6LengthEv @ 844 NONAME
	_ZNK13CAlfCurvePath6OffsetEv @ 845 NONAME
	_ZNK13CAlfCurvePath8EvaluateEfR13TAlfRealPoint @ 846 NONAME
	_ZNK13CAlfCurvePath8MapValueEfi @ 847 NONAME
	_ZNK13CAlfTextStyle11IsUnderlineEv @ 848 NONAME
	_ZNK13CAlfTextStyle13TypefaceNameLEv @ 849 NONAME
	_ZNK13CAlfTextStyle15IsStrikeThroughEv @ 850 NONAME
	_ZNK13CAlfTextStyle15TextSizeInTwipsEi @ 851 NONAME
	_ZNK13CAlfTextStyle16TextSizeInPixelsEi @ 852 NONAME
	_ZNK13CAlfTextStyle2IdEv @ 853 NONAME
	_ZNK13CAlfTextStyle6IsBoldEv @ 854 NONAME
	_ZNK13CAlfTextStyle8IsItalicEv @ 855 NONAME
	_ZNK13CAlfTextStyle8ParentIdEv @ 856 NONAME
	_ZNK13CAlfTextStyle9TextColorEv @ 857 NONAME
	_ZNK14CAlfBrushArray5CountEv @ 858 NONAME
	_ZNK14CAlfDeckLayout8BaseUnitEv @ 859 NONAME
	_ZNK14CAlfFlowLayout4ModeEv @ 860 NONAME
	_ZNK14CAlfFlowLayout8BaseUnitEv @ 861 NONAME
	_ZNK14CAlfGridLayout11ColumnCountEv @ 862 NONAME
	_ZNK14CAlfGridLayout14DimensionCountE17TAlfGridDimension @ 863 NONAME
	_ZNK14CAlfGridLayout14OrdinalToBlockEi @ 864 NONAME
	_ZNK14CAlfGridLayout6WeightE17TAlfGridDimensioni @ 865 NONAME
	_ZNK14CAlfGridLayout8BaseUnitEv @ 866 NONAME
	_ZNK14CAlfGridLayout8RowCountEv @ 867 NONAME
	_ZNK14CAlfImageBrush20BorderDrawingEnabledEv @ 868 NONAME
	_ZNK14CAlfImageBrush20CenterDrawingEnabledEv @ 869 NONAME
	_ZNK14CAlfImageBrush5ImageEv @ 870 NONAME
	_ZNK14CAlfImageBrush5ScaleEv @ 871 NONAME
	_ZNK14CAlfImageBrush6OffsetEv @ 872 NONAME
	_ZNK14CAlfLineVisual15ShadowThicknessEv @ 873 NONAME
	_ZNK14CAlfLineVisual5ImageEv @ 874 NONAME
	_ZNK14CAlfLineVisual6EndPosEv @ 875 NONAME
	_ZNK14CAlfLineVisual8StartPosEv @ 876 NONAME
	_ZNK14CAlfLineVisual9ThicknessEv @ 877 NONAME
	_ZNK14CAlfMeshVisual10PitchAngleEv @ 878 NONAME
	_ZNK14CAlfMeshVisual13SpecularImageEv @ 879 NONAME
	_ZNK14CAlfMeshVisual14ProceduralMeshEv @ 880 NONAME
	_ZNK14CAlfMeshVisual14SecondaryAlphaEv @ 881 NONAME
	_ZNK14CAlfMeshVisual14SecondaryImageEv @ 882 NONAME
	_ZNK14CAlfMeshVisual5ImageEv @ 883 NONAME
	_ZNK14CAlfMeshVisual5ScaleEv @ 884 NONAME
	_ZNK14CAlfMeshVisual7M3GMeshEv @ 885 NONAME
	_ZNK14CAlfMeshVisual8YawAngleEv @ 886 NONAME
	_ZNK14CAlfTextVisual11TextExtentsEv @ 887 NONAME
	_ZNK14CAlfTextVisual12MaxLineCountEv @ 888 NONAME
	_ZNK14CAlfTextVisual16SubstringExtentsEjj @ 889 NONAME
	_ZNK14CAlfTextVisual4TextEv @ 890 NONAME
	_ZNK14CAlfTextVisual8WrappingEv @ 891 NONAME
	_ZNK14RAlfClientBase10ServiceUidEv @ 892 NONAME
	_ZNK14TAlfTimedPoint11IntValueNowEv @ 893 NONAME
	_ZNK14TAlfTimedPoint9IntTargetEv @ 894 NONAME
	_ZNK14TAlfTimedValue25MappingFunctionIdentifierEv @ 895 NONAME
	_ZNK14TAlfTimedValue26TimeToTargetinMilliSecondsEv @ 896 NONAME
	_ZNK14TAlfTimedValue5SpeedEv @ 897 NONAME
	_ZNK14TAlfTimedValue6TargetEv @ 898 NONAME
	_ZNK14TAlfTimedValue8ValueNowEv @ 899 NONAME
	_ZNK15CAlfBorderBrush10EdgeOffsetEv @ 900 NONAME
	_ZNK15CAlfBorderBrush11ImageOffsetEv @ 901 NONAME
	_ZNK15CAlfBorderBrush5ImageEv @ 902 NONAME
	_ZNK15CAlfBorderBrush9ThicknessEv @ 903 NONAME
	_ZNK15CAlfImageVisual14SecondaryImageEv @ 904 NONAME
	_ZNK15CAlfImageVisual5ImageEv @ 905 NONAME
	_ZNK15TAlfTextCommand10TextVisualEv @ 906 NONAME
	_ZNK15TAlfTextCommand4SizeEv @ 907 NONAME
	_ZNK15TAlfTextCommand4TextEv @ 908 NONAME
	_ZNK15TAlfTextCommand8ExecuteLER7CAlfEnv @ 909 NONAME
	_ZNK16CAlfAnchorLayout8BaseUnitEv @ 910 NONAME
	_ZNK16CAlfControlGroup10ResourceIdEv @ 911 NONAME
	_ZNK16CAlfControlGroup11AcceptInputEv @ 912 NONAME
	_ZNK16CAlfControlGroup11FindControlEii @ 913 NONAME
	_ZNK16CAlfControlGroup13IsTransformedEv @ 914 NONAME
	_ZNK16CAlfControlGroup5CountEv @ 915 NONAME
	_ZNK16CAlfControlGroup7ControlEi @ 916 NONAME
	_ZNK16TAlfGroupCommand12ControlGroupEv @ 917 NONAME
	_ZNK16TAlfGroupCommand4SizeEv @ 918 NONAME
	_ZNK16TAlfGroupCommand7DisplayEv @ 919 NONAME
	_ZNK16TAlfGroupCommand8ExecuteLER7CAlfEnv @ 920 NONAME
	_ZNK16TAlfImageCommand11ImageVisualEv @ 921 NONAME
	_ZNK16TAlfImageCommand4SizeEv @ 922 NONAME
	_ZNK16TAlfImageCommand5ImageEv @ 923 NONAME
	_ZNK16TAlfImageCommand8ExecuteLER7CAlfEnv @ 924 NONAME
	_ZNK16TAlfPointCommand10TimedPointEv @ 925 NONAME
	_ZNK16TAlfPointCommand14TransitionTimeEv @ 926 NONAME
	_ZNK16TAlfPointCommand4SizeEv @ 927 NONAME
	_ZNK16TAlfPointCommand5SpeedEv @ 928 NONAME
	_ZNK16TAlfPointCommand6TargetEv @ 929 NONAME
	_ZNK16TAlfPointCommand8ExecuteLER7CAlfEnv @ 930 NONAME
	_ZNK16TAlfValueCommand10TimedValueEv @ 931 NONAME
	_ZNK16TAlfValueCommand14TransitionTimeEv @ 932 NONAME
	_ZNK16TAlfValueCommand4SizeEv @ 933 NONAME
	_ZNK16TAlfValueCommand5SpeedEv @ 934 NONAME
	_ZNK16TAlfValueCommand6TargetEv @ 935 NONAME
	_ZNK16TAlfValueCommand8ExecuteLER7CAlfEnv @ 936 NONAME
	_ZNK17CAlfGradientBrush5ColorEi @ 937 NONAME
	_ZNK17CAlfGradientBrush5ImageEv @ 938 NONAME
	_ZNK17CAlfGradientBrush7OpacityEi @ 939 NONAME
	_ZNK17CAlfLCTGridLayout8BaseUnitEv @ 940 NONAME
	_ZNK17CAlfPropertyOwner18PropertyFindStringERK6TDesC8PP7TDesC16 @ 941 NONAME
	_ZNK17CAlfPropertyOwner19PropertyFindIntegerERK6TDesC8Pi @ 942 NONAME
	_ZNK17TAlfActionCommand2IdEv @ 943 NONAME
	_ZNK17TAlfActionCommand4SizeEv @ 944 NONAME
	_ZNK17TAlfActionCommand8ExecuteLER7CAlfEnv @ 945 NONAME
	_ZNK17TAlfMarkerCommand2IdEv @ 946 NONAME
	_ZNK17TAlfMarkerCommand4SizeEv @ 947 NONAME
	_ZNK17TAlfMarkerCommand8ExecuteLER7CAlfEnv @ 948 NONAME
	_ZNK17TAlfObjectCommand13ObjectCommandEv @ 949 NONAME
	_ZNK17TAlfObjectCommand4SizeEv @ 950 NONAME
	_ZNK17TAlfObjectCommand6ObjectEv @ 951 NONAME
	_ZNK17TAlfObjectCommand8ExecuteLER7CAlfEnv @ 952 NONAME
	_ZNK17TAlfObjectCommand9OperationEv @ 953 NONAME
	_ZNK17TAlfScrollerEvent11OrientationEv @ 954 NONAME
	_ZNK17TAlfScrollerEvent4CodeEv @ 955 NONAME
	_ZNK17TAlfScrollerEvent9MagnitudeEv @ 956 NONAME
	_ZNK17TAlfVisualCommand10FlagsToSetEv @ 957 NONAME
	_ZNK17TAlfVisualCommand12FlagsToClearEv @ 958 NONAME
	_ZNK17TAlfVisualCommand4SizeEv @ 959 NONAME
	_ZNK17TAlfVisualCommand6VisualEv @ 960 NONAME
	_ZNK17TAlfVisualCommand8ExecuteLER7CAlfEnv @ 961 NONAME
	_ZNK18CAlfProceduralMesh8MaterialEv @ 962 NONAME
	_ZNK18CAlfTextureManager12BlankTextureEv @ 963 NONAME
	_ZNK18CAlfTextureManager7TextureEi @ 964 NONAME
	_ZNK18CAlfTextureManager8IsLoadedEPK11CAlfTexture @ 965 NONAME
	_ZNK18CAlfTextureManager8IsLoadedERK7TDesC16 @ 966 NONAME
	_ZNK18CAlfTextureManager8IsLoadedEi @ 967 NONAME
	_ZNK18CAlfTextureManager9ImagePathEv @ 968 NONAME
	_ZNK18CAlfTransformation16NonIdentityCountEv @ 969 NONAME
	_ZNK18CAlfTransformation5CountEv @ 970 NONAME
	_ZNK18CAlfViewportLayout8BaseUnitEv @ 971 NONAME
	_ZNK18TAlfControlCommand4SizeEv @ 972 NONAME
	_ZNK18TAlfControlCommand7ControlEv @ 973 NONAME
	_ZNK18TAlfControlCommand8ExecuteLER7CAlfEnv @ 974 NONAME
	_ZNK19CAlfCurvePathLayout25MappingFunctionIdentifierEv @ 975 NONAME
	_ZNK19CAlfCurvePathLayout8BaseUnitEv @ 976 NONAME
	_ZNK19CAlfCurvePathLayout8MapValueEfi @ 977 NONAME
	_ZNK19CAlfDropShadowBrush5DepthEv @ 978 NONAME
	_ZNK19CAlfDropShadowBrush8SoftnessEv @ 979 NONAME
	_ZNK19CAlfLCTAnchorLayout8BaseUnitEv @ 980 NONAME
	_ZNK21CAlfShadowBorderBrush5WidthEv @ 981 NONAME
	_ZNK22TAlfCustomEventCommand4SizeEv @ 982 NONAME
	_ZNK22TAlfCustomEventCommand5ParamEv @ 983 NONAME
	_ZNK22TAlfCustomEventCommand8ExecuteLER7CAlfEnv @ 984 NONAME
	_ZNK22TAlfCustomEventCommand9EventDataEv @ 985 NONAME
	_ZNK22TAlfCustomEventCommand9RecipientEv @ 986 NONAME
	_ZNK23CAlfSineMappingFunction6FactorEv @ 987 NONAME
	_ZNK23CAlfSineMappingFunction6OffsetEv @ 988 NONAME
	_ZNK25CAlfCosineMappingFunction6FactorEv @ 989 NONAME
	_ZNK25CAlfCosineMappingFunction6OffsetEv @ 990 NONAME
	_ZNK25CAlfLinearMappingFunction6FactorEv @ 991 NONAME
	_ZNK25CAlfLinearMappingFunction6OffsetEv @ 992 NONAME
	_ZNK25TAlfTransformationCommand14TransformationEv @ 993 NONAME
	_ZNK25TAlfTransformationCommand4SizeEv @ 994 NONAME
	_ZNK25TAlfTransformationCommand4StepEv @ 995 NONAME
	_ZNK25TAlfTransformationCommand8ExecuteLER7CAlfEnv @ 996 NONAME
	_ZNK27CAlfConstantMappingFunction5ValueEv @ 997 NONAME
	_ZNK7CAlfEnv10FindWidgetEPKc @ 998 NONAME
	_ZNK7CAlfEnv11FindControlEii @ 999 NONAME
	_ZNK7CAlfEnv12DisplayCountEv @ 1000 NONAME
	_ZNK7CAlfEnv13WidgetFactoryEv @ 1001 NONAME
	_ZNK7CAlfEnv14PrimaryDisplayEv @ 1002 NONAME
	_ZNK7CAlfEnv14TextureManagerEv @ 1003 NONAME
	_ZNK7CAlfEnv16TextStyleManagerEv @ 1004 NONAME
	_ZNK7CAlfEnv20SharedTextureManagerE4TUid @ 1005 NONAME
	_ZN10CAlfLayout11SetBaseUnitERK10TAlfMetric @ 1006 NONAME
	_ZNK7CAlfEnv8RendererEv @ 1007 NONAME
	_ZNK8CAlfMesh24AnimationControllerCountEv @ 1008 NONAME
	_ZNK8CAlfMesh8MeshTypeEv @ 1009 NONAME
	_ZNK9CAlfBrush10IdentifierEv @ 1010 NONAME
	_ZNK9CAlfBrush5CommsEv @ 1011 NONAME
	_ZNK9CAlfBrush7OpacityEv @ 1012 NONAME
	_ZNK9TAlfEvent10IsKeyEventEv @ 1013 NONAME
	_ZNK9TAlfEvent11PointerDownEv @ 1014 NONAME
	_ZNK9TAlfEvent12PointerEventEv @ 1015 NONAME
	_ZNK9TAlfEvent13IsCustomEventEv @ 1016 NONAME
	_ZNK9TAlfEvent13ScrollerEventEv @ 1017 NONAME
	_ZNK9TAlfEvent14IsPointerEventEv @ 1018 NONAME
	_ZNK9TAlfEvent14PointerLongTapEv @ 1019 NONAME
	_ZNK9TAlfEvent15CustomEventDataEv @ 1020 NONAME
	_ZNK9TAlfEvent15CustomParameterEv @ 1021 NONAME
	_ZNK9TAlfEvent15IsScrollerEventEv @ 1022 NONAME
	_ZNK9TAlfEvent4CodeEv @ 1023 NONAME
	_ZNK9TAlfEvent4TypeEv @ 1024 NONAME
	_ZNK9TAlfEvent6VisualEv @ 1025 NONAME
	_ZNK9TAlfEvent7DisplayEv @ 1026 NONAME
	_ZNK9TAlfEvent8KeyEventEv @ 1027 NONAME
	_ZNK9TAlfEvent9PointerUpEv @ 1028 NONAME
	_ZNK9TAlfImage10HasTextureEv @ 1029 NONAME
	_ZNK9TAlfImage11BottomRightEv @ 1030 NONAME
	_ZNK9TAlfImage7TextureEv @ 1031 NONAME
	_ZNK9TAlfImage7TopLeftEv @ 1032 NONAME
	_ZTI10CAlfLayout @ 1033 NONAME ; #<TI>#
	_ZTI10CAlfVisual @ 1034 NONAME ; #<TI>#
	_ZTI11CAlfControl @ 1035 NONAME ; #<TI>#
	_ZTI11TAlfCommand @ 1036 NONAME ; #<TI>#
	_ZTI14CAlfDeckLayout @ 1037 NONAME ; #<TI>#
	_ZTI14CAlfFlowLayout @ 1038 NONAME ; #<TI>#
	_ZTI14CAlfGridLayout @ 1039 NONAME ; #<TI>#
	_ZTI14CAlfLineVisual @ 1040 NONAME ; #<TI>#
	_ZTI14CAlfMeshVisual @ 1041 NONAME ; #<TI>#
	_ZTI14CAlfTextVisual @ 1042 NONAME ; #<TI>#
	_ZTI14RAlfClientBase @ 1043 NONAME ; #<TI>#
	_ZTI15CAlfImageVisual @ 1044 NONAME ; #<TI>#
	_ZTI15TAlfTextCommand @ 1045 NONAME ; #<TI>#
	_ZTI16CAlfAnchorLayout @ 1046 NONAME ; #<TI>#
	_ZTI16TAlfGroupCommand @ 1047 NONAME ; #<TI>#
	_ZTI16TAlfImageCommand @ 1048 NONAME ; #<TI>#
	_ZTI16TAlfPointCommand @ 1049 NONAME ; #<TI>#
	_ZTI16TAlfValueCommand @ 1050 NONAME ; #<TI>#
	_ZTI17CAlfLCTGridLayout @ 1051 NONAME ; #<TI>#
	_ZTI17CAlfLCTTextVisual @ 1052 NONAME ; #<TI>#
	_ZTI17CAlfPropertyOwner @ 1053 NONAME ; #<TI>#
	_ZTI17TAlfActionCommand @ 1054 NONAME ; #<TI>#
	_ZTI17TAlfMarkerCommand @ 1055 NONAME ; #<TI>#
	_ZTI17TAlfObjectCommand @ 1056 NONAME ; #<TI>#
	_ZTI17TAlfVisualCommand @ 1057 NONAME ; #<TI>#
	_ZTI18CAlfViewportLayout @ 1058 NONAME ; #<TI>#
	_ZTI18TAlfControlCommand @ 1059 NONAME ; #<TI>#
	_ZTI19CAlfCurvePathLayout @ 1060 NONAME ; #<TI>#
	_ZTI19CAlfLCTAnchorLayout @ 1061 NONAME ; #<TI>#
	_ZTI22TAlfCustomEventCommand @ 1062 NONAME ; #<TI>#
	_ZTI23CAlfSineMappingFunction @ 1063 NONAME ; #<TI>#
	_ZTI24CAlfTableMappingFunction @ 1064 NONAME ; #<TI>#
	_ZTI25CAlfCosineMappingFunction @ 1065 NONAME ; #<TI>#
	_ZTI25CAlfLinearMappingFunction @ 1066 NONAME ; #<TI>#
	_ZTI25TAlfTransformationCommand @ 1067 NONAME ; #<TI>#
	_ZTI26CAlfAverageMappingFunction @ 1068 NONAME ; #<TI>#
	_ZTI27CAlfConstantMappingFunction @ 1069 NONAME ; #<TI>#
	_ZTI9CAlfBrush @ 1070 NONAME ; #<TI>#
	_ZTIN20CAlfCommandScheduler11CTimedEventE @ 1071 NONAME ; #<TI>#
	_ZTV10CAlfLayout @ 1072 NONAME ; #<VT>#
	_ZTV10CAlfVisual @ 1073 NONAME ; #<VT>#
	_ZTV11CAlfControl @ 1074 NONAME ; #<VT>#
	_ZTV11TAlfCommand @ 1075 NONAME ; #<VT>#
	_ZTV14CAlfDeckLayout @ 1076 NONAME ; #<VT>#
	_ZTV14CAlfFlowLayout @ 1077 NONAME ; #<VT>#
	_ZTV14CAlfGridLayout @ 1078 NONAME ; #<VT>#
	_ZTV14CAlfLineVisual @ 1079 NONAME ; #<VT>#
	_ZTV14CAlfMeshVisual @ 1080 NONAME ; #<VT>#
	_ZTV14CAlfTextVisual @ 1081 NONAME ; #<VT>#
	_ZTV14RAlfClientBase @ 1082 NONAME ; #<VT>#
	_ZTV15CAlfImageVisual @ 1083 NONAME ; #<VT>#
	_ZTV15TAlfTextCommand @ 1084 NONAME ; #<VT>#
	_ZTV16CAlfAnchorLayout @ 1085 NONAME ; #<VT>#
	_ZTV16TAlfGroupCommand @ 1086 NONAME ; #<VT>#
	_ZTV16TAlfImageCommand @ 1087 NONAME ; #<VT>#
	_ZTV16TAlfPointCommand @ 1088 NONAME ; #<VT>#
	_ZTV16TAlfValueCommand @ 1089 NONAME ; #<VT>#
	_ZTV17CAlfLCTGridLayout @ 1090 NONAME ; #<VT>#
	_ZTV17CAlfLCTTextVisual @ 1091 NONAME ; #<VT>#
	_ZTV17CAlfPropertyOwner @ 1092 NONAME ; #<VT>#
	_ZTV17TAlfActionCommand @ 1093 NONAME ; #<VT>#
	_ZTV17TAlfMarkerCommand @ 1094 NONAME ; #<VT>#
	_ZTV17TAlfObjectCommand @ 1095 NONAME ; #<VT>#
	_ZTV17TAlfVisualCommand @ 1096 NONAME ; #<VT>#
	_ZTV18CAlfViewportLayout @ 1097 NONAME ; #<VT>#
	_ZTV18TAlfControlCommand @ 1098 NONAME ; #<VT>#
	_ZTV19CAlfCurvePathLayout @ 1099 NONAME ; #<VT>#
	_ZTV19CAlfLCTAnchorLayout @ 1100 NONAME ; #<VT>#
	_ZTV22TAlfCustomEventCommand @ 1101 NONAME ; #<VT>#
	_ZTV23CAlfSineMappingFunction @ 1102 NONAME ; #<VT>#
	_ZTV24CAlfTableMappingFunction @ 1103 NONAME ; #<VT>#
	_ZTV25CAlfCosineMappingFunction @ 1104 NONAME ; #<VT>#
	_ZTV25CAlfLinearMappingFunction @ 1105 NONAME ; #<VT>#
	_ZTV25TAlfTransformationCommand @ 1106 NONAME ; #<VT>#
	_ZTV26CAlfAverageMappingFunction @ 1107 NONAME ; #<VT>#
	_ZTV27CAlfConstantMappingFunction @ 1108 NONAME ; #<VT>#
	_ZTV9CAlfBrush @ 1109 NONAME ; #<VT>#
	_ZTVN20CAlfCommandScheduler11CTimedEventE @ 1110 NONAME ; #<VT>#
	_ZThn32_N11CAlfControl11OfferEventLERK9TAlfEvent @ 1111 NONAME ; #<thunk>#
	_ZThn40_NK19CAlfCurvePathLayout25MappingFunctionIdentifierEv @ 1112 NONAME ; #<thunk>#
	_ZThn40_NK19CAlfCurvePathLayout8MapValueEfi @ 1113 NONAME ; #<thunk>#
	_ZThn4_NK13CAlfCurvePath25MappingFunctionIdentifierEv @ 1114 NONAME ; #<thunk>#
	_ZThn4_NK13CAlfCurvePath8MapValueEfi @ 1115 NONAME ; #<thunk>#
	_ZN19CAlfImageLoaderUtil21CreateSVGImageLoaderLERK7TDesC16 @ 1116 NONAME
	_ZN14CAlfLineVisual8SetColorERK4TRgb @ 1117 NONAME
	_ZN13CAlfCurvePath10AppendArcLERK13TAlfRealPointRK12TAlfRealSizefff @ 1118 NONAME
	_ZN13CAlfCurvePath11AppendLineLERK13TAlfRealPointS2_f @ 1119 NONAME
	_ZN15CAlfImageVisual13SetDropShadowERK10TAlfMetric @ 1120 NONAME
	_ZN15CAlfImageVisual13SetDropShadowERK12TAlfXYMetric @ 1121 NONAME
	_ZN14CAlfFrameBrush13SetEdgeOffsetERK12TAlfXYMetric @ 1122 NONAME
	_ZN14CAlfFrameBrush4NewLER7CAlfEnvRK11TAknsItemIDRK12TAlfXYMetric @ 1123 NONAME
	_ZN14CAlfFrameBrush5NewLCER7CAlfEnvRK11TAknsItemIDRK12TAlfXYMetric @ 1124 NONAME
	_ZN15CAlfBorderBrush12SetThicknessERK12TAlfXYMetric @ 1125 NONAME
	_ZN15CAlfBorderBrush13SetEdgeOffsetERK12TAlfXYMetric @ 1126 NONAME
	_ZN15CAlfBorderBrush14SetImageOffsetERK12TAlfXYMetric @ 1127 NONAME
	_ZN15CAlfBorderBrush4NewLER7CAlfEnvRK12TAlfXYMetricS4_ @ 1128 NONAME
	_ZN15CAlfBorderBrush5NewLCER7CAlfEnvRK12TAlfXYMetricS4_ @ 1129 NONAME
	_ZN19CAlfDropShadowBrush11SetSoftnessERK10TAlfMetric @ 1130 NONAME
	_ZN19CAlfDropShadowBrush4NewLER7CAlfEnvRK10TAlfMetric @ 1131 NONAME
	_ZN19CAlfDropShadowBrush5NewLCER7CAlfEnvRK10TAlfMetric @ 1132 NONAME
	_ZN19CAlfDropShadowBrush8SetColorERK4TRgb @ 1133 NONAME
	_ZN19CAlfDropShadowBrush8SetDepthERK10TAlfMetric @ 1134 NONAME
	_ZN21CAlfShadowBorderBrush4NewLER7CAlfEnvRK10TAlfMetric @ 1135 NONAME
	_ZN21CAlfShadowBorderBrush5NewLCER7CAlfEnvRK10TAlfMetric @ 1136 NONAME
	_ZN21CAlfShadowBorderBrush8SetWidthERK10TAlfMetric @ 1137 NONAME
	_ZN18CAlfTextureManager20LoadAnimatedTextureLERK7TDesC165TSize16TAlfTextureFlagsi @ 1138 NONAME
	_ZN7CAlfEnv13DestroyWidgetEPN3Alf10IAlfWidgetE @ 1139 NONAME
	_ZN16CAlfAnchorLayout6AttachEi14TAlfAnchorTypeRK10TAlfMetric26TAlfAnchorAttachmentOrigini @ 1140 NONAME
	_ZN16CAlfAnchorLayout6AttachEi14TAlfAnchorTypeRK12TAlfXYMetric26TAlfAnchorAttachmentOrigini @ 1141 NONAME
	_ZN16CAlfAnchorLayout6AttachEiRK13TAlfBoxMetric26TAlfAnchorAttachmentOrigini @ 1142 NONAME
	_ZN16CAlfAnchorLayout6DetachEi @ 1143 NONAME
	_ZN16CAlfAnchorLayout6DetachEi14TAlfAnchorType @ 1144 NONAME
	_ZN10CAlfVisual10SetMaxSizeERK12TAlfRealSize @ 1145 NONAME
	_ZN10CAlfVisual10SetMinSizeERK12TAlfRealSize @ 1146 NONAME
	_ZN10CAlfVisual21SetCenteredPosAndSizeERK13TAlfRealPointRK12TAlfRealSizei @ 1147 NONAME
	_ZN10CAlfVisual4MoveERK13TAlfRealPointi @ 1148 NONAME
	_ZNK10CAlfVisual18MaxSizeInBaseUnitsEv @ 1149 NONAME
	_ZNK10CAlfVisual18MinSizeInBaseUnitsEv @ 1150 NONAME
	_ZN13TAlfBoxMetricC1ERK12TAlfXYMetricS2_ @ 1151 NONAME
	_ZN13TAlfBoxMetricC2ERK12TAlfXYMetricS2_ @ 1152 NONAME
	_ZN11CAlfTextureD0Ev @ 1153 NONAME
	_ZN11CAlfTextureD1Ev @ 1154 NONAME
	_ZN11CAlfTextureD2Ev @ 1155 NONAME
	_ZN14CAlfGridLayout15LayoutModeFlagsE17TAlfGridDimension @ 1156 NONAME
	_ZN14CAlfGridLayout18SetLayoutModeFlagsE17TAlfGridDimensionj @ 1157 NONAME
	_ZN14CAlfGridLayout20ClearLayoutModeFlagsE17TAlfGridDimensionj @ 1158 NONAME
	_ZN10CAlfVisual19SetTactileFeedbackLEii @ 1159 NONAME
	_ZN10CAlfVisual21RemoveTactileFeedbackEi @ 1160 NONAME
	_ZNK10CAlfVisual18HasTactileFeedbackEi @ 1161 NONAME
	_ZN10CAlfRoster23SetPointerDragThresholdERK11CAlfControlRK12TAlfXYMetric @ 1162 NONAME
	_ZN10CAlfRoster32DisableLongTapEventsWhenDraggingERK11CAlfControli @ 1163 NONAME
	_ZN14CAlfTextVisual8SetColorERK7TDesC16S2_ @ 1164 NONAME
	_ZN9TAlfImageC1EPK7TDesC165TSize10TScaleModeS2_iiffff16TAlfTextureFlagsiP18CAlfTextureManager @ 1165 NONAME
	_ZN9TAlfImageC2EPK7TDesC165TSize10TScaleModeS2_iiffff16TAlfTextureFlagsiP18CAlfTextureManager @ 1166 NONAME
	_ZN16CAlfScreenBuffer10ConstructLEv @ 1167 NONAME
	_ZN16CAlfScreenBuffer12AddObserverLE4TUidP24MAlfScreenBufferObserveri @ 1168 NONAME
	_ZN16CAlfScreenBuffer14RemoveObserverE4TUid @ 1169 NONAME
	_ZN16CAlfScreenBuffer17RequestNextBufferE4TUid @ 1170 NONAME
	_ZN16CAlfScreenBuffer18GetGraphicsContextE4TUidS0_ @ 1171 NONAME
	_ZN16CAlfScreenBuffer19GetDrawingInterfaceE4TUidS0_ @ 1172 NONAME
	_ZN16CAlfScreenBuffer4NewLER7CAlfEnv @ 1173 NONAME
	_ZN16CAlfScreenBufferC1ER7CAlfEnv @ 1174 NONAME
	_ZN16CAlfScreenBufferC2ER7CAlfEnv @ 1175 NONAME
	_ZN16CAlfScreenBufferD0Ev @ 1176 NONAME
	_ZN16CAlfScreenBufferD1Ev @ 1177 NONAME
	_ZN16CAlfScreenBufferD2Ev @ 1178 NONAME
	_ZN23CAlfSymbianBufferDrawer10DrawBufferER14CBitmapContextRK6TPointRK5TRect @ 1179 NONAME
	_ZN23CAlfSymbianBufferDrawer13ReleaseDrawerEv @ 1180 NONAME
	_ZN23CAlfSymbianBufferDrawer16DrawBufferMaskedER14CBitmapContextPK10CFbsBitmapRK6TPointRK5TRect @ 1181 NONAME
	_ZN7CAlfEnv11NewDisplayLERK5TRectiP11CAlfDisplayi4TUid @ 1182 NONAME
	_ZThn4_N23CAlfSymbianBufferDrawer13ReleaseDrawerEv @ 1183 NONAME ; #<thunk>#
	_ZN20CAlfTextStyleManager15DeleteTextStyleEi @ 1184 NONAME
	_ZN18CAlfTextureManager22UpdateTextureFromFileLEiPK7TDesC16 @ 1185 NONAME
	_ZN18CAlfTextureManager24UpdateTextureFromBitmapLEiP18MAlfBitmapProvider @ 1186 NONAME
	_ZN10CAlfVisual5PauseEi @ 1187 NONAME
	_ZN10CAlfVisual6ResumeEi @ 1188 NONAME
	_ZN11CAlfDisplay19SetBackgroundItemsLERK6RArrayI25TAlfDisplayBackgroundItemE @ 1189 NONAME
	_ZN25TAlfDisplayBackgroundItem17SetSkinBackgroundERK11TAknsItemID @ 1190 NONAME
	_ZN25TAlfDisplayBackgroundItem7SetRectERK5TRect @ 1191 NONAME
	_ZN25TAlfDisplayBackgroundItem8SetColorERK11TAknsItemIDi @ 1192 NONAME
	_ZN25TAlfDisplayBackgroundItem8SetColorERK4TRgb @ 1193 NONAME
	_ZN25TAlfDisplayBackgroundItemC1ERK5TRect @ 1194 NONAME
	_ZN25TAlfDisplayBackgroundItemC1ERK5TRectRK11TAknsItemID @ 1195 NONAME
	_ZN25TAlfDisplayBackgroundItemC1ERK5TRectRK11TAknsItemIDi @ 1196 NONAME
	_ZN25TAlfDisplayBackgroundItemC1ERK5TRectRK4TRgb @ 1197 NONAME
	_ZN25TAlfDisplayBackgroundItemC1Ev @ 1198 NONAME
	_ZN25TAlfDisplayBackgroundItemC2ERK5TRect @ 1199 NONAME
	_ZN25TAlfDisplayBackgroundItemC2ERK5TRectRK11TAknsItemID @ 1200 NONAME
	_ZN25TAlfDisplayBackgroundItemC2ERK5TRectRK11TAknsItemIDi @ 1201 NONAME
	_ZN25TAlfDisplayBackgroundItemC2ERK5TRectRK4TRgb @ 1202 NONAME
	_ZN25TAlfDisplayBackgroundItemC2Ev @ 1203 NONAME
	_ZN15CAlfBatchBuffer16FlushBatchBufferEv @ 1204 NONAME
	_ZN15CAlfBatchBuffer16SetAutoFlushModeE17TAlfAutoFlushMode @ 1205 NONAME
	_ZN15CAlfBatchBuffer21SetMaxBatchBufferSizeEi @ 1206 NONAME
	_ZN16CAlfGenComponent12DoCmdNoReplyEjRK6TDesC8 @ 1207 NONAME
	_ZNK15CAlfBatchBuffer13AutoFlushModeEv @ 1208 NONAME
	_ZNK15CAlfBatchBuffer18GetBatchBufferInfoE23TAlfBatchBufferInfoType @ 1209 NONAME
	_ZNK7CAlfEnv18BatchBufferHandlerEv @ 1210 NONAME
	_ZN13CAlfTextStyle25SetTextPaneHeightInPixelsEii @ 1211 NONAME
	_ZNK14CAlfTextVisual9TextStyleEv @ 1212 NONAME
	_ZN7AlfUtil12ThemeItemIdLER7CAlfEnvRK7TDesC16 @ 1213 NONAME
	_ZNK18CAlfTextureManager9TextureIdERK7TDesC16 @ 1214 NONAME
	_ZNK11CAlfControl17FocusedConnectionEv @ 1215 NONAME
	_ZTI15CAlfImageLoader @ 1216 NONAME ; #<TI>#
	_ZTV15CAlfImageLoader @ 1217 NONAME ; #<VT>#
	_ZN11CAlfTexture17SetAutoSizeParamsERK25TAlfTextureAutoSizeParams @ 1218 NONAME
	_ZN18CAlfTextureManager20AddAutoSizeObserverLEP27MAlfTextureAutoSizeObserver @ 1219 NONAME
	_ZN18CAlfTextureManager22RemoveAutoSizeObserverEP27MAlfTextureAutoSizeObserver @ 1220 NONAME
	_ZN25TAlfTextureAutoSizeParams16SetMinSizeChangeEi @ 1221 NONAME
	_ZN25TAlfTextureAutoSizeParams21SetSizeLowerThresholdEi @ 1222 NONAME
	_ZN25TAlfTextureAutoSizeParams21SetSizeUpperThresholdEi @ 1223 NONAME
	_ZN25TAlfTextureAutoSizeParams26SetDownsizeSettleThresholdEi @ 1224 NONAME
	_ZN25TAlfTextureAutoSizeParamsC1Ev @ 1225 NONAME
	_ZN25TAlfTextureAutoSizeParamsC2Ev @ 1226 NONAME
	_ZN27CAlfAutoSizeImageLoaderUtil20PreferredSizeChangedERK11CAlfTexture5TSize @ 1227 NONAME
	_ZNK11CAlfTexture14AutoSizeParamsEv @ 1228 NONAME
	_ZNK25TAlfTextureAutoSizeParams13MinSizeChangeEv @ 1229 NONAME
	_ZNK25TAlfTextureAutoSizeParams18SizeLowerThresholdEv @ 1230 NONAME
	_ZNK25TAlfTextureAutoSizeParams18SizeUpperThresholdEv @ 1231 NONAME
	_ZNK25TAlfTextureAutoSizeParams23DownsizeSettleThresholdEv @ 1232 NONAME
	_ZThn44_N27CAlfAutoSizeImageLoaderUtil20PreferredSizeChangedERK11CAlfTexture5TSize @ 1233 NONAME ; #<thunk>#
	_ZN11CAlfTexture17EnableRefCountingEi @ 1234 NONAME
	_ZN11CAlfTexture18RefCountingEnabledEv @ 1235 NONAME
	_ZN16CAlfScreenBuffer4NewLEv @ 1236 NONAME
	_ZNK23CAlfSymbianBufferDrawer16GetBufferBitmapsERP10CFbsBitmapS2_ @ 1237 NONAME
	_ZN27CAlfAutoSizeImageLoaderUtilC1Ev @ 1238 NONAME
	_ZN27CAlfAutoSizeImageLoaderUtilC2Ev @ 1239 NONAME
	_ZNK7CAlfEnv16FindControlGroupEi @ 1240 NONAME
	_ZN7CAlfEnv12AddExtensionEiP13MAlfEnvObject @ 1241 NONAME
	_ZNK7CAlfEnv9ExtensionEi @ 1242 NONAME
	_ZN14CAlfFrameBrush4NewLER7CAlfEnvRK9TAlfImageRK12TAlfXYMetric @ 1243 NONAME
	_ZN14CAlfFrameBrush5NewLCER7CAlfEnvRK9TAlfImageRK12TAlfXYMetric @ 1244 NONAME
	_ZN14CAlfFrameBrush8SetImageERK9TAlfImage @ 1245 NONAME
	_ZN19CAlfImageLoaderUtil18CreateImageLoaderLERK11TAknsItemIDRK5TRectS5_ @ 1246 NONAME
	_ZN11CAlfDisplay19HandlePointerEventLERK13TPointerEvent @ 1247 NONAME
	_ZN11CAlfTexture20SetRefCountingActionEi @ 1248 NONAME
	_ZN14CAlfFrameBrush8SetImageENS_11TFramePartsERK9TAlfImage @ 1249 NONAME
	_ZN7CAlfEnv19HandlePointerEventLERK13TPointerEventR11CAlfDisplay @ 1250 NONAME
	_ZNK11CAlfTexture17RefCountingActionEv @ 1251 NONAME
	_ZN16CAlfScreenBuffer12AddObserverLE4TUidjP24MAlfScreenBufferObserveri @ 1252 NONAME
	_ZN16CAlfScreenBuffer17RequestBufferDrawE4TUid @ 1253 NONAME
	_ZN11CAlfDisplay23SuppressAutomaticFadingEi @ 1254 NONAME
	_ZN10CAlfVisual17EnableDropShadowLEi @ 1255 NONAME
	_ZN14CAlfDropShadow10SetOpacityERK14TAlfTimedValue @ 1256 NONAME
	_ZN14CAlfDropShadow8SetColorERK11TAknsItemIDii @ 1257 NONAME
	_ZN14CAlfDropShadow8SetColorERK4TRgbi @ 1258 NONAME
	_ZN14CAlfDropShadow8SetScaleERK14TAlfTimedValue @ 1259 NONAME
	_ZN14CAlfDropShadow9SetOffsetERK14TAlfTimedPointi @ 1260 NONAME
	_ZN14CAlfDropShadow9SetOffsetEf10TAlfMetrici @ 1261 NONAME
	_ZN14CAlfDropShadow9SetRadiusERK14TAlfTimedValue @ 1262 NONAME
	_ZNK10CAlfVisual17DropShadowHandlerEv @ 1263 NONAME
	_ZN10CAlfRoster36AddControlGroupOrderChangedObserverLER36MAlfControlGroupOrderChangedObserver @ 1264 NONAME
	_ZN10CAlfRoster38RemoveControlGroupOrderChangedObserverER36MAlfControlGroupOrderChangedObserver @ 1265 NONAME
	_ZN14CAlfTextVisual9SetOffsetERK14TAlfTimedPoint @ 1266 NONAME
	_ZN9CAlfBrush15SetClipToVisualEi @ 1267 NONAME
	_ZNK14CAlfTextVisual6OffsetEv @ 1268 NONAME
	_ZNK9CAlfBrush12ClipToVisualEv @ 1269 NONAME
	_ZN16CAlfTextureGroup10ConstructLER7CAlfEnv @ 1270 NONAME
	_ZN16CAlfTextureGroup11AddTextureLER11CAlfTexture @ 1271 NONAME
	_ZN16CAlfTextureGroup13RemoveTextureER11CAlfTexture @ 1272 NONAME
	_ZN16CAlfTextureGroup16AddLoadObserverLER40MAlfTextureGroupLoadingCompletedObserver @ 1273 NONAME
	_ZN16CAlfTextureGroup18RemoveLoadObserverER40MAlfTextureGroupLoadingCompletedObserver @ 1274 NONAME
	_ZN16CAlfTextureGroup19EnableLoadObserversEi @ 1275 NONAME
	_ZN16CAlfTextureGroup4NewLER7CAlfEnv @ 1276 NONAME
	_ZN16CAlfTextureGroup5NewLCER7CAlfEnv @ 1277 NONAME
	_ZN16CAlfTextureGroupC1Ev @ 1278 NONAME
	_ZN16CAlfTextureGroupC2Ev @ 1279 NONAME
	_ZN16CAlfTextureGroupD0Ev @ 1280 NONAME
	_ZN16CAlfTextureGroupD1Ev @ 1281 NONAME
	_ZN16CAlfTextureGroupD2Ev @ 1282 NONAME
	_ZNK16CAlfTextureGroup18IsLoadingCompletedEv @ 1283 NONAME
	_ZNK16CAlfTextureGroup5CountEv @ 1284 NONAME
	_ZNK16CAlfTextureGroup7TextureEi @ 1285 NONAME
	_ZNK7CAlfEnv16FindDisplayIndexERK11CAlfDisplay @ 1286 NONAME
	_ZNK7CAlfEnv7DisplayEi @ 1287 NONAME
	_ZN16CAlfCanvasVisual10ConstructLER11CAlfControl @ 1288 NONAME
	_ZN16CAlfCanvasVisual10DrawPointsEPK13TAlfRealPointi @ 1289 NONAME
	_ZN16CAlfCanvasVisual13SetPenOpacityERKf @ 1290 NONAME
	_ZN16CAlfCanvasVisual11DrawEllipseERK12TAlfRealRect @ 1291 NONAME
	_ZN16CAlfCanvasVisual11DrawPolygonEPK13TAlfRealPointi @ 1292 NONAME
	_ZN16CAlfCanvasVisual11SetPenColorERK4TRgb @ 1293 NONAME
	_ZN16CAlfCanvasVisual11SetPenWidthERKf @ 1294 NONAME
	_ZN16CAlfCanvasVisual12LoadIdentityEv @ 1295 NONAME
	_ZN16CAlfCanvasVisual12SetTextAlignE19TAlfAlignHorizontal17TAlfAlignVertical @ 1296 NONAME
	_ZN16CAlfCanvasVisual12SetTextStyleERK13CAlfTextStyle @ 1297 NONAME
	_ZN16CAlfCanvasVisual17SetCanvasObserverEP18MAlfCanvasObserver @ 1298 NONAME
	_ZN16CAlfCanvasVisual18SetPolygonDrawModeE19TAlfPolygonDrawMode @ 1299 NONAME
	_ZN16CAlfCanvasVisual20RemoveAndDestroyAllDEv @ 1300 NONAME
	_ZN16CAlfCanvasVisual20UpdateChildrenLayoutEi @ 1301 NONAME
	_ZN16CAlfCanvasVisual22DoRemoveAndDestroyAllDEv @ 1302 NONAME
	_ZN16CAlfCanvasVisual22PropertyOwnerExtensionERK4TUidPPv @ 1303 NONAME
	_ZN16CAlfCanvasVisual5ScaleERKfS1_S1_ @ 1304 NONAME
	_ZN16CAlfCanvasVisual6RotateERKfS1_S1_S1_ @ 1305 NONAME
	_ZN16CAlfCanvasVisual7AddNewLER11CAlfControlP10CAlfLayout @ 1306 NONAME
	_ZN16CAlfCanvasVisual7EndDrawEv @ 1307 NONAME
	_ZN16CAlfCanvasVisual7FindTagERK6TDesC8 @ 1308 NONAME
	_ZN16CAlfCanvasVisual8DrawTextERK7TDesC16RK12TAlfRealRect @ 1309 NONAME
	_ZN16CAlfCanvasVisual9BeginDrawEv @ 1310 NONAME
	_ZN16CAlfCanvasVisual9DrawImageERK11CAlfTextureRK12TAlfRealRect @ 1311 NONAME
	_ZN16CAlfCanvasVisual9DrawLinesEPK12TAlfRealLinei @ 1312 NONAME
	_ZN16CAlfCanvasVisual9DrawRectsEPK12TAlfRealRecti @ 1313 NONAME
	_ZN16CAlfCanvasVisual9TranslateERKfS1_S1_ @ 1314 NONAME
	_ZN16CAlfCanvasVisualC1Ev @ 1315 NONAME
	_ZN16CAlfCanvasVisualC2Ev @ 1316 NONAME
	_ZN16CAlfCanvasVisualD0Ev @ 1317 NONAME
	_ZN16CAlfCanvasVisualD1Ev @ 1318 NONAME
	_ZN16CAlfCanvasVisualD2Ev @ 1319 NONAME
	_ZN14CAlfTextVisual17SetHighlightRangeEiiR4TRgbS1_ @ 1320 NONAME
	_ZN15CAlfImageVisual9ScaleModeEv @ 1321 NONAME
	_ZN17CAlfAsynchStartup6StartLEv @ 1322 NONAME
	_ZN11CAlfDisplay19ForceSetVisibleAreaERK5TRect @ 1323 NONAME
	_ZN11CAlfDisplay26SetClientWindowForDrawingLEP7RWindowP10CAlfVisual @ 1324 NONAME
	_ZN10CAlfVisual10SetEffectLERK7TDesC16 @ 1325 NONAME
	_ZN16CAlfClientWindow13PostCommandsLER5TDes823TAlfCommandBufferStatus @ 1326 NONAME
	_ZN16CAlfClientWindow4NewLER7CAlfEnvR7RWindow @ 1327 NONAME
	_ZN16CAlfClientWindowD0Ev @ 1328 NONAME
	_ZN16CAlfClientWindowD1Ev @ 1329 NONAME
	_ZN16CAlfClientWindowD2Ev @ 1330 NONAME
	_ZTI16CAlfClientWindow @ 1331 NONAME ; #<TI>#
	_ZTV16CAlfClientWindow @ 1332 NONAME ; #<VT>#
	_ZN16RAlfDirectClient10MeasureFPSEli @ 1333 NONAME
	_ZN16RAlfDirectClient10DisconnectEv @ 1334 NONAME
	_ZN16RAlfDirectClientC1Ev @ 1335 NONAME
	_ZN16RAlfDirectClientC2Ev @ 1336 NONAME
	_ZN16RAlfDirectClient20EnableLowMemoryStateEii @ 1337 NONAME
	_ZN10CAlfVisual15SetGroupEffectLERK7TDesC16i @ 1338 NONAME
	_ZN16RAlfDirectClient16ForceSwRenderingEi @ 1339 NONAME
	_ZN10CAlfDrawer4NewLEv @ 1340 NONAME
	_ZN10CAlfDrawer6FinishEv @ 1341 NONAME
	_ZN10CAlfDrawerD0Ev @ 1342 NONAME
	_ZN10CAlfDrawerD1Ev @ 1343 NONAME
	_ZN10CAlfDrawerD2Ev @ 1344 NONAME
	_ZN16RAlfDirectClient11BlankScreenEi @ 1345 NONAME
	_ZN10CAlfDrawer26FallbackCopyScreenToBitmapER15CWsScreenDeviceP10CFbsBitmapRK5TRect @ 1346 NONAME
	_ZN17AlfDrawerInternal18CopyScreenToBitmapEP25MAlfDrawerScreenInterfaceP10CFbsBitmapRK5TRect @ 1347 NONAME

