EXPORTS
	_ZN11CDmAdEngine11EndMessageLEv @ 1 NONAME
	_ZN11CDmAdEngine12CopyCommandLERK6TDesC8S2_S2_S2_S2_i @ 2 NONAME
	_ZN11CDmAdEngine12StartAtomicLEv @ 3 NONAME
	_ZN11CDmAdEngine13ChildURIListLERK6TDesC8S2_RK9CArrayFixI17TSmlDmMappingInfoEii @ 4 NONAME
	_ZN11CDmAdEngine13ChildURIListLERK7TDesC16S2_RK9CArrayFixI17TSmlDmMappingInfoEii @ 5 NONAME
	_ZN11CDmAdEngine13CommitAtomicLEv @ 6 NONAME
	_ZN11CDmAdEngine13DeleteObjectLERK6TDesC8S2_i @ 7 NONAME
	_ZN11CDmAdEngine13DeleteObjectLERK7TDesC16S2_i @ 8 NONAME
	_ZN11CDmAdEngine14AddLeafObjectLERK7TDesC16S2_RK6TDesC8S2_i @ 9 NONAME
	_ZN11CDmAdEngine14AddNodeObjectLERK6TDesC8S2_i @ 10 NONAME
	_ZN11CDmAdEngine14AddNodeObjectLERK7TDesC16S2_i @ 11 NONAME
	_ZN11CDmAdEngine15ExecuteCommandLERK6TDesC8S2_RP12RWriteStreamS2_i @ 12 NONAME
	_ZN11CDmAdEngine15ExecuteCommandLERK6TDesC8S2_S2_S2_i @ 13 NONAME
	_ZN11CDmAdEngine15RollbackAtomicLEv @ 14 NONAME
	_ZN11CDmAdEngine16FetchLeafObjectLERK6TDesC8S2_S2_ii @ 15 NONAME
	_ZN11CDmAdEngine16FetchLeafObjectLERK7TDesC16S2_S2_ii @ 16 NONAME
	_ZN11CDmAdEngine16StreamCommittedLEv @ 17 NONAME
	_ZN11CDmAdEngine16StreamingSupportERi @ 18 NONAME
	_ZN11CDmAdEngine17UpdateLeafObjectLERK6TDesC8S2_RP12RWriteStreamS2_i @ 19 NONAME
	_ZN11CDmAdEngine17UpdateLeafObjectLERK6TDesC8S2_S2_S2_i @ 20 NONAME
	_ZN11CDmAdEngine17UpdateLeafObjectLERK7TDesC16S2_RK6TDesC8S2_i @ 21 NONAME
	_ZN11CDmAdEngine20FetchLeafObjectSizeLERK6TDesC8S2_S2_ii @ 22 NONAME
	_ZN11CDmAdEngine24CompleteOutstandingCmdsLEv @ 23 NONAME
	_ZN11CDmAdEngine4NewLEP13MDmAdCallBackP13MDmAdStoreApiP11MDmAdDdfApiP18MDmAdRtNodeDataApi @ 24 NONAME
	_ZN11CDmAdEngine5NewLCEP13MDmAdCallBackP13MDmAdStoreApiP11MDmAdDdfApiP18MDmAdRtNodeDataApi @ 25 NONAME
	_ZN11CDmAdEngineD0Ev @ 26 NONAME
	_ZN11CDmAdEngineD1Ev @ 27 NONAME
	_ZN11CDmAdEngineD2Ev @ 28 NONAME
	_ZN11CDmAdRtNode4NewLERK6TDesC8S2_P13MDmAdCallBackP18MDmAdRtNodeDataApi @ 29 NONAME
	_ZN11CDmAdRtNode8SetLuidLERK6TDesC8 @ 30 NONAME
	_ZN11CDmAdRtNodeD0Ev @ 31 NONAME
	_ZN11CDmAdRtNodeD1Ev @ 32 NONAME
	_ZN11CDmAdRtNodeD2Ev @ 33 NONAME
	_ZN13CDmAdCallBack10FetchLinkLERK6TDesC8R8CBufBaseRN13MSmlDmAdapter6TErrorE @ 34 NONAME
	_ZN13CDmAdCallBack10SetStatusLEii @ 35 NONAME
	_ZN13CDmAdCallBack11SetMappingLERK6TDesC8S2_ @ 36 NONAME
	_ZN13CDmAdCallBack11SetResultsLEiR8CBufBaseRK6TDesC8 @ 37 NONAME
	_ZN13CDmAdCallBack13FindChildUriLERK6TDesC8S2_ @ 38 NONAME
	_ZN13CDmAdCallBack13GetLuidAllocLERK6TDesC8 @ 39 NONAME
	_ZN13CDmAdCallBack4NewLEP14MSmlDmCallbackRK6TDesC8 @ 40 NONAME
	_ZN13CDmAdCallBack5NewLCEP14MSmlDmCallbackRK6TDesC8 @ 41 NONAME
	_ZN13CDmAdCallBackD0Ev @ 42 NONAME
	_ZN13CDmAdCallBackD1Ev @ 43 NONAME
	_ZN13CDmAdCallBackD2Ev @ 44 NONAME
	_ZN9TDmAdUtil10BuildUriLCERK6TDesC8S2_ @ 45 NONAME
	_ZN9TDmAdUtil10IntToDesLCEi @ 46 NONAME
	_ZN9TDmAdUtil10IntToDesLCEj @ 47 NONAME
	_ZN9TDmAdUtil10IntToDesLCEl @ 48 NONAME
	_ZN9TDmAdUtil10IntToDesLCEm @ 49 NONAME
	_ZN9TDmAdUtil10LastUriSegERK6TDesC8 @ 50 NONAME
	_ZN9TDmAdUtil10ParseUriLCERK6TDesC8RP9CArrayFixI6TPtrC8E @ 51 NONAME
	_ZN9TDmAdUtil11CompareUrisERK6TDesC8S2_ @ 52 NONAME
	_ZN9TDmAdUtil11FirstUriSegERK6TDesC8 @ 53 NONAME
	_ZN9TDmAdUtil11IntToDes8LCEi @ 54 NONAME
	_ZN9TDmAdUtil11IntToDes8LCEj @ 55 NONAME
	_ZN9TDmAdUtil11IntToDes8LCEl @ 56 NONAME
	_ZN9TDmAdUtil11IntToDes8LCEm @ 57 NONAME
	_ZN9TDmAdUtil12NumOfURISegsERK6TDesC8 @ 58 NONAME
	_ZN9TDmAdUtil13FillNodeInfoLER15MSmlDmDDFObject17TSmlDmAccessTypesNS0_10TOccurenceENS0_6TScopeENS0_9TDFFormatERK6TDesC8iS8_ @ 59 NONAME
	_ZN9TDmAdUtil13MapStatusCodeEi @ 60 NONAME
	_ZN9TDmAdUtil14RemoveDotSlashERK6TDesC8 @ 61 NONAME
	_ZN9TDmAdUtil15AddChildObjectLER15MSmlDmDDFObjectRK6TDesC8 @ 62 NONAME
	_ZN9TDmAdUtil16RemoveLastUriSegERK6TDesC8 @ 63 NONAME
	_ZN9TDmAdUtil24BuildRtNodeChildUriListLEP13MDmAdCallBackP13MDmAdStoreApiRK6TDesC8S6_RK9CArrayFixI17TSmlDmMappingInfoER8CBufBase @ 64 NONAME
	_ZN9TDmAdUtil33BuildLocallyCreatedRtNodeUriSegLCERi @ 65 NONAME
	_ZN9TDmAdUtil8DesToIntERK6TDesC8 @ 66 NONAME
	_ZN9TDmAdUtil8DesToIntERK7TDesC16 @ 67 NONAME
	_ZN9TDmAdUtil8LuidTo8LERK7TDesC16 @ 68 NONAME
	_ZN9TDmAdUtil9BuildUriLERK6TDesC8S2_ @ 69 NONAME
	_ZN9TDmAdUtil9DesToUintERK6TDesC8 @ 70 NONAME
	_ZN9TDmAdUtil9DesToUintERK7TDesC16 @ 71 NONAME
	_ZN9TDmAdUtil9LuidTo16LERK6TDesC8 @ 72 NONAME
	_ZNK11CDmAdRtNode3UriEv @ 73 NONAME
	_ZNK11CDmAdRtNode4LuidEv @ 74 NONAME
	_ZTI11CDmAdEngine @ 75 NONAME ; #<TI>#
	_ZTI11CDmAdRtNode @ 76 NONAME ; #<TI>#
	_ZTI12CDmAdCommand @ 77 NONAME ; #<TI>#
	_ZTI13CDmAdCallBack @ 78 NONAME ; #<TI>#
	_ZTV11CDmAdEngine @ 79 NONAME ; #<VT>#
	_ZTV11CDmAdRtNode @ 80 NONAME ; #<VT>#
	_ZTV12CDmAdCommand @ 81 NONAME ; #<VT>#
	_ZTV13CDmAdCallBack @ 82 NONAME ; #<VT>#
	_ZThn4_N13CDmAdCallBack10FetchLinkLERK6TDesC8R8CBufBaseRN13MSmlDmAdapter6TErrorE @ 83 NONAME ; #<thunk>#
	_ZThn4_N13CDmAdCallBack10SetStatusLEii @ 84 NONAME ; #<thunk>#
	_ZThn4_N13CDmAdCallBack11SetMappingLERK6TDesC8S2_ @ 85 NONAME ; #<thunk>#
	_ZThn4_N13CDmAdCallBack11SetResultsLEiR8CBufBaseRK6TDesC8 @ 86 NONAME ; #<thunk>#
	_ZThn4_N13CDmAdCallBack13FindChildUriLERK6TDesC8S2_ @ 87 NONAME ; #<thunk>#
	_ZThn4_N13CDmAdCallBack13GetLuidAllocLERK6TDesC8 @ 88 NONAME ; #<thunk>#

