EXPORTS
	?iapName@WlanQtUtils@@QBE?AVQString@@H@Z @ 1 NONAME ; class QString WlanQtUtils::iapName(int) const
	??0WlanQtUtilsAp@@QAE@XZ @ 2 NONAME ; WlanQtUtilsAp::WlanQtUtilsAp(void)
	?updateIap@WlanQtUtils@@QAE_NHPBVWlanQtUtilsAp@@@Z @ 3 NONAME ; bool WlanQtUtils::updateIap(int, class WlanQtUtilsAp const *)
	?createIap@WlanQtUtils@@QAEHPBVWlanQtUtilsAp@@@Z @ 4 NONAME ; int WlanQtUtils::createIap(class WlanQtUtilsAp const *)
	?Start@RConnection@@QAEXAAVTConnPref@@AAVTRequestStatus@@@Z @ 5 NONAME ; void RConnection::Start(class TConnPref &, class TRequestStatus &)
	?value@WlanQtUtilsAp@@QBE?AVQVariant@@H@Z @ 6 NONAME ; class QVariant WlanQtUtilsAp::value(int) const
	?qt_metacast@WlanQtUtils@@UAEPAXPBD@Z @ 7 NONAME ; void * WlanQtUtils::qt_metacast(char const *)
	?qt_metacall@WlanQtUtils@@UAEHW4Call@QMetaObject@@HPAPAX@Z @ 8 NONAME ; int WlanQtUtils::qt_metacall(enum QMetaObject::Call, int, void * *)
	?availableWlanAps@WlanQtUtils@@QBEXAAV?$QList@V?$QSharedPointer@VWlanQtUtilsAp@@@@@@@Z @ 9 NONAME ; void WlanQtUtils::availableWlanAps(class QList<class QSharedPointer<class WlanQtUtilsAp> > &) const
	??1WlanQtUtilsAp@@UAE@XZ @ 10 NONAME ; WlanQtUtilsAp::~WlanQtUtilsAp(void)
	?wlanScanApReady@WlanQtUtils@@IAEXH@Z @ 11 NONAME ; void WlanQtUtils::wlanScanApReady(int)
	?staticMetaObject@WlanQtUtils@@2UQMetaObject@@B @ 12 NONAME ; struct QMetaObject const WlanQtUtils::staticMetaObject
	??0WlanQtUtilsAp@@QAE@ABV0@@Z @ 13 NONAME ; WlanQtUtilsAp::WlanQtUtilsAp(class WlanQtUtilsAp const &)
	??_EWlanQtUtilsAp@@UAE@I@Z @ 14 NONAME ; WlanQtUtilsAp::~WlanQtUtilsAp(unsigned int)
	?disconnectIap@WlanQtUtils@@QAEXH@Z @ 15 NONAME ; void WlanQtUtils::disconnectIap(int)
	?availableWlans@WlanQtUtils@@QBEXAAV?$QList@V?$QSharedPointer@VWlanQtUtilsAp@@@@@@0@Z @ 16 NONAME ; void WlanQtUtils::availableWlans(class QList<class QSharedPointer<class WlanQtUtilsAp> > &, class QList<class QSharedPointer<class WlanQtUtilsAp> > &) const
	?scanWlanDirect@WlanQtUtils@@QAEXABVQString@@@Z @ 17 NONAME ; void WlanQtUtils::scanWlanDirect(class QString const &)
	?tr@WlanQtUtils@@SA?AVQString@@PBD0@Z @ 18 NONAME ; class QString WlanQtUtils::tr(char const *, char const *)
	?wlanNetworkClosed@WlanQtUtils@@IAEXHH@Z @ 19 NONAME ; void WlanQtUtils::wlanNetworkClosed(int, int)
	?ictResult@WlanQtUtils@@IAEXHH@Z @ 20 NONAME ; void WlanQtUtils::ictResult(int, int)
	?compare@WlanQtUtilsAp@@SAHPBV1@0P6AHABVQString@@1@Z@Z @ 21 NONAME ; int WlanQtUtilsAp::compare(class WlanQtUtilsAp const *, class WlanQtUtilsAp const *, int (*)(class QString const &, class QString const &))
	?connectionStatus@WlanQtUtils@@QBE?AW4ConnStatus@1@XZ @ 22 NONAME ; enum WlanQtUtils::ConnStatus WlanQtUtils::connectionStatus(void) const
	?setValue@WlanQtUtilsAp@@QAEXHVQVariant@@@Z @ 23 NONAME ; void WlanQtUtilsAp::setValue(int, class QVariant)
	??1WlanQtUtils@@UAE@XZ @ 24 NONAME ; WlanQtUtils::~WlanQtUtils(void)
	?scanWlans@WlanQtUtils@@QAEXXZ @ 25 NONAME ; void WlanQtUtils::scanWlans(void)
	?EventType@CConnMonEventBase@@QBEHXZ @ 26 NONAME ; int CConnMonEventBase::EventType(void) const
	?activeIap@WlanQtUtils@@QBEHXZ @ 27 NONAME ; int WlanQtUtils::activeIap(void) const
	?scanWlanAps@WlanQtUtils@@QAEXXZ @ 28 NONAME ; void WlanQtUtils::scanWlanAps(void)
	?wlanNetworkOpened@WlanQtUtils@@IAEXH@Z @ 29 NONAME ; void WlanQtUtils::wlanNetworkOpened(int)
	?connectIap@WlanQtUtils@@QAEXH_N@Z @ 30 NONAME ; void WlanQtUtils::connectIap(int, bool)
	?metaObject@WlanQtUtils@@UBEPBUQMetaObject@@XZ @ 31 NONAME ; struct QMetaObject const * WlanQtUtils::metaObject(void) const
	??_EWlanQtUtils@@UAE@I@Z @ 32 NONAME ; WlanQtUtils::~WlanQtUtils(unsigned int)
	?wlanScanReady@WlanQtUtils@@IAEXH@Z @ 33 NONAME ; void WlanQtUtils::wlanScanReady(int)
	??0WlanQtUtils@@QAE@XZ @ 34 NONAME ; WlanQtUtils::WlanQtUtils(void)
	?stopWlanScan@WlanQtUtils@@QAEXXZ @ 35 NONAME ; void WlanQtUtils::stopWlanScan(void)
	?tr@WlanQtUtils@@SA?AVQString@@PBD0H@Z @ 36 NONAME ; class QString WlanQtUtils::tr(char const *, char const *, int)
	?getStaticMetaObject@WlanQtUtils@@SAABUQMetaObject@@XZ @ 37 NONAME ; struct QMetaObject const & WlanQtUtils::getStaticMetaObject(void)
	?trUtf8@WlanQtUtils@@SA?AVQString@@PBD0@Z @ 38 NONAME ; class QString WlanQtUtils::trUtf8(char const *, char const *)
	?deleteIap@WlanQtUtils@@QAEXH@Z @ 39 NONAME ; void WlanQtUtils::deleteIap(int)
	?wlanScanDirectReady@WlanQtUtils@@IAEXH@Z @ 40 NONAME ; void WlanQtUtils::wlanScanDirectReady(int)
	?trUtf8@WlanQtUtils@@SA?AVQString@@PBD0H@Z @ 41 NONAME ; class QString WlanQtUtils::trUtf8(char const *, char const *, int)
	?moveIapToInternetSnap@WlanQtUtils@@QAEXH@Z @ 42 NONAME ; void WlanQtUtils::moveIapToInternetSnap(int)

