EXPORTS
	_ZN21CSvgJavaInterfaceImpl13SvgEngineStopEi @ 1 NONAME
	_ZN21CSvgJavaInterfaceImpl13SvgPathCreateEv @ 2 NONAME
	_ZN21CSvgJavaInterfaceImpl14SvgEngineStartEi @ 3 NONAME
	_ZN21CSvgJavaInterfaceImpl14SvgPathDestroyEi @ 4 NONAME
	_ZN21CSvgJavaInterfaceImpl15SvgEngineCreateEv @ 5 NONAME
	_ZN21CSvgJavaInterfaceImpl15SvgEngineResumeEi @ 6 NONAME
	_ZN21CSvgJavaInterfaceImpl15SvgPathAddCloseEi @ 7 NONAME
	_ZN21CSvgJavaInterfaceImpl16SvgDocumentGetIdEiiR7TPtrC16 @ 8 NONAME
	_ZN21CSvgJavaInterfaceImpl16SvgElementCreateEs @ 9 NONAME
	_ZN21CSvgJavaInterfaceImpl16SvgElementIsUsedEi @ 10 NONAME
	_ZN21CSvgJavaInterfaceImpl16SvgEngineDestroyEi @ 11 NONAME
	_ZN21CSvgJavaInterfaceImpl16SvgPathAddLineToEiff @ 12 NONAME
	_ZN21CSvgJavaInterfaceImpl16SvgPathAddMoveToEiff @ 13 NONAME
	_ZN21CSvgJavaInterfaceImpl16SvgPathAddQuadToEiffff @ 14 NONAME
	_ZN21CSvgJavaInterfaceImpl17SvgElementDestroyEi @ 15 NONAME
	_ZN21CSvgJavaInterfaceImpl17SvgElementGetBBoxEisPfS0_S0_S0_ @ 16 NONAME
	_ZN21CSvgJavaInterfaceImpl17SvgElementGetTypeEi @ 17 NONAME
	_ZN21CSvgJavaInterfaceImpl17SvgPathAddCurveToEiffffff @ 18 NONAME
	_ZN21CSvgJavaInterfaceImpl18SvgDocumentCreateLERK7TPtrC16 @ 19 NONAME
	_ZN21CSvgJavaInterfaceImpl18SvgDocumentDestroyEi @ 20 NONAME
	_ZN21CSvgJavaInterfaceImpl18SvgDocumentFocusOnEii @ 21 NONAME
	_ZN21CSvgJavaInterfaceImpl18SvgElementIsActiveEi @ 22 NONAME
	_ZN21CSvgJavaInterfaceImpl19SvgDocumentActivateEi @ 23 NONAME
	_ZN21CSvgJavaInterfaceImpl19SvgDocumentFocusOutEii @ 24 NONAME
	_ZN21CSvgJavaInterfaceImpl19SvgDocumentGetFocusEi @ 25 NONAME
	_ZN21CSvgJavaInterfaceImpl19SvgElementGetParentEi @ 26 NONAME
	_ZN21CSvgJavaInterfaceImpl20SvgElementUpdatePathEii @ 27 NONAME
	_ZN21CSvgJavaInterfaceImpl21SvgElementAppendChildEii @ 28 NONAME
	_ZN21CSvgJavaInterfaceImpl21SvgElementRemoveChildEii @ 29 NONAME
	_ZN21CSvgJavaInterfaceImpl21SvgPathGetSegmentTypeEii @ 30 NONAME
	_ZN21CSvgJavaInterfaceImpl22SvgDocumentCreateEmptyEv @ 31 NONAME
	_ZN21CSvgJavaInterfaceImpl22SvgElementElementInDOMEii @ 32 NONAME
	_ZN21CSvgJavaInterfaceImpl22SvgElementHasAnimationEi @ 33 NONAME
	_ZN21CSvgJavaInterfaceImpl22SvgElementInsertBeforeEiii @ 34 NONAME
	_ZN21CSvgJavaInterfaceImpl22SvgPathGetSegmentCountEi @ 35 NONAME
	_ZN21CSvgJavaInterfaceImpl23SvgDocumentEndElementAtEiif @ 36 NONAME
	_ZN21CSvgJavaInterfaceImpl23SvgDocumentGetMediaTimeEi @ 37 NONAME
	_ZN21CSvgJavaInterfaceImpl23SvgDocumentHasAnimationEi @ 38 NONAME
	_ZN21CSvgJavaInterfaceImpl23SvgDocumentSetMediaTimeEif @ 39 NONAME
	_ZN21CSvgJavaInterfaceImpl23SvgDocumentViewportInitEi @ 40 NONAME
	_ZN21CSvgJavaInterfaceImpl23SvgElementGetScreenBBoxEiPfS0_S0_S0_ @ 41 NONAME
	_ZN21CSvgJavaInterfaceImpl23SvgEngineRenderDocumentEiiiif @ 42 NONAME
	_ZN21CSvgJavaInterfaceImpl24SvgEngineRenderDocumentLEiiiRK6TPointRK5TRectff @ 43 NONAME
	_ZN21CSvgJavaInterfaceImpl25SvgDocumentBeginElementAtEiif @ 44 NONAME
	_ZN21CSvgJavaInterfaceImpl25SvgDocumentGetElementByIdEiRK7TPtrC16 @ 45 NONAME
	_ZN21CSvgJavaInterfaceImpl25SvgDocumentGetNumberOfIdsEi @ 46 NONAME
	_ZN21CSvgJavaInterfaceImpl25SvgDocumentGetRootElementEi @ 47 NONAME
	_ZN21CSvgJavaInterfaceImpl25SvgElementCheckRemoveableEi @ 48 NONAME
	_ZN21CSvgJavaInterfaceImpl25SvgEngineSetRenderQualityEii @ 49 NONAME
	_ZN21CSvgJavaInterfaceImpl25SvgRenderingSurfaceCreateEii @ 50 NONAME
	_ZN21CSvgJavaInterfaceImpl26SvgElementAddEventListenerEiis @ 51 NONAME
	_ZN21CSvgJavaInterfaceImpl26SvgElementGetEnumAttributeEis @ 52 NONAME
	_ZN21CSvgJavaInterfaceImpl26SvgElementGetPathAttributeEis @ 53 NONAME
	_ZN21CSvgJavaInterfaceImpl26SvgElementGetRectAttributeEisPfS0_S0_S0_ @ 54 NONAME
	_ZN21CSvgJavaInterfaceImpl26SvgElementSetEnumAttributeEiss @ 55 NONAME
	_ZN21CSvgJavaInterfaceImpl26SvgElementSetPathAttributeEisi @ 56 NONAME
	_ZN21CSvgJavaInterfaceImpl26SvgElementSetRectAttributeEisffff @ 57 NONAME
	_ZN21CSvgJavaInterfaceImpl26SvgPathGetSegmentParameterEiii @ 58 NONAME
	_ZN21CSvgJavaInterfaceImpl26SvgRenderingSurfaceDestroyEi @ 59 NONAME
	_ZN21CSvgJavaInterfaceImpl27SvgDocumentGetViewportWidthEi @ 60 NONAME
	_ZN21CSvgJavaInterfaceImpl27SvgDocumentRequestCompletedEiRK7TPtrC16RK6TPtrC8 @ 61 NONAME
	_ZN21CSvgJavaInterfaceImpl27SvgDocumentSetViewportWidthEii @ 62 NONAME
	_ZN21CSvgJavaInterfaceImpl27SvgElementGetColorAttributeEisPiS0_S0_ @ 63 NONAME
	_ZN21CSvgJavaInterfaceImpl27SvgElementGetFloatAttributeEis @ 64 NONAME
	_ZN21CSvgJavaInterfaceImpl27SvgElementSetColorAttributeEisiii @ 65 NONAME
	_ZN21CSvgJavaInterfaceImpl27SvgElementSetFloatAttributeEisf @ 66 NONAME
	_ZN21CSvgJavaInterfaceImpl27SvgRenderingSurfaceGetWidthEi @ 67 NONAME
	_ZN21CSvgJavaInterfaceImpl28SvgDocumentGetViewportHeightEi @ 68 NONAME
	_ZN21CSvgJavaInterfaceImpl28SvgDocumentSetViewportHeightEii @ 69 NONAME
	_ZN21CSvgJavaInterfaceImpl28SvgElementGetMatrixAttributeEisPfS0_S0_S0_S0_S0_ @ 70 NONAME
	_ZN21CSvgJavaInterfaceImpl28SvgElementGetStringAttributeEisR7TPtrC16 @ 71 NONAME
	_ZN21CSvgJavaInterfaceImpl28SvgElementGetUsedFromElementEi @ 72 NONAME
	_ZN21CSvgJavaInterfaceImpl28SvgElementSetMatrixAttributeEisffffff @ 73 NONAME
	_ZN21CSvgJavaInterfaceImpl28SvgElementSetStringAttributeEisRK7TPtrC16 @ 74 NONAME
	_ZN21CSvgJavaInterfaceImpl28SvgRenderingSurfaceGetBufferEi @ 75 NONAME
	_ZN21CSvgJavaInterfaceImpl28SvgRenderingSurfaceGetHeightEi @ 76 NONAME
	_ZN21CSvgJavaInterfaceImpl29SvgDocumentDispatchMouseEventEiii @ 77 NONAME
	_ZN21CSvgJavaInterfaceImpl29SvgElementRemoveEventListenerEiis @ 78 NONAME
	_ZN21CSvgJavaInterfaceImpl30SvgDocumentGetExternalListItemEiiR7TPtrC16 @ 79 NONAME
	_ZN21CSvgJavaInterfaceImpl30SvgDocumentGetExternalListSizeEi @ 80 NONAME
	_ZN21CSvgJavaInterfaceImpl30SvgElementGetFirstElementChildEi @ 81 NONAME
	_ZN21CSvgJavaInterfaceImpl31SvgElementGetNextElementSiblingEi @ 82 NONAME
	_ZN21CSvgJavaInterfaceImpl32SvgDocumentGetViewportWidthUnitsEi @ 83 NONAME
	_ZN21CSvgJavaInterfaceImpl33SvgDocumentGetViewportHeightUnitsEi @ 84 NONAME
	_ZN21CSvgJavaInterfaceImpl4NewLEv @ 85 NONAME
	_ZN21CSvgJavaInterfaceImplC1Ev @ 86 NONAME
	_ZN21CSvgJavaInterfaceImplC2Ev @ 87 NONAME
	_ZN21CSvgJavaInterfaceImplD0Ev @ 88 NONAME
	_ZN21CSvgJavaInterfaceImplD1Ev @ 89 NONAME
	_ZN21CSvgJavaInterfaceImplD2Ev @ 90 NONAME
	_ZTI10CJavaError @ 91 NONAME ; #<TI>#
	_ZTI21CSvgJavaInterfaceImpl @ 92 NONAME ; #<TI>#
	_ZTV10CJavaError @ 93 NONAME ; #<VT>#
	_ZTV21CSvgJavaInterfaceImpl @ 94 NONAME ; #<VT>#
	_ZN21CSvgJavaInterfaceImpl4NewLER9TFontSpec @ 95 NONAME
	_ZN21CSvgJavaInterfaceImpl23SvgEngineRenderDocumentEiijjf @ 96 NONAME

