EXPORTS
	_ZN13FavouritesSrv3RunEv @ 1 NONAME
	_ZN13RFavouritesDb10DeleteFileEi @ 2 NONAME
	_ZN13RFavouritesDb10ItemExistsEiRi @ 3 NONAME
	_ZN13RFavouritesDb11SetHomepageER15CFavouritesItem @ 4 NONAME
	_ZN13RFavouritesDb11SetModifiedEi5TTime @ 5 NONAME
	_ZN13RFavouritesDb11SetReadOnlyEii @ 6 NONAME
	_ZN13RFavouritesDb11UpdateStatsEv @ 7 NONAME
	_ZN13RFavouritesDb12FolderExistsEiRi @ 8 NONAME
	_ZN13RFavouritesDb12PreferredUidEiRi @ 9 NONAME
	_ZN13RFavouritesDb14GetBrowserDataEiR19MFavouritesItemData @ 10 NONAME
	_ZN13RFavouritesDb14MakeUniqueNameER15CFavouritesItem @ 11 NONAME
	_ZN13RFavouritesDb14MakeUniqueNameER6TDes16i @ 12 NONAME
	_ZN13RFavouritesDb14SetBrowserDataEiRK19MFavouritesItemData @ 13 NONAME
	_ZN13RFavouritesDb14SetFactoryItemEii @ 14 NONAME
	_ZN13RFavouritesDb14SetLastVisitedER15CFavouritesItem @ 15 NONAME
	_ZN13RFavouritesDb15SetPreferredUidEii @ 16 NONAME
	_ZN13RFavouritesDb20CleanupRollbackPushLEv @ 17 NONAME
	_ZN13RFavouritesDb20CreateStartPageItemLEv @ 18 NONAME
	_ZN13RFavouritesDb23RestoreFactorySettingsLERK7TDesC16S2_R12MRfsApMapper @ 19 NONAME
	_ZN13RFavouritesDb26CreateAdaptiveItemsFolderLEv @ 20 NONAME
	_ZN13RFavouritesDb3AddER15CFavouritesItemi @ 21 NONAME
	_ZN13RFavouritesDb3GetEiR15CFavouritesItem @ 22 NONAME
	_ZN13RFavouritesDb4OpenER18RFavouritesSessionRK7TDesC16 @ 23 NONAME
	_ZN13RFavouritesDb5BeginEi @ 24 NONAME
	_ZN13RFavouritesDb5CountERiiN15CFavouritesItem5TTypeEPK7TDesC16l @ 25 NONAME
	_ZN13RFavouritesDb6CommitEv @ 26 NONAME
	_ZN13RFavouritesDb6DeleteEi @ 27 NONAME
	_ZN13RFavouritesDb6GetAllER19CFavouritesItemListiN15CFavouritesItem5TTypeEPK7TDesC16l @ 28 NONAME
	_ZN13RFavouritesDb6UpdateER15CFavouritesItemii @ 29 NONAME
	_ZN13RFavouritesDb7CompactEv @ 30 NONAME
	_ZN13RFavouritesDb7GetDataEiR19MFavouritesItemData @ 31 NONAME
	_ZN13RFavouritesDb7GetUidsER9CArrayFixIiEiN15CFavouritesItem5TTypeEPK7TDesC16l @ 32 NONAME
	_ZN13RFavouritesDb7RecoverEv @ 33 NONAME
	_ZN13RFavouritesDb7SetDataEiRK19MFavouritesItemData @ 34 NONAME
	_ZN13RFavouritesDb8RollbackEv @ 35 NONAME
	_ZN13RFavouritesDb9IsDamagedERi @ 36 NONAME
	_ZN15CFavouritesItem12SetContextIdEl @ 37 NONAME
	_ZN15CFavouritesItem12SetPasswordLERK7TDesC16 @ 38 NONAME
	_ZN15CFavouritesItem12SetUserNameLERK7TDesC16 @ 39 NONAME
	_ZN15CFavouritesItem15SetParentFolderEi @ 40 NONAME
	_ZN15CFavouritesItem4NewLEv @ 41 NONAME
	_ZN15CFavouritesItem5NewLCEv @ 42 NONAME
	_ZN15CFavouritesItem6ClearLEv @ 43 NONAME
	_ZN15CFavouritesItem7SetTypeENS_5TTypeE @ 44 NONAME
	_ZN15CFavouritesItem7SetUrlLERK7TDesC16 @ 45 NONAME
	_ZN15CFavouritesItem8SetNameLERK7TDesC16 @ 46 NONAME
	_ZN15CFavouritesItem8SetWapApERK16TFavouritesWapAp @ 47 NONAME
	_ZN15CFavouritesItemD0Ev @ 48 NONAME
	_ZN15CFavouritesItemD1Ev @ 49 NONAME
	_ZN15CFavouritesItemD2Ev @ 50 NONAME
	_ZN15CFavouritesItemaSERKS_ @ 51 NONAME
	_ZN15RFavouritesFile4OpenER13RFavouritesDbi @ 52 NONAME
	_ZN15RFavouritesFile5CloseEv @ 53 NONAME
	_ZN15RFavouritesFile5WriteERK6TDesC8 @ 54 NONAME
	_ZN15RFavouritesFile7ReplaceER13RFavouritesDbi @ 55 NONAME
	_ZN16TFavouritesWapAp10SetDefaultEv @ 56 NONAME
	_ZN16TFavouritesWapAp7SetApIdEm @ 57 NONAME
	_ZN16TFavouritesWapAp7SetNullEv @ 58 NONAME
	_ZN16TFavouritesWapApC1Ev @ 59 NONAME
	_ZN16TFavouritesWapApC2Ev @ 60 NONAME
	_ZN16TFavouritesWapApaSERKS_ @ 61 NONAME
	_ZN16TFavouritesWapApaSEm @ 62 NONAME
	_ZN17RFavouritesHandle5CloseEv @ 63 NONAME
	_ZN18RFavouritesSession12ResourceMarkEv @ 64 NONAME
	_ZN18RFavouritesSession13ResourceCheckEv @ 65 NONAME
	_ZN18RFavouritesSession13ResourceCountEv @ 66 NONAME
	_ZN18RFavouritesSession14DeleteDatabaseERK7TDesC16 @ 67 NONAME
	_ZN18RFavouritesSession17__DbgSetAllocFailEN10RAllocator10TAllocFailEi @ 68 NONAME
	_ZN18RFavouritesSession7ConnectEv @ 69 NONAME
	_ZN18RFavouritesSession7VersionEv @ 70 NONAME
	_ZN19CFavouritesItemList5SortLEPFiRK15CFavouritesItemS2_E @ 71 NONAME
	_ZN19CFavouritesItemList6DeleteEi @ 72 NONAME
	_ZN19CFavouritesItemList6DeleteEii @ 73 NONAME
	_ZN19CFavouritesItemListC1Ev @ 74 NONAME
	_ZN19CFavouritesItemListC2Ev @ 75 NONAME
	_ZN19CFavouritesItemListD0Ev @ 76 NONAME
	_ZN19CFavouritesItemListD1Ev @ 77 NONAME
	_ZN19CFavouritesItemListD2Ev @ 78 NONAME
	_ZN21RFavouritesDbNotifier12NotifyChangeER14TRequestStatus @ 79 NONAME
	_ZN21RFavouritesDbNotifier15NotifyAllEventsER14TRequestStatus @ 80 NONAME
	_ZN21RFavouritesDbNotifier4OpenER13RFavouritesDb @ 81 NONAME
	_ZN21RFavouritesDbNotifier6CancelEv @ 82 NONAME
	_ZN24RFavouritesDbIncremental4NextERi @ 83 NONAME
	_ZN24RFavouritesDbIncremental7CompactER13RFavouritesDbRi @ 84 NONAME
	_ZN24RFavouritesDbIncremental7RecoverER13RFavouritesDbRi @ 85 NONAME
	_ZN27CActiveFavouritesDbNotifier4RunLEv @ 86 NONAME
	_ZN27CActiveFavouritesDbNotifier5StartEv @ 87 NONAME
	_ZN27CActiveFavouritesDbNotifier8DoCancelEv @ 88 NONAME
	_ZN27CActiveFavouritesDbNotifierC1ER13RFavouritesDbR21MFavouritesDbObserver @ 89 NONAME
	_ZN27CActiveFavouritesDbNotifierC2ER13RFavouritesDbR21MFavouritesDbObserver @ 90 NONAME
	_ZN27CActiveFavouritesDbNotifierD0Ev @ 91 NONAME
	_ZN27CActiveFavouritesDbNotifierD1Ev @ 92 NONAME
	_ZN27CActiveFavouritesDbNotifierD2Ev @ 93 NONAME
	_ZNK13RFavouritesDb4SizeERN11RDbDatabase5TSizeE @ 94 NONAME
	_ZNK13RFavouritesDb7VersionEv @ 95 NONAME
	_ZNK15CFavouritesItem10IsReadOnlyEv @ 96 NONAME
	_ZNK15CFavouritesItem12ParentFolderEv @ 97 NONAME
	_ZNK15CFavouritesItem13IsFactoryItemEv @ 98 NONAME
	_ZNK15CFavouritesItem3UidEv @ 99 NONAME
	_ZNK15CFavouritesItem3UrlEv @ 100 NONAME
	_ZNK15CFavouritesItem4NameEv @ 101 NONAME
	_ZNK15CFavouritesItem4TypeEv @ 102 NONAME
	_ZNK15CFavouritesItem5WapApEv @ 103 NONAME
	_ZNK15CFavouritesItem6IsItemEv @ 104 NONAME
	_ZNK15CFavouritesItem8IsFolderEv @ 105 NONAME
	_ZNK15CFavouritesItem8ModifiedEv @ 106 NONAME
	_ZNK15CFavouritesItem8PasswordEv @ 107 NONAME
	_ZNK15CFavouritesItem8UserNameEv @ 108 NONAME
	_ZNK15CFavouritesItem9ContextIdEv @ 109 NONAME
	_ZNK15RFavouritesFile4ReadER5TDes8 @ 110 NONAME
	_ZNK15RFavouritesFile4SizeERi @ 111 NONAME
	_ZNK16TFavouritesWapAp4ApIdEv @ 112 NONAME
	_ZNK16TFavouritesWapAp6IsNullEv @ 113 NONAME
	_ZNK16TFavouritesWapAp9IsDefaultEv @ 114 NONAME
	_ZNK19CFavouritesItemList10IndexToUidEi @ 115 NONAME
	_ZNK19CFavouritesItemList10UidToIndexEi @ 116 NONAME
	_ZNK19CFavouritesItemList9ItemByUidEi @ 117 NONAME
	_ZTI15CFavouritesItem @ 118 NONAME ; #<TI>#
	_ZTI19CFavouritesItemList @ 119 NONAME ; #<TI>#
	_ZTI27CActiveFavouritesDbNotifier @ 120 NONAME ; #<TI>#
	_ZTV15CFavouritesItem @ 121 NONAME ; #<VT>#
	_ZTV19CFavouritesItemList @ 122 NONAME ; #<VT>#
	_ZTV27CActiveFavouritesDbNotifier @ 123 NONAME ; #<VT>#
	_ZNK15CFavouritesItem8IsHiddenEv @ 124 NONAME
	_ZNK15CFavouritesItem9SetHiddenEi @ 125 NONAME

