EXPORTS
	?ExtractUrlPath@UpnpFileUtil@@YA?AVTPtrC8@@ABVTDesC8@@AAH@Z @ 1 NONAME ; class TPtrC8 UpnpFileUtil::ExtractUrlPath(class TDesC8 const &, int &)
	?PendingRequest@CUpnpHttpMessage@@QAEPAXXZ @ 2 NONAME ; void * CUpnpHttpMessage::PendingRequest(void)
	?IsSsdpMSearch@CUpnpSsdpMessage@@QAEHXZ @ 3 NONAME ; int CUpnpSsdpMessage::IsSsdpMSearch(void)
	?ResponseL@RUpnpSsdpMessageFactory@@SAPAVCUpnpSsdpMessage@@AAVTDesC8@@000@Z @ 4 NONAME ; class CUpnpSsdpMessage * RUpnpSsdpMessageFactory::ResponseL(class TDesC8 &, class TDesC8 &, class TDesC8 &, class TDesC8 &)
	?ExtractUrlPath@UpnpFileUtil@@YA?AVTPtrC8@@ABVTDesC8@@AAV2@1AAH@Z @ 5 NONAME ; class TPtrC8 UpnpFileUtil::ExtractUrlPath(class TDesC8 const &, class TPtrC8 &, class TPtrC8 &, int &)
	?Is2xx@CUpnpHttpMessage@@QAEHXZ @ 6 NONAME ; int CUpnpHttpMessage::Is2xx(void)
	?PanicServer@CUpnpSymbianServerBase@@IBEXH@Z @ 7 NONAME ; void CUpnpSymbianServerBase::PanicServer(int) const
	?IsSsdpResponse@CUpnpSsdpMessage@@QAEHXZ @ 8 NONAME ; int CUpnpSsdpMessage::IsSsdpResponse(void)
	?SenderPathFromHeader@CUpnpHttpMessage@@QAE?BVTPtrC8@@XZ @ 9 NONAME ; class TPtrC8 const CUpnpHttpMessage::SenderPathFromHeader(void)
	?FromUnicodeL@UpnpString@@YAPAVHBufC8@@ABVTDesC16@@@Z @ 10 NONAME ; class HBufC8 * UpnpString::FromUnicodeL(class TDesC16 const &)
	?SetTcpTimeout@CUpnpHttpMessage@@QAEXH@Z @ 11 NONAME ; void CUpnpHttpMessage::SetTcpTimeout(int)
	?SetOutUriL@CUpnpHttpMessage@@QAEXABVTDesC8@@@Z @ 12 NONAME ; void CUpnpHttpMessage::SetOutUriL(class TDesC8 const &)
	?Http11ResponseL@RUpnpHttpMessageFactory@@SAPAVCUpnpHttpMessage@@PAV2@H@Z @ 13 NONAME ; class CUpnpHttpMessage * RUpnpHttpMessageFactory::Http11ResponseL(class CUpnpHttpMessage *, int)
	?After@CUpnpNotifyTimer@@QAEXVTTimeIntervalMicroSeconds32@@H@Z @ 14 NONAME ; void CUpnpNotifyTimer::After(class TTimeIntervalMicroSeconds32, int)
	?InFilename@CUpnpHttpMessage@@QAE?AVTPtrC8@@XZ @ 15 NONAME ; class TPtrC8 CUpnpHttpMessage::InFilename(void)
	??1CUpnpHttpMessage@@UAE@XZ @ 16 NONAME ; CUpnpHttpMessage::~CUpnpHttpMessage(void)
	?Domain@CUpnpDeviceLibraryElement@@QAEAAVTDesC8@@XZ @ 17 NONAME ; class TDesC8 & CUpnpDeviceLibraryElement::Domain(void)
	?ReplaceHttpCharactersL@UpnpString@@YAXAAVTDes16@@@Z @ 18 NONAME ; void UpnpString::ReplaceHttpCharactersL(class TDes16 &)
	?CheckDiskSpaceShortL@UpnpFileUtil@@YAHW4TDriveNumber@@H@Z @ 19 NONAME ; int UpnpFileUtil::CheckDiskSpaceShortL(enum TDriveNumber, int)
	?DeleteElement@UpnpDomInterface@@YA?AVTXmlEngElement@@AAV2@@Z @ 20 NONAME ; class TXmlEngElement UpnpDomInterface::DeleteElement(class TXmlEngElement &)
	?GetHeaderValue@CUpnpHttpMessage@@QAEAAVTDesC8@@ABV2@@Z @ 21 NONAME ; class TDesC8 & CUpnpHttpMessage::GetHeaderValue(class TDesC8 const &)
	?Find@CUpnpDeviceLibrary@@QAEHABVTDesC8@@@Z @ 22 NONAME ; int CUpnpDeviceLibrary::Find(class TDesC8 const &)
	?SessionId@CUpnpHttpMessage@@QBEHXZ @ 23 NONAME ; int CUpnpHttpMessage::SessionId(void) const
	?AddrOutput@CUpnpHttpMessage@@SAXABVTInetAddr@@AAVTDes8@@@Z @ 24 NONAME ; void CUpnpHttpMessage::AddrOutput(class TInetAddr const &, class TDes8 &)
	?SetRenew@CUpnpTimeoutElement@@QAEXW4TRenew@1@@Z @ 25 NONAME ; void CUpnpTimeoutElement::SetRenew(enum CUpnpTimeoutElement::TRenew)
	?DoCancel@CUpnpTimeoutElement@@UAEXXZ @ 26 NONAME ; void CUpnpTimeoutElement::DoCancel(void)
	?SaveToFileL@UpnpDomInterface@@YAHABVTDesC16@@ABVTDesC8@@@Z @ 27 NONAME ; int UpnpDomInterface::SaveToFileL(class TDesC16 const &, class TDesC8 const &)
	?RemovePairL@CUpnpHttpMessage@@QAEXABVTDesC8@@@Z @ 28 NONAME ; void CUpnpHttpMessage::RemovePairL(class TDesC8 const &)
	?First@CUpnpHttpHeaderList@@QAEPAVCUpnpHttpHeader@@XZ @ 29 NONAME ; class CUpnpHttpHeader * CUpnpHttpHeaderList::First(void)
	?CheckAttributeValueL@UpnpDomInterface@@YAHABVTXmlEngElement@@ABVTDesC8@@1@Z @ 30 NONAME ; int UpnpDomInterface::CheckAttributeValueL(class TXmlEngElement const &, class TDesC8 const &, class TDesC8 const &)
	?Http11ResponseL@RUpnpHttpMessageFactory@@SAPAVCUpnpHttpMessage@@ABVTInetAddr@@H@Z @ 31 NONAME ; class CUpnpHttpMessage * RUpnpHttpMessageFactory::Http11ResponseL(class TInetAddr const &, int)
	?CacheControl@CUpnpSsdpMessage@@QAEHXZ @ 32 NONAME ; int CUpnpSsdpMessage::CacheControl(void)
	?SaveToFileL@UpnpDomInterface@@YAHABVTDesC16@@ABVTXmlEngElement@@@Z @ 33 NONAME ; int UpnpDomInterface::SaveToFileL(class TDesC16 const &, class TXmlEngElement const &)
	?IsGena@CUpnpHttpMessage@@QAEHXZ @ 34 NONAME ; int CUpnpHttpMessage::IsGena(void)
	?SetBodyL@CUpnpHttpMessage@@QAEXABVTDesC8@@@Z @ 35 NONAME ; void CUpnpHttpMessage::SetBodyL(class TDesC8 const &)
	?ParseHeaderRowL@CUpnpHttpMessage@@IAEXABVTDesC8@@H@Z @ 36 NONAME ; void CUpnpHttpMessage::ParseHeaderRowL(class TDesC8 const &, int)
	?Next@CUpnpHttpHeaderList@@QAEPAVCUpnpHttpHeader@@PBV2@@Z @ 37 NONAME ; class CUpnpHttpHeader * CUpnpHttpHeaderList::Next(class CUpnpHttpHeader const *)
	?NewL@CUpnpHttpMessage@@SAPAV1@AAVTDesC8@@ABVTInetAddr@@H@Z @ 38 NONAME ; class CUpnpHttpMessage * CUpnpHttpMessage::NewL(class TDesC8 &, class TInetAddr const &, int)
	?HttpGetL@RUpnpHttpMessageFactory@@SAPAVCUpnpHttpMessage@@ABVTDesC8@@@Z @ 39 NONAME ; class CUpnpHttpMessage * RUpnpHttpMessageFactory::HttpGetL(class TDesC8 const &)
	?HeadersToStringL@CUpnpHttpMessage@@UAEPAVHBufC8@@XZ @ 40 NONAME ; class HBufC8 * CUpnpHttpMessage::HeadersToStringL(void)
	?CurrentDateLC@UpnpString@@YAPAVHBufC8@@XZ @ 41 NONAME ; class HBufC8 * UpnpString::CurrentDateLC(void)
	?Uuid@CUpnpSsdpMessage@@QAE?AVTPtr8@@XZ @ 42 NONAME ; class TPtr8 CUpnpSsdpMessage::Uuid(void)
	?SetAlive@CUpnpDeviceLibraryElement@@QAEXH@Z @ 43 NONAME ; void CUpnpDeviceLibraryElement::SetAlive(int)
	?UUID@CUpnpDeviceLibraryElement@@QAEAAVTDesC8@@XZ @ 44 NONAME ; class TDesC8 & CUpnpDeviceLibraryElement::UUID(void)
	?Location@CUpnpSsdpMessage@@QAEAAVTDesC8@@XZ @ 45 NONAME ; class TDesC8 & CUpnpSsdpMessage::Location(void)
	?DescriptionUrl@CUpnpDeviceLibraryElement@@QAEAAVTDesC8@@XZ @ 46 NONAME ; class TDesC8 & CUpnpDeviceLibraryElement::DescriptionUrl(void)
	?AddPairL@CUpnpHttpMessage@@QAEXABVTDesC8@@0@Z @ 47 NONAME ; void CUpnpHttpMessage::AddPairL(class TDesC8 const &, class TDesC8 const &)
	?OverwriteExisting@CUpnpHttpMessage@@QAEHXZ @ 48 NONAME ; int CUpnpHttpMessage::OverwriteExisting(void)
	?Is3xx@CUpnpHttpMessage@@QAEHXZ @ 49 NONAME ; int CUpnpHttpMessage::Is3xx(void)
	?RemoveSilentL@CUpnpDeviceLibrary@@QAEXABVTDesC8@@@Z @ 50 NONAME ; void CUpnpDeviceLibrary::RemoveSilentL(class TDesC8 const &)
	?GetAttrValueL@UpnpDomInterface@@YA?AVTPtrC8@@ABVTXmlEngElement@@ABVTDesC8@@@Z @ 51 NONAME ; class TPtrC8 UpnpDomInterface::GetAttrValueL(class TXmlEngElement const &, class TDesC8 const &)
	?SetOutFilenameL@CUpnpHttpMessage@@QAEXABVTDesC8@@@Z @ 52 NONAME ; void CUpnpHttpMessage::SetOutFilenameL(class TDesC8 const &)
	??1CUpnpDeviceLibraryElement@@UAE@XZ @ 53 NONAME ; CUpnpDeviceLibraryElement::~CUpnpDeviceLibraryElement(void)
	?UpdateId@CUpnpDeviceLibraryElement@@QBEHXZ @ 54 NONAME ; int CUpnpDeviceLibraryElement::UpdateId(void) const
	?DeviceList@CUpnpDeviceLibrary@@QAEAAV?$RPointerArray@VCUpnpDeviceLibraryElement@@@@XZ @ 55 NONAME ; class RPointerArray<class CUpnpDeviceLibraryElement> & CUpnpDeviceLibrary::DeviceList(void)
	?GetNextValue@CUpnpMSearchTimer@@QAEHXZ @ 56 NONAME ; int CUpnpMSearchTimer::GetNextValue(void)
	?InetToStringL@UpnpString@@YAPAVHBufC8@@ABVTInetAddr@@@Z @ 57 NONAME ; class HBufC8 * UpnpString::InetToStringL(class TInetAddr const &)
	?Remove@CUpnpHttpHeaderList@@QAEXPBVCUpnpHttpHeader@@@Z @ 58 NONAME ; void CUpnpHttpHeaderList::Remove(class CUpnpHttpHeader const *)
	?IsSearchService@CUpnpSsdpMessage@@QAEHXZ @ 59 NONAME ; int CUpnpSsdpMessage::IsSearchService(void)
	?SetLocal@CUpnpHttpMessage@@QAEXH@Z @ 60 NONAME ; void CUpnpHttpMessage::SetLocal(int)
	?RetryCounter@CUpnpHttpMessage@@QAEHXZ @ 61 NONAME ; int CUpnpHttpMessage::RetryCounter(void)
	?RPointerArrayToCsvLC@UpnpString@@YAPAVHBufC8@@AAV?$RPointerArray@VTPtrC8@@@@@Z @ 62 NONAME ; class HBufC8 * UpnpString::RPointerArrayToCsvLC(class RPointerArray<class TPtrC8> &)
	?HttpResponseOkL@RUpnpHttpMessageFactory@@SAPAVCUpnpHttpMessage@@ABVTInetAddr@@@Z @ 63 NONAME ; class CUpnpHttpMessage * RUpnpHttpMessageFactory::HttpResponseOkL(class TInetAddr const &)
	?HeaderList@CUpnpHttpMessage@@QAEPAVCUpnpHttpHeaderList@@XZ @ 64 NONAME ; class CUpnpHttpHeaderList * CUpnpHttpMessage::HeaderList(void)
	?OutFilename@CUpnpHttpMessage@@QAE?AVTPtrC8@@XZ @ 65 NONAME ; class TPtrC8 CUpnpHttpMessage::OutFilename(void)
	?NewSessionIdL@CUpnpHttpMessage@@SAHXZ @ 66 NONAME ; int CUpnpHttpMessage::NewSessionIdL(void)
	?AfterSeconds@CUpnpNotifyTimer@@QAEXH@Z @ 67 NONAME ; void CUpnpNotifyTimer::AfterSeconds(int)
	?Trim@UpnpString@@YA?AVTPtrC8@@V2@H@Z @ 68 NONAME ; class TPtrC8 UpnpString::Trim(class TPtrC8, int)
	?NewL@CUpnpSsdpMessage@@SAPAV1@AAVTInetAddr@@W4TRequestType@1@@Z @ 69 NONAME ; class CUpnpSsdpMessage * CUpnpSsdpMessage::NewL(class TInetAddr &, enum CUpnpSsdpMessage::TRequestType)
	?Local@CUpnpDeviceLibraryElement@@QBEHXZ @ 70 NONAME ; int CUpnpDeviceLibraryElement::Local(void) const
	?HttpError@CUpnpHttpMessage@@SAABVTDesC8@@W4THttpStatusCode@@@Z @ 71 NONAME ; class TDesC8 const & CUpnpHttpMessage::HttpError(enum THttpStatusCode)
	?AddInfoL@CUpnpDeviceLibrary@@QAEXPBVTUpnpAddLocalDevice@@ABVTDesC8@@ABVTInetAddr@@@Z @ 72 NONAME ; void CUpnpDeviceLibrary::AddInfoL(class TUpnpAddLocalDevice const *, class TDesC8 const &, class TInetAddr const &)
	?ServicePath@CUpnpHttpMessage@@QBE?BVTPtrC8@@XZ @ 73 NONAME ; class TPtrC8 const CUpnpHttpMessage::ServicePath(void) const
	?GetDirectoryElementListL@UpnpDomInterface@@YAHABVTXmlEngElement@@AAV?$RArray@VTXmlEngElement@@@@ABVTDesC8@@2H@Z @ 74 NONAME ; int UpnpDomInterface::GetDirectoryElementListL(class TXmlEngElement const &, class RArray<class TXmlEngElement> &, class TDesC8 const &, class TDesC8 const &, int)
	?GetTarget@CUpnpMSearchTimer@@QAE?AVTPtrC8@@XZ @ 75 NONAME ; class TPtrC8 CUpnpMSearchTimer::GetTarget(void)
	?RunError@CUpnpTimeoutElement@@UAEHH@Z @ 76 NONAME ; int CUpnpTimeoutElement::RunError(int)
	?IsSsdpNotify@CUpnpSsdpMessage@@QAEHXZ @ 77 NONAME ; int CUpnpSsdpMessage::IsSsdpNotify(void)
	??0CUpnpSymbianServerBase@@IAE@XZ @ 78 NONAME ; CUpnpSymbianServerBase::CUpnpSymbianServerBase(void)
	?FindLWS@CUpnpHttpMessage@@SAHABVTDesC8@@@Z @ 79 NONAME ; int CUpnpHttpMessage::FindLWS(class TDesC8 const &)
	?DecodeXmlStringL@UpnpString@@YAPAVHBufC8@@ABVTDesC8@@@Z @ 80 NONAME ; class HBufC8 * UpnpString::DecodeXmlStringL(class TDesC8 const &)
	?HttpHeadL@RUpnpHttpMessageFactory@@SAPAVCUpnpHttpMessage@@ABVTDesC8@@@Z @ 81 NONAME ; class CUpnpHttpMessage * RUpnpHttpMessageFactory::HttpHeadL(class TDesC8 const &)
	?HttpGetL@RUpnpHttpMessageFactory@@SAPAVCUpnpHttpMessage@@AAVTInetAddr@@ABVTDesC8@@@Z @ 82 NONAME ; class CUpnpHttpMessage * RUpnpHttpMessageFactory::HttpGetL(class TInetAddr &, class TDesC8 const &)
	?RunL@CUpnpSymbianServerBase@@MAEXXZ @ 83 NONAME ; void CUpnpSymbianServerBase::RunL(void)
	?SetDestinationPathL@CUpnpHttpMessage@@QAEXABVTDesC8@@@Z @ 84 NONAME ; void CUpnpHttpMessage::SetDestinationPathL(class TDesC8 const &)
	?GetMimeTypeForFileL@UpnpFileUtil@@YAPAVHBufC8@@ABVTDesC16@@@Z @ 85 NONAME ; class HBufC8 * UpnpFileUtil::GetMimeTypeForFileL(class TDesC16 const &)
	?GetElementL@UpnpDomInterface@@YAHABVTXmlEngElement@@AAV2@ABVTDesC8@@2HH@Z @ 86 NONAME ; int UpnpDomInterface::GetElementL(class TXmlEngElement const &, class TXmlEngElement &, class TDesC8 const &, class TDesC8 const &, int, int)
	??0CUpnpMSearchTimer@@AAE@PAVMUpnpNotifyTimerObserver@@@Z @ 87 NONAME ; CUpnpMSearchTimer::CUpnpMSearchTimer(class MUpnpNotifyTimerObserver *)
	?EncodeXmlStringL@UpnpString@@YAPAVHBufC8@@ABVTDesC8@@@Z @ 88 NONAME ; class HBufC8 * UpnpString::EncodeXmlStringL(class TDesC8 const &)
	?Nt@CUpnpSsdpMessage@@QAEAAVTDesC8@@XZ @ 89 NONAME ; class TDesC8 & CUpnpSsdpMessage::Nt(void)
	?ClientRequest@CUpnpHttpMessage@@QAEHXZ @ 90 NONAME ; int CUpnpHttpMessage::ClientRequest(void)
	?SetType@CUpnpHttpMessage@@QAEXW4THTTPMsgType@@@Z @ 91 NONAME ; void CUpnpHttpMessage::SetType(enum THTTPMsgType)
	?HttpGetL@RUpnpHttpMessageFactory@@SAPAVCUpnpHttpMessage@@AAVTInetAddr@@ABVTDesC8@@1@Z @ 92 NONAME ; class CUpnpHttpMessage * RUpnpHttpMessageFactory::HttpGetL(class TInetAddr &, class TDesC8 const &, class TDesC8 const &)
	?TrimLC@UpnpString@@YAPAVHBufC8@@ABVTDesC8@@H@Z @ 93 NONAME ; class HBufC8 * UpnpString::TrimLC(class TDesC8 const &, int)
	?AdvertiseByebyeL@RUpnpSsdpMessageFactory@@SAPAVCUpnpSsdpMessage@@AAVTDesC8@@0@Z @ 94 NONAME ; class CUpnpSsdpMessage * RUpnpSsdpMessageFactory::AdvertiseByebyeL(class TDesC8 &, class TDesC8 &)
	?ConstructL@CUpnpHttpMessage@@IAEXXZ @ 95 NONAME ; void CUpnpHttpMessage::ConstructL(void)
	?AdvertiseAliveL@RUpnpSsdpMessageFactory@@SAPAVCUpnpSsdpMessage@@AAVTDesC8@@000@Z @ 96 NONAME ; class CUpnpSsdpMessage * RUpnpSsdpMessageFactory::AdvertiseAliveL(class TDesC8 &, class TDesC8 &, class TDesC8 &, class TDesC8 &)
	?BaseConstructL@CUpnpTimeoutElement@@IAEXXZ @ 97 NONAME ; void CUpnpTimeoutElement::BaseConstructL(void)
	?Is1xx@CUpnpHttpMessage@@QAEHXZ @ 98 NONAME ; int CUpnpHttpMessage::Is1xx(void)
	?DestinationPath@CUpnpHttpMessage@@QAE?AVTPtrC8@@XZ @ 99 NONAME ; class TPtrC8 CUpnpHttpMessage::DestinationPath(void)
	?SaveAtOffset@CUpnpHttpMessage@@QAEHXZ @ 100 NONAME ; int CUpnpHttpMessage::SaveAtOffset(void)
	?SwitchToBackSlashL@UpnpFileUtil@@YAPAVHBufC16@@ABVTDesC16@@@Z @ 101 NONAME ; class HBufC16 * UpnpFileUtil::SwitchToBackSlashL(class TDesC16 const &)
	?Nts@CUpnpSsdpMessage@@QAEAAVTDesC8@@XZ @ 102 NONAME ; class TDesC8 & CUpnpSsdpMessage::Nts(void)
	?NewL@CUpnpSsdpMessage@@SAPAV1@AAVTDesC8@@AAVTInetAddr@@@Z @ 103 NONAME ; class CUpnpSsdpMessage * CUpnpSsdpMessage::NewL(class TDesC8 &, class TInetAddr &)
	?EncodeXmlStringL@UpnpString@@YAPAVHBufC8@@AAPAV2@@Z @ 104 NONAME ; class HBufC8 * UpnpString::EncodeXmlStringL(class HBufC8 * &)
	?SwitchToBackSlashL@UpnpFileUtil@@YAPAVHBufC8@@ABVTDesC8@@@Z @ 105 NONAME ; class HBufC8 * UpnpFileUtil::SwitchToBackSlashL(class TDesC8 const &)
	?ServiceList@CUpnpDeviceLibraryElement@@QAEAAVCDesC8Array@@XZ @ 106 NONAME ; class CDesC8Array & CUpnpDeviceLibraryElement::ServiceList(void)
	?SetRangeL@CUpnpHttpMessage@@QAEXHHH@Z @ 107 NONAME ; void CUpnpHttpMessage::SetRangeL(int, int, int)
	?RequestHTTPVersion@CUpnpHttpMessage@@QAE?BVTPtrC8@@XZ @ 108 NONAME ; class TPtrC8 const CUpnpHttpMessage::RequestHTTPVersion(void)
	?HttpHeadL@RUpnpHttpMessageFactory@@SAPAVCUpnpHttpMessage@@ABVTDesC8@@0@Z @ 109 NONAME ; class CUpnpHttpMessage * RUpnpHttpMessageFactory::HttpHeadL(class TDesC8 const &, class TDesC8 const &)
	?StopFilteringDeviceL@CUpnpDeviceLibrary@@QAEXABVTDesC8@@@Z @ 110 NONAME ; void CUpnpDeviceLibrary::StopFilteringDeviceL(class TDesC8 const &)
	?SuggestShutdown@CUpnpSymbianServerBase@@IAEXXZ @ 111 NONAME ; void CUpnpSymbianServerBase::SuggestShutdown(void)
	?Start@CUpnpNotifyTimer@@QAEXVTTimeIntervalMicroSeconds32@@H@Z @ 112 NONAME ; void CUpnpNotifyTimer::Start(class TTimeIntervalMicroSeconds32, int)
	?Usn@CUpnpSsdpMessage@@QAEAAVTDesC8@@XZ @ 113 NONAME ; class TDesC8 & CUpnpSsdpMessage::Usn(void)
	?Renew@CUpnpTimeoutElement@@QAEAAW4TRenew@1@XZ @ 114 NONAME ; enum CUpnpTimeoutElement::TRenew & CUpnpTimeoutElement::Renew(void)
	?ReadFileL@UpnpFileUtil@@YAPAVHBufC8@@ABVTDesC16@@@Z @ 115 NONAME ; class HBufC8 * UpnpFileUtil::ReadFileL(class TDesC16 const &)
	??0CUpnpNotifyTimer@@IAE@PAVMUpnpNotifyTimerObserver@@@Z @ 116 NONAME ; CUpnpNotifyTimer::CUpnpNotifyTimer(class MUpnpNotifyTimerObserver *)
	?StringToInt@UpnpString@@YAHABVTDesC8@@PAH@Z @ 117 NONAME ; int UpnpString::StringToInt(class TDesC8 const &, int *)
	?StartServer@CUpnpSymbianServerBase@@SAHABVTDesC16@@P6APAV1@XZ@Z @ 118 NONAME ; int CUpnpSymbianServerBase::StartServer(class TDesC16 const &, class CUpnpSymbianServerBase * (*)(void))
	?AddHostL@CUpnpSsdpMessage@@QAEXAAVTDesC8@@@Z @ 119 NONAME ; void CUpnpSsdpMessage::AddHostL(class TDesC8 &)
	?ValueFromCsvL@UpnpString@@YAPAVHBufC8@@ABVTDesC8@@H@Z @ 120 NONAME ; class HBufC8 * UpnpString::ValueFromCsvL(class TDesC8 const &, int)
	?PrepareShutdown@CUpnpDeviceLibrary@@QAEXXZ @ 121 NONAME ; void CUpnpDeviceLibrary::PrepareShutdown(void)
	?NewL@CUpnpDeviceLibrary@@SAPAV1@AAVMUpnpDeviceLibraryObserver@@H@Z @ 122 NONAME ; class CUpnpDeviceLibrary * CUpnpDeviceLibrary::NewL(class MUpnpDeviceLibraryObserver &, int)
	?GetElementListL@UpnpDomInterface@@YAHABVTXmlEngElement@@AAV?$RArray@VTXmlEngElement@@@@ABVTDesC8@@222H@Z @ 123 NONAME ; int UpnpDomInterface::GetElementListL(class TXmlEngElement const &, class RArray<class TXmlEngElement> &, class TDesC8 const &, class TDesC8 const &, class TDesC8 const &, class TDesC8 const &, int)
	?StringReplaceL@UpnpString@@YAXABVTDesC8@@AAPAVHBufC8@@00@Z @ 124 NONAME ; void UpnpString::StringReplaceL(class TDesC8 const &, class HBufC8 * &, class TDesC8 const &, class TDesC8 const &)
	?DecodeXmlStringL@UpnpString@@YAPAVHBufC8@@AAPAV2@@Z @ 125 NONAME ; class HBufC8 * UpnpString::DecodeXmlStringL(class HBufC8 * &)
	?UpnpError@CUpnpHttpMessage@@SAABVTDesC8@@W4TUpnpErrorCode@@@Z @ 126 NONAME ; class TDesC8 const & CUpnpHttpMessage::UpnpError(enum TUpnpErrorCode)
	?AddInfoL@CUpnpDeviceLibrary@@QAEXPAVCUpnpSsdpMessage@@@Z @ 127 NONAME ; void CUpnpDeviceLibrary::AddInfoL(class CUpnpSsdpMessage *)
	?StringReplaceInPlaceL@UpnpString@@YAXAAVTDes8@@ABVTDesC8@@1@Z @ 128 NONAME ; void UpnpString::StringReplaceInPlaceL(class TDes8 &, class TDesC8 const &, class TDesC8 const &)
	?GetElementListL@UpnpDomInterface@@YAHABVTXmlEngElement@@AAV?$RArray@VTXmlEngElement@@@@ABVTDesC8@@H@Z @ 129 NONAME ; int UpnpDomInterface::GetElementListL(class TXmlEngElement const &, class RArray<class TXmlEngElement> &, class TDesC8 const &, int)
	?IsSsdpByebye@CUpnpSsdpMessage@@QAEHXZ @ 130 NONAME ; int CUpnpSsdpMessage::IsSsdpByebye(void)
	?ExtractUrlPath@UpnpFileUtil@@YA?AVTPtrC8@@ABVTDesC8@@AAV2@AAH@Z @ 131 NONAME ; class TPtrC8 UpnpFileUtil::ExtractUrlPath(class TDesC8 const &, class TPtrC8 &, int &)
	?SetClientRequest@CUpnpHttpMessage@@QAEXH@Z @ 132 NONAME ; void CUpnpHttpMessage::SetClientRequest(int)
	?SetHttpPriority@CUpnpHttpMessage@@QAEXW4TThreadPriority@@@Z @ 133 NONAME ; void CUpnpHttpMessage::SetHttpPriority(enum TThreadPriority)
	?CancelMessageTimeout@CUpnpHttpMessage@@QAEXXZ @ 134 NONAME ; void CUpnpHttpMessage::CancelMessageTimeout(void)
	?ToUnicodeL@UpnpString@@YAPAVHBufC16@@ABVTDesC8@@@Z @ 135 NONAME ; class HBufC16 * UpnpString::ToUnicodeL(class TDesC8 const &)
	?AddrInput@CUpnpHttpMessage@@SAXAAVTInetAddr@@ABVTDesC8@@@Z @ 136 NONAME ; void CUpnpHttpMessage::AddrInput(class TInetAddr &, class TDesC8 const &)
	?TcpTimeout@CUpnpHttpMessage@@QAEHXZ @ 137 NONAME ; int CUpnpHttpMessage::TcpTimeout(void)
	?GetIfNameForIap@UpnpIpAddressUtil@@YAXKAAVTDes16@@@Z @ 138 NONAME ; void UpnpIpAddressUtil::GetIfNameForIap(unsigned long, class TDes16 &)
	?MatchIfNameWithIpInterface@UpnpIpAddressUtil@@YA?AVTInetAddr@@AAVRSocketServ@@AAVTDesC16@@AAH@Z @ 139 NONAME ; class TInetAddr UpnpIpAddressUtil::MatchIfNameWithIpInterface(class RSocketServ &, class TDesC16 &, int &)
	?ParseUri@UpnpFileUtil@@YAHABVTDesC8@@@Z @ 140 NONAME ; int UpnpFileUtil::ParseUri(class TDesC8 const &)
	?IsSearchAll@CUpnpSsdpMessage@@QAEHXZ @ 141 NONAME ; int CUpnpSsdpMessage::IsSearchAll(void)
	??1CUpnpDeviceLibrary@@UAE@XZ @ 142 NONAME ; CUpnpDeviceLibrary::~CUpnpDeviceLibrary(void)
	?Method@CUpnpHttpMessage@@QAE?BVTPtrC8@@XZ @ 143 NONAME ; class TPtrC8 const CUpnpHttpMessage::Method(void)
	?PanicClient@CUpnpSymbianServerBase@@QBEXABVRMessage2@@H@Z @ 144 NONAME ; void CUpnpSymbianServerBase::PanicClient(class RMessage2 const &, int) const
	?CheckSubTagPrefixL@UpnpDomInterface@@YAHABVTXmlEngElement@@ABVTDesC8@@11@Z @ 145 NONAME ; int UpnpDomInterface::CheckSubTagPrefixL(class TXmlEngElement const &, class TDesC8 const &, class TDesC8 const &, class TDesC8 const &)
	?HttpPriority@CUpnpHttpMessage@@QAE?AW4TThreadPriority@@XZ @ 146 NONAME ; enum TThreadPriority CUpnpHttpMessage::HttpPriority(void)
	?SearchTarget@CUpnpSsdpMessage@@QAEHXZ @ 147 NONAME ; int CUpnpSsdpMessage::SearchTarget(void)
	?SenderPath@CUpnpHttpMessage@@QAE?AVTPtrC8@@XZ @ 148 NONAME ; class TPtrC8 CUpnpHttpMessage::SenderPath(void)
	?RemoveL@CUpnpDeviceLibrary@@QAEXABVTDesC8@@@Z @ 149 NONAME ; void CUpnpDeviceLibrary::RemoveL(class TDesC8 const &)
	?GetElementL@UpnpDomInterface@@YAHABVTXmlEngElement@@AAV2@ABVTDesC8@@HH@Z @ 150 NONAME ; int UpnpDomInterface::GetElementL(class TXmlEngElement const &, class TXmlEngElement &, class TDesC8 const &, int, int)
	?Body@CUpnpHttpMessage@@QAEAAVTDesC8@@XZ @ 151 NONAME ; class TDesC8 & CUpnpHttpMessage::Body(void)
	?GetContentElementL@UpnpDomInterface@@YAHABVTXmlEngElement@@AAV2@ABVTDesC8@@2HH@Z @ 152 NONAME ; int UpnpDomInterface::GetContentElementL(class TXmlEngElement const &, class TXmlEngElement &, class TDesC8 const &, class TDesC8 const &, int, int)
	?SetTimeout@CUpnpTimeoutElement@@QAEXH@Z @ 153 NONAME ; void CUpnpTimeoutElement::SetTimeout(int)
	?AppendContentLengthToHeadersL@CUpnpSsdpMessage@@MAEXAAPAVHBufC8@@@Z @ 154 NONAME ; void CUpnpSsdpMessage::AppendContentLengthToHeadersL(class HBufC8 * &)
	?ReplaceHttpCharacters@UpnpString@@YAXAAVTDes8@@@Z @ 155 NONAME ; void UpnpString::ReplaceHttpCharacters(class TDes8 &)
	?CutToPiecesL@UpnpString@@YAXVTPtrC8@@VTChar@@AAV?$RPointerArray@VTPtrC8@@@@@Z @ 156 NONAME ; void UpnpString::CutToPiecesL(class TPtrC8, class TChar, class RPointerArray<class TPtrC8> &)
	?HttpGetL@RUpnpHttpMessageFactory@@SAPAVCUpnpHttpMessage@@ABVTDesC8@@0@Z @ 157 NONAME ; class CUpnpHttpMessage * RUpnpHttpMessageFactory::HttpGetL(class TDesC8 const &, class TDesC8 const &)
	?Sender@CUpnpHttpMessage@@QAEAAVTInetAddr@@XZ @ 158 NONAME ; class TInetAddr & CUpnpHttpMessage::Sender(void)
	?RemoveAllDevicesL@CUpnpDeviceLibrary@@QAEXXZ @ 159 NONAME ; void CUpnpDeviceLibrary::RemoveAllDevicesL(void)
	??0CUpnpTimeoutElement@@IAE@AAVMUpnpTimeoutElementParent@@@Z @ 160 NONAME ; CUpnpTimeoutElement::CUpnpTimeoutElement(class MUpnpTimeoutElementParent &)
	?CheckSubTagL@UpnpDomInterface@@YAHABVTXmlEngElement@@ABVTDesC8@@@Z @ 161 NONAME ; int UpnpDomInterface::CheckSubTagL(class TXmlEngElement const &, class TDesC8 const &)
	?HttpPostL@RUpnpHttpMessageFactory@@SAPAVCUpnpHttpMessage@@ABVTDesC8@@@Z @ 162 NONAME ; class CUpnpHttpMessage * RUpnpHttpMessageFactory::HttpPostL(class TDesC8 const &)
	?AddInfoL@CUpnpDeviceLibrary@@QAEXPBVTUpnpAddLocalDevice@@ABVTDesC8@@@Z @ 163 NONAME ; void CUpnpDeviceLibrary::AddInfoL(class TUpnpAddLocalDevice const *, class TDesC8 const &)
	?CheckDiskSpaceShortL@UpnpFileUtil@@YAHABVTDesC16@@HAAVRFs@@@Z @ 164 NONAME ; int UpnpFileUtil::CheckDiskSpaceShortL(class TDesC16 const &, int, class RFs &)
	?CsvToRPointerArrayL@UpnpString@@YAXABVTDesC8@@AAV?$RPointerArray@VTPtrC8@@@@@Z @ 165 NONAME ; void UpnpString::CsvToRPointerArrayL(class TDesC8 const &, class RPointerArray<class TPtrC8> &)
	?NewL@CUpnpNotifyTimer@@SAPAV1@PAVMUpnpNotifyTimerObserver@@@Z @ 166 NONAME ; class CUpnpNotifyTimer * CUpnpNotifyTimer::NewL(class MUpnpNotifyTimerObserver *)
	?Connect@RUpnpSessionBase@@IAEHABVTDesC16@@VTVersion@@HH0VTUid@@@Z @ 167 NONAME ; int RUpnpSessionBase::Connect(class TDesC16 const &, class TVersion, int, int, class TDesC16 const &, class TUid)
	?IsSoap@CUpnpHttpMessage@@QBEHXZ @ 168 NONAME ; int CUpnpHttpMessage::IsSoap(void) const
	?Value@CUpnpHttpHeader@@QAEAAVTDesC8@@XZ @ 169 NONAME ; class TDesC8 & CUpnpHttpHeader::Value(void)
	??1CUpnpTimeoutElement@@UAE@XZ @ 170 NONAME ; CUpnpTimeoutElement::~CUpnpTimeoutElement(void)
	?SessionIdMatch@CUpnpHttpMessage@@SAHABV1@0@Z @ 171 NONAME ; int CUpnpHttpMessage::SessionIdMatch(class CUpnpHttpMessage const &, class CUpnpHttpMessage const &)
	?NewL@CUpnpSsdpMessage@@SAPAV1@W4TRequestType@1@@Z @ 172 NONAME ; class CUpnpSsdpMessage * CUpnpSsdpMessage::NewL(enum CUpnpSsdpMessage::TRequestType)
	?RunError@CUpnpSymbianServerBase@@MAEHH@Z @ 173 NONAME ; int CUpnpSymbianServerBase::RunError(int)
	?GetContentElementListL@UpnpDomInterface@@YAHABVTXmlEngElement@@AAV?$RArray@VTXmlEngElement@@@@ABVTDesC8@@2H@Z @ 174 NONAME ; int UpnpDomInterface::GetContentElementListL(class TXmlEngElement const &, class RArray<class TXmlEngElement> &, class TDesC8 const &, class TDesC8 const &, int)
	?HttpPostL@RUpnpHttpMessageFactory@@SAPAVCUpnpHttpMessage@@ABVTInetAddr@@ABVTDesC8@@@Z @ 175 NONAME ; class CUpnpHttpMessage * RUpnpHttpMessageFactory::HttpPostL(class TInetAddr const &, class TDesC8 const &)
	?Alive@CUpnpDeviceLibraryElement@@QBEHXZ @ 176 NONAME ; int CUpnpDeviceLibraryElement::Alive(void) const
	?TimerEventL@CUpnpHttpMessage@@MAEXPAVCUpnpNotifyTimer@@@Z @ 177 NONAME ; void CUpnpHttpMessage::TimerEventL(class CUpnpNotifyTimer *)
	?AppendContentLengthToHeadersL@CUpnpHttpMessage@@MAEXAAPAVHBufC8@@@Z @ 178 NONAME ; void CUpnpHttpMessage::AppendContentLengthToHeadersL(class HBufC8 * &)
	?ConstructL@CUpnpHttpMessage@@IAEXAAVTInetAddr@@H@Z @ 179 NONAME ; void CUpnpHttpMessage::ConstructL(class TInetAddr &, int)
	?SetUpdateId@CUpnpDeviceLibraryElement@@QAEXH@Z @ 180 NONAME ; void CUpnpDeviceLibraryElement::SetUpdateId(int)
	?Offset@CUpnpHttpMessage@@QAEHXZ @ 181 NONAME ; int CUpnpHttpMessage::Offset(void)
	?SetInFilenameL@CUpnpHttpMessage@@QAEXABVTDesC8@@H@Z @ 182 NONAME ; void CUpnpHttpMessage::SetInFilenameL(class TDesC8 const &, int)
	?IsColon@UpnpString@@YAHABE@Z @ 183 NONAME ; int UpnpString::IsColon(unsigned char const &)
	?Receiver@CUpnpHttpMessage@@QAEAAVTInetAddr@@XZ @ 184 NONAME ; class TInetAddr & CUpnpHttpMessage::Receiver(void)
	?IsHeader@CUpnpHttpMessage@@QAEAAVTDesC8@@ABV2@AAH@Z @ 185 NONAME ; class TDesC8 & CUpnpHttpMessage::IsHeader(class TDesC8 const &, int &)
	?IsSearchDevice@CUpnpSsdpMessage@@QAEHXZ @ 186 NONAME ; int CUpnpSsdpMessage::IsSearchDevice(void)
	?IsSsdpAlive@CUpnpSsdpMessage@@QAEHXZ @ 187 NONAME ; int CUpnpSsdpMessage::IsSsdpAlive(void)
	?RemoveFromCsvLC@UpnpString@@YAPAVHBufC8@@ABVTDesC8@@0@Z @ 188 NONAME ; class HBufC8 * UpnpString::RemoveFromCsvLC(class TDesC8 const &, class TDesC8 const &)
	?SearchL@RUpnpSsdpMessageFactory@@SAPAVCUpnpSsdpMessage@@AAVTDesC8@@@Z @ 189 NONAME ; class CUpnpSsdpMessage * RUpnpSsdpMessageFactory::SearchL(class TDesC8 &)
	?FoldHeaderL@CUpnpHttpMessage@@IAEXAAPAVHBufC8@@@Z @ 190 NONAME ; void CUpnpHttpMessage::FoldHeaderL(class HBufC8 * &)
	?NewL@CUpnpDeviceLibraryElement@@SAPAV1@AAVMUpnpTimeoutElementParent@@@Z @ 191 NONAME ; class CUpnpDeviceLibraryElement * CUpnpDeviceLibraryElement::NewL(class MUpnpTimeoutElementParent &)
	?NewL@CUpnpMSearchTimer@@SAPAV1@PAVMUpnpNotifyTimerObserver@@ABVTDesC8@@1@Z @ 192 NONAME ; class CUpnpMSearchTimer * CUpnpMSearchTimer::NewL(class MUpnpNotifyTimerObserver *, class TDesC8 const &, class TDesC8 const &)
	?RunL@CUpnpTimeoutElement@@UAEXXZ @ 193 NONAME ; void CUpnpTimeoutElement::RunL(void)
	?SetSenderPathL@CUpnpHttpMessage@@QAEXABVTDesC8@@@Z @ 194 NONAME ; void CUpnpHttpMessage::SetSenderPathL(class TDesC8 const &)
	?UpnpResponseErrorL@RUpnpHttpMessageFactory@@SAPAVCUpnpHttpMessage@@PAV2@W4TUpnpErrorCode@@@Z @ 195 NONAME ; class CUpnpHttpMessage * RUpnpHttpMessageFactory::UpnpResponseErrorL(class CUpnpHttpMessage *, enum TUpnpErrorCode)
	?DevicePath@CUpnpHttpMessage@@QAE?BVTPtrC8@@XZ @ 196 NONAME ; class TPtrC8 const CUpnpHttpMessage::DevicePath(void)
	??0CUpnpHttpMessage@@IAE@XZ @ 197 NONAME ; CUpnpHttpMessage::CUpnpHttpMessage(void)
	?TimerEventL@CUpnpSymbianServerBase@@MAEXPAVCUpnpNotifyTimer@@@Z @ 198 NONAME ; void CUpnpSymbianServerBase::TimerEventL(class CUpnpNotifyTimer *)
	?Error@CUpnpHttpMessage@@QAEHXZ @ 199 NONAME ; int CUpnpHttpMessage::Error(void)
	?NewL@CUpnpHttpMessage@@SAPAV1@VTInetAddr@@H@Z @ 200 NONAME ; class CUpnpHttpMessage * CUpnpHttpMessage::NewL(class TInetAddr, int)
	?CheckSubTagL@UpnpDomInterface@@YAHABVTXmlEngElement@@ABVTDesC8@@1@Z @ 201 NONAME ; int UpnpDomInterface::CheckSubTagL(class TXmlEngElement const &, class TDesC8 const &, class TDesC8 const &)
	?Local@CUpnpHttpMessage@@QAEHXZ @ 202 NONAME ; int CUpnpHttpMessage::Local(void)
	?SetInternalError@CUpnpHttpMessage@@QAEXH@Z @ 203 NONAME ; void CUpnpHttpMessage::SetInternalError(int)
	?ToStringL@CUpnpHttpMessage@@UAEPAVHBufC8@@XZ @ 204 NONAME ; class HBufC8 * CUpnpHttpMessage::ToStringL(void)
	?NewL@CUpnpHttpMessage@@SAPAV1@AAVTDesC8@@VTInetAddr@@@Z @ 205 NONAME ; class CUpnpHttpMessage * CUpnpHttpMessage::NewL(class TDesC8 &, class TInetAddr)
	?After@CUpnpNotifyTimer@@QAEXHH@Z @ 206 NONAME ; void CUpnpNotifyTimer::After(int, int)
	?ParseL@CUpnpHttpMessage@@MAEXAAVTDesC8@@@Z @ 207 NONAME ; void CUpnpHttpMessage::ParseL(class TDesC8 &)
	?HttpPostL@RUpnpHttpMessageFactory@@SAPAVCUpnpHttpMessage@@ABVTDesC8@@0@Z @ 208 NONAME ; class CUpnpHttpMessage * RUpnpHttpMessageFactory::HttpPostL(class TDesC8 const &, class TDesC8 const &)
	?HttpResponseOkL@RUpnpHttpMessageFactory@@SAPAVCUpnpHttpMessage@@PAV2@@Z @ 209 NONAME ; class CUpnpHttpMessage * RUpnpHttpMessageFactory::HttpResponseOkL(class CUpnpHttpMessage *)
	?DeviceType@CUpnpDeviceLibraryElement@@QAEAAVTDesC8@@XZ @ 210 NONAME ; class TDesC8 & CUpnpDeviceLibraryElement::DeviceType(void)
	?GetDirectoryElementL@UpnpDomInterface@@YAHABVTXmlEngElement@@AAV2@ABVTDesC8@@2HH@Z @ 211 NONAME ; int UpnpDomInterface::GetDirectoryElementL(class TXmlEngElement const &, class TXmlEngElement &, class TDesC8 const &, class TDesC8 const &, int, int)
	?AppendStringL@UpnpString@@YAXAAPAVHBufC8@@ABVTDesC8@@@Z @ 212 NONAME ; void UpnpString::AppendStringL(class HBufC8 * &, class TDesC8 const &)
	?SetSessionId@CUpnpHttpMessage@@QAEXH@Z @ 213 NONAME ; void CUpnpHttpMessage::SetSessionId(int)
	?InternalError@CUpnpHttpMessage@@QAEHXZ @ 214 NONAME ; int CUpnpHttpMessage::InternalError(void)
	?SearchL@RUpnpSsdpMessageFactory@@SAPAVCUpnpSsdpMessage@@AAVTDesC8@@0@Z @ 215 NONAME ; class CUpnpSsdpMessage * RUpnpSsdpMessageFactory::SearchL(class TDesC8 &, class TDesC8 &)
	?HttpResponseErrorL@RUpnpHttpMessageFactory@@SAPAVCUpnpHttpMessage@@PAV2@H@Z @ 216 NONAME ; class CUpnpHttpMessage * RUpnpHttpMessageFactory::HttpResponseErrorL(class CUpnpHttpMessage *, int)
	?Set@TUpnpDevice@@QAEXPAVCUpnpDeviceLibraryElement@@@Z @ 217 NONAME ; void TUpnpDevice::Set(class CUpnpDeviceLibraryElement *)
	?NewL@CUpnpHttpMessage@@SAPAV1@ABVTInetAddr@@@Z @ 218 NONAME ; class CUpnpHttpMessage * CUpnpHttpMessage::NewL(class TInetAddr const &)
	?AddMxL@CUpnpSsdpMessage@@QAEXAAVTDesC8@@@Z @ 219 NONAME ; void CUpnpSsdpMessage::AddMxL(class TDesC8 &)
	?Type@CUpnpHttpMessage@@QBE?AW4THTTPMsgType@@XZ @ 220 NONAME ; enum THTTPMsgType CUpnpHttpMessage::Type(void) const
	?IsRootDevice@CUpnpDeviceLibraryElement@@QBEHXZ @ 221 NONAME ; int CUpnpDeviceLibraryElement::IsRootDevice(void) const
	?SetMessageTimeoutL@CUpnpHttpMessage@@QAEHPAVMUpnpMessageObserver@@H@Z @ 222 NONAME ; int CUpnpHttpMessage::SetMessageTimeoutL(class MUpnpMessageObserver *, int)
	?BaseConstructL@CUpnpSymbianServerBase@@IAEXXZ @ 223 NONAME ; void CUpnpSymbianServerBase::BaseConstructL(void)
	?GetElementListL@UpnpDomInterface@@YAHABVTXmlEngElement@@AAV?$RArray@VTXmlEngElement@@@@ABVTDesC8@@22H@Z @ 224 NONAME ; int UpnpDomInterface::GetElementListL(class TXmlEngElement const &, class RArray<class TXmlEngElement> &, class TDesC8 const &, class TDesC8 const &, class TDesC8 const &, int)
	?GetDirectoryElementL@UpnpDomInterface@@YAHABVTXmlEngElement@@AAV2@ABVTDesC8@@22HH@Z @ 225 NONAME ; int UpnpDomInterface::GetDirectoryElementL(class TXmlEngElement const &, class TXmlEngElement &, class TDesC8 const &, class TDesC8 const &, class TDesC8 const &, int, int)
	?AsTDeviceL@CUpnpDeviceLibraryElement@@QBEPAVTUpnpDevice@@XZ @ 226 NONAME ; class TUpnpDevice * CUpnpDeviceLibraryElement::AsTDeviceL(void) const
	?St@CUpnpSsdpMessage@@QAEAAVTDesC8@@XZ @ 227 NONAME ; class TDesC8 & CUpnpSsdpMessage::St(void)
	?AddInfoL@CUpnpDeviceLibraryElement@@QAEXPBVTUpnpAddLocalDevice@@ABVTDesC8@@@Z @ 228 NONAME ; void CUpnpDeviceLibraryElement::AddInfoL(class TUpnpAddLocalDevice const *, class TDesC8 const &)
	?NewSessionL@CUpnpSymbianServerBase@@MBEPAVCSession2@@ABVTVersion@@ABVRMessage2@@@Z @ 229 NONAME ; class CSession2 * CUpnpSymbianServerBase::NewSessionL(class TVersion const &, class RMessage2 const &) const
	?SetNameL@CUpnpHttpHeader@@QAEXABVTDesC8@@@Z @ 230 NONAME ; void CUpnpHttpHeader::SetNameL(class TDesC8 const &)
	?AppendStringL@UpnpString@@YAXAAVCBufFlat@@ABVTDesC8@@@Z @ 231 NONAME ; void UpnpString::AppendStringL(class CBufFlat &, class TDesC8 const &)
	?CompleteOneselfImmediate@CUpnpNotifyTimer@@QAEXXZ @ 232 NONAME ; void CUpnpNotifyTimer::CompleteOneselfImmediate(void)
	?Name@CUpnpHttpHeader@@QAEAAVTDesC8@@XZ @ 233 NONAME ; class TDesC8 & CUpnpHttpHeader::Name(void)
	?StringReplaceL@UpnpString@@YAPAVHBufC8@@ABVTDesC8@@00@Z @ 234 NONAME ; class HBufC8 * UpnpString::StringReplaceL(class TDesC8 const &, class TDesC8 const &, class TDesC8 const &)
	?UnFoldHeader@CUpnpHttpMessage@@IAEXAAPAVHBufC8@@@Z @ 235 NONAME ; void CUpnpHttpMessage::UnFoldHeader(class HBufC8 * &)
	?GetUpdate@CUpnpDeviceLibrary@@QAEXAAHAAPAVTUpnpDevice@@AAPAVTUpnpService@@00@Z @ 236 NONAME ; void CUpnpDeviceLibrary::GetUpdate(int &, class TUpnpDevice * &, class TUpnpService * &, int &, int &)
	?OutUri@CUpnpHttpMessage@@QAEABVTDesC8@@XZ @ 237 NONAME ; class TDesC8 const & CUpnpHttpMessage::OutUri(void)
	?BodyLength@CUpnpHttpMessage@@QBEHXZ @ 238 NONAME ; int CUpnpHttpMessage::BodyLength(void) const
	??1CUpnpSymbianServerBase@@UAE@XZ @ 239 NONAME ; CUpnpSymbianServerBase::~CUpnpSymbianServerBase(void)
	?UpnpResponseErrorL@RUpnpHttpMessageFactory@@SAPAVCUpnpHttpMessage@@ABVTInetAddr@@W4TUpnpErrorCode@@@Z @ 240 NONAME ; class CUpnpHttpMessage * RUpnpHttpMessageFactory::UpnpResponseErrorL(class TInetAddr const &, enum TUpnpErrorCode)
	?HttpResponseErrorL@RUpnpHttpMessageFactory@@SAPAVCUpnpHttpMessage@@ABVTInetAddr@@H@Z @ 241 NONAME ; class CUpnpHttpMessage * RUpnpHttpMessageFactory::HttpResponseErrorL(class TInetAddr const &, int)
	?DoCancel@CUpnpNotifyTimer@@UAEXXZ @ 242 NONAME ; void CUpnpNotifyTimer::DoCancel(void)
	?CanBeStopped@CUpnpSymbianServerBase@@EBEHXZ @ 243 NONAME ; int CUpnpSymbianServerBase::CanBeStopped(void) const
	?SetPendingRequest@CUpnpHttpMessage@@QAEXPAX@Z @ 244 NONAME ; void CUpnpHttpMessage::SetPendingRequest(void *)
	?CheckTagL@UpnpDomInterface@@YAHABVTXmlEngElement@@ABVTDesC8@@@Z @ 245 NONAME ; int UpnpDomInterface::CheckTagL(class TXmlEngElement const &, class TDesC8 const &)
	??1CUpnpSsdpMessage@@UAE@XZ @ 246 NONAME ; CUpnpSsdpMessage::~CUpnpSsdpMessage(void)
	?HttpHeadL@RUpnpHttpMessageFactory@@SAPAVCUpnpHttpMessage@@AAVTInetAddr@@ABVTDesC8@@@Z @ 247 NONAME ; class CUpnpHttpMessage * RUpnpHttpMessageFactory::HttpHeadL(class TInetAddr &, class TDesC8 const &)
	?SetRetryCounter@CUpnpHttpMessage@@QAEXH@Z @ 248 NONAME ; void CUpnpHttpMessage::SetRetryCounter(int)
	?SetMessageDateL@CUpnpHttpMessage@@QAEXABVTTime@@@Z @ 249 NONAME ; void CUpnpHttpMessage::SetMessageDateL(class TTime const &)
	?NewL@CUpnpHttpMessage@@SAPAV1@XZ @ 250 NONAME ; class CUpnpHttpMessage * CUpnpHttpMessage::NewL(void)
	?Length@CUpnpHttpMessage@@QAEHXZ @ 251 NONAME ; int CUpnpHttpMessage::Length(void)
	?AllocElementValueL@UpnpDomInterface@@YAPAVHBufC16@@ABVTXmlEngElement@@@Z @ 252 NONAME ; class HBufC16 * UpnpDomInterface::AllocElementValueL(class TXmlEngElement const &)
	?GetElementL@UpnpDomInterface@@YAHABVTXmlEngElement@@AAV2@ABVTDesC8@@22HH@Z @ 253 NONAME ; int UpnpDomInterface::GetElementL(class TXmlEngElement const &, class TXmlEngElement &, class TDesC8 const &, class TDesC8 const &, class TDesC8 const &, int, int)
	?CheckTagL@UpnpDomInterface@@YAHABVTXmlEngElement@@ABVTDesC8@@1@Z @ 254 NONAME ; int UpnpDomInterface::CheckTagL(class TXmlEngElement const &, class TDesC8 const &, class TDesC8 const &)
	?NewLC@CUpnpMSearchTimer@@SAPAV1@PAVMUpnpNotifyTimerObserver@@ABVTDesC8@@1@Z @ 255 NONAME ; class CUpnpMSearchTimer * CUpnpMSearchTimer::NewLC(class MUpnpNotifyTimerObserver *, class TDesC8 const &, class TDesC8 const &)
	?UpnpErrorL@CUpnpHttpMessage@@SAPAVHBufC8@@W4TUpnpErrorCode@@@Z @ 256 NONAME ; class HBufC8 * CUpnpHttpMessage::UpnpErrorL(enum TUpnpErrorCode)
	?SetValueL@CUpnpHttpHeader@@QAEXABVTDesC8@@@Z @ 257 NONAME ; void CUpnpHttpHeader::SetValueL(class TDesC8 const &)
	?AddValueToCsvL@UpnpString@@YAPAVHBufC8@@ABVTDesC8@@0@Z @ 258 NONAME ; class HBufC8 * UpnpString::AddValueToCsvL(class TDesC8 const &, class TDesC8 const &)
	?AddInfoL@CUpnpDeviceLibraryElement@@QAEHPAVCUpnpSsdpMessage@@AAH@Z @ 259 NONAME ; int CUpnpDeviceLibraryElement::AddInfoL(class CUpnpSsdpMessage *, int &)
	?GetElementValueL@UpnpDomInterface@@YA?AVTPtrC8@@ABVTXmlEngElement@@@Z @ 260 NONAME ; class TPtrC8 UpnpDomInterface::GetElementValueL(class TXmlEngElement const &)
	?AddInfoL@CUpnpDeviceLibraryElement@@QAEXPBVTUpnpAddLocalDevice@@ABVTDesC8@@ABVTInetAddr@@@Z @ 261 NONAME ; void CUpnpDeviceLibraryElement::AddInfoL(class TUpnpAddLocalDevice const *, class TDesC8 const &, class TInetAddr const &)

