EXPORTS
	??0CSenBaseAttribute@@IAE@XZ @ 1 NONAME ; CSenBaseAttribute::CSenBaseAttribute(void)
	??0CSenBaseElement@@IAE@XZ @ 2 NONAME ; CSenBaseElement::CSenBaseElement(void)
	??0CSenBaseFragment@@IAE@XZ @ 3 NONAME ; CSenBaseFragment::CSenBaseFragment(void)
	??0CSenDomFragment@@IAE@XZ @ 4 NONAME ; CSenDomFragment::CSenDomFragment(void)
	??0CSenXmlReader@@IAE@H@Z @ 5 NONAME ; CSenXmlReader::CSenXmlReader(int)
	??1CSenBaseAttribute@@UAE@XZ @ 6 NONAME ; CSenBaseAttribute::~CSenBaseAttribute(void)
	??1CSenBaseElement@@UAE@XZ @ 7 NONAME ; CSenBaseElement::~CSenBaseElement(void)
	??1CSenBaseFragment@@UAE@XZ @ 8 NONAME ; CSenBaseFragment::~CSenBaseFragment(void)
	??1CSenDomFragment@@UAE@XZ @ 9 NONAME ; CSenDomFragment::~CSenDomFragment(void)
	??1CSenNamespace@@UAE@XZ @ 10 NONAME ; CSenNamespace::~CSenNamespace(void)
	??1CSenXmlReader@@UAE@XZ @ 11 NONAME ; CSenXmlReader::~CSenXmlReader(void)
	?AddAttrL@CSenBaseElement@@UAEXABVTDesC8@@0@Z @ 12 NONAME ; void CSenBaseElement::AddAttrL(class TDesC8 const &, class TDesC8 const &)
	?AddAttributeL@CSenBaseElement@@IAEABVTDesC8@@PAVCSenBaseAttribute@@@Z @ 13 NONAME ; class TDesC8 const & CSenBaseElement::AddAttributeL(class CSenBaseAttribute *)
	?AddAttributeL@CSenBaseElement@@MAEABVTDesC8@@ABV2@00@Z @ 14 NONAME ; class TDesC8 const & CSenBaseElement::AddAttributeL(class TDesC8 const &, class TDesC8 const &, class TDesC8 const &)
	?AddAttributeL@CSenBaseElement@@MAEABVTDesC8@@ABV2@0@Z @ 15 NONAME ; class TDesC8 const & CSenBaseElement::AddAttributeL(class TDesC8 const &, class TDesC8 const &)
	?AddAttributesL@CSenBaseElement@@UAEXABV?$RArray@VRAttribute@Xml@@@@@Z @ 16 NONAME ; void CSenBaseElement::AddAttributesL(class RArray<class Xml::RAttribute> const &)
	?AddElementL@CSenBaseElement@@UAEAAVCSenElement@@AAV2@@Z @ 17 NONAME ; class CSenElement & CSenBaseElement::AddElementL(class CSenElement &)
	?AddElementL@CSenBaseElement@@UAEAAVCSenElement@@ABVTDesC8@@00@Z @ 18 NONAME ; class CSenElement & CSenBaseElement::AddElementL(class TDesC8 const &, class TDesC8 const &, class TDesC8 const &)
	?AddElementL@CSenBaseElement@@UAEAAVCSenElement@@ABVTDesC8@@0@Z @ 19 NONAME ; class CSenElement & CSenBaseElement::AddElementL(class TDesC8 const &, class TDesC8 const &)
	?AddElementL@CSenBaseElement@@UAEAAVCSenElement@@ABVTDesC8@@@Z @ 20 NONAME ; class CSenElement & CSenBaseElement::AddElementL(class TDesC8 const &)
	?AddNamespaceL@CSenBaseElement@@UAEPBVCSenNamespace@@AAV2@H@Z @ 21 NONAME ; class CSenNamespace const * CSenBaseElement::AddNamespaceL(class CSenNamespace &, int)
	?AddNamespaceL@CSenBaseElement@@UAEPBVCSenNamespace@@ABVTDesC8@@0@Z @ 22 NONAME ; class CSenNamespace const * CSenBaseElement::AddNamespaceL(class TDesC8 const &, class TDesC8 const &)
	?AllocAttrValueL@SenXmlUtils@@SAPAVHBufC8@@ABV?$RArray@VRAttribute@Xml@@@@ABVTDesC8@@@Z @ 23 NONAME ; class HBufC8 * SenXmlUtils::AllocAttrValueL(class RArray<class Xml::RAttribute> const &, class TDesC8 const &)
	?AllocContentBufL@CSenBaseElement@@MAEXXZ @ 24 NONAME ; void CSenBaseElement::AllocContentBufL(void)
	?AllocContentSaverL@CSenBaseFragment@@MAEXXZ @ 25 NONAME ; void CSenBaseFragment::AllocContentSaverL(void)
	?AsElement@CSenBaseElement@@UAEPAVMSenElement@@XZ @ 26 NONAME ; class MSenElement * CSenBaseElement::AsElement(void)
	?AsElement@CSenBaseFragment@@UAEAAVCSenElement@@XZ @ 27 NONAME ; class CSenElement & CSenBaseFragment::AsElement(void)
	?AsXmlL@CSenBaseElement@@UAEPAVHBufC8@@XZ @ 28 NONAME ; class HBufC8 * CSenBaseElement::AsXmlL(void)
	?AsXmlL@CSenBaseFragment@@UAEPAVHBufC8@@XZ @ 29 NONAME ; class HBufC8 * CSenBaseFragment::AsXmlL(void)
	?AsXmlUnicodeL@CSenBaseElement@@UAEPAVHBufC16@@XZ @ 30 NONAME ; class HBufC16 * CSenBaseElement::AsXmlUnicodeL(void)
	?AsXmlUnicodeL@CSenBaseFragment@@UAEPAVHBufC16@@XZ @ 31 NONAME ; class HBufC16 * CSenBaseFragment::AsXmlUnicodeL(void)
	?AttrValue@CSenBaseElement@@UAEPBVTDesC8@@ABV2@@Z @ 32 NONAME ; class TDesC8 const * CSenBaseElement::AttrValue(class TDesC8 const &)
	?AttrValue@SenXmlUtils@@SA?AVTPtrC8@@ABV?$RArray@VRAttribute@Xml@@@@ABVTDesC8@@@Z @ 33 NONAME ; class TPtrC8 SenXmlUtils::AttrValue(class RArray<class Xml::RAttribute> const &, class TDesC8 const &)
	?AttributesL@CSenBaseElement@@UAEAAV?$RPointerArray@VCSenBaseAttribute@@@@XZ @ 34 NONAME ; class RPointerArray<class CSenBaseAttribute> & CSenBaseElement::AttributesL(void)
	?BaseConstructL@CSenBaseAttribute@@IAEXABVTDesC8@@00@Z @ 35 NONAME ; void CSenBaseAttribute::BaseConstructL(class TDesC8 const &, class TDesC8 const &, class TDesC8 const &)
	?BaseConstructL@CSenBaseAttribute@@IAEXABVTDesC8@@0@Z @ 36 NONAME ; void CSenBaseAttribute::BaseConstructL(class TDesC8 const &, class TDesC8 const &)
	?BaseConstructL@CSenBaseElement@@IAEXABVTDesC8@@00@Z @ 37 NONAME ; void CSenBaseElement::BaseConstructL(class TDesC8 const &, class TDesC8 const &, class TDesC8 const &)
	?BaseConstructL@CSenBaseElement@@IAEXABVTDesC8@@00ABV?$RArray@VRAttribute@Xml@@@@@Z @ 38 NONAME ; void CSenBaseElement::BaseConstructL(class TDesC8 const &, class TDesC8 const &, class TDesC8 const &, class RArray<class Xml::RAttribute> const &)
	?BaseConstructL@CSenBaseElement@@IAEXABVTDesC8@@00ABV?$RArray@VRAttribute@Xml@@@@AAVCSenElement@@@Z @ 39 NONAME ; void CSenBaseElement::BaseConstructL(class TDesC8 const &, class TDesC8 const &, class TDesC8 const &, class RArray<class Xml::RAttribute> const &, class CSenElement &)
	?BaseConstructL@CSenBaseElement@@IAEXABVTDesC8@@0@Z @ 40 NONAME ; void CSenBaseElement::BaseConstructL(class TDesC8 const &, class TDesC8 const &)
	?BaseConstructL@CSenBaseElement@@IAEXABVTDesC8@@@Z @ 41 NONAME ; void CSenBaseElement::BaseConstructL(class TDesC8 const &)
	?BaseConstructL@CSenBaseFragment@@IAEXAAVCSenXmlReader@@@Z @ 42 NONAME ; void CSenBaseFragment::BaseConstructL(class CSenXmlReader &)
	?BaseConstructL@CSenBaseFragment@@IAEXABVCSenElement@@@Z @ 43 NONAME ; void CSenBaseFragment::BaseConstructL(class CSenElement const &)
	?BaseConstructL@CSenBaseFragment@@IAEXABVTDesC8@@00@Z @ 44 NONAME ; void CSenBaseFragment::BaseConstructL(class TDesC8 const &, class TDesC8 const &, class TDesC8 const &)
	?BaseConstructL@CSenBaseFragment@@IAEXABVTDesC8@@00ABV?$RArray@VRAttribute@Xml@@@@@Z @ 45 NONAME ; void CSenBaseFragment::BaseConstructL(class TDesC8 const &, class TDesC8 const &, class TDesC8 const &, class RArray<class Xml::RAttribute> const &)
	?BaseConstructL@CSenBaseFragment@@IAEXABVTDesC8@@00ABV?$RArray@VRAttribute@Xml@@@@AAVCSenElement@@@Z @ 46 NONAME ; void CSenBaseFragment::BaseConstructL(class TDesC8 const &, class TDesC8 const &, class TDesC8 const &, class RArray<class Xml::RAttribute> const &, class CSenElement &)
	?BaseConstructL@CSenBaseFragment@@IAEXABVTDesC8@@0@Z @ 47 NONAME ; void CSenBaseFragment::BaseConstructL(class TDesC8 const &, class TDesC8 const &)
	?BaseConstructL@CSenBaseFragment@@IAEXABVTDesC8@@@Z @ 48 NONAME ; void CSenBaseFragment::BaseConstructL(class TDesC8 const &)
	?BaseConstructL@CSenDomFragment@@IAEXAAVCSenXmlReader@@@Z @ 49 NONAME ; void CSenDomFragment::BaseConstructL(class CSenXmlReader &)
	?BaseConstructL@CSenDomFragment@@IAEXABVCSenElement@@@Z @ 50 NONAME ; void CSenDomFragment::BaseConstructL(class CSenElement const &)
	?BaseConstructL@CSenDomFragment@@IAEXABVTDesC8@@00@Z @ 51 NONAME ; void CSenDomFragment::BaseConstructL(class TDesC8 const &, class TDesC8 const &, class TDesC8 const &)
	?BaseConstructL@CSenDomFragment@@IAEXABVTDesC8@@00ABV?$RArray@VRAttribute@Xml@@@@@Z @ 52 NONAME ; void CSenDomFragment::BaseConstructL(class TDesC8 const &, class TDesC8 const &, class TDesC8 const &, class RArray<class Xml::RAttribute> const &)
	?BaseConstructL@CSenDomFragment@@IAEXABVTDesC8@@00ABV?$RArray@VRAttribute@Xml@@@@AAVCSenElement@@@Z @ 53 NONAME ; void CSenDomFragment::BaseConstructL(class TDesC8 const &, class TDesC8 const &, class TDesC8 const &, class RArray<class Xml::RAttribute> const &, class CSenElement &)
	?BaseConstructL@CSenDomFragment@@IAEXABVTDesC8@@0@Z @ 54 NONAME ; void CSenDomFragment::BaseConstructL(class TDesC8 const &, class TDesC8 const &)
	?BaseConstructL@CSenDomFragment@@IAEXABVTDesC8@@@Z @ 55 NONAME ; void CSenDomFragment::BaseConstructL(class TDesC8 const &)
	?BuildFrom@CSenBaseFragment@@UAEHABVTDesC8@@@Z @ 56 NONAME ; int CSenBaseFragment::BuildFrom(class TDesC8 const &)
	?BuildQNameL@SenXmlUtils@@SAXABVTDesC8@@0AAPAVHBufC8@@@Z @ 57 NONAME ; void SenXmlUtils::BuildQNameL(class TDesC8 const &, class TDesC8 const &, class HBufC8 * &)
	?Characters@CSenBaseFragment@@EAEHABVTDesC8@@HH@Z @ 58 NONAME ; int CSenBaseFragment::Characters(class TDesC8 const &, int, int)
	?CharactersL@CSenBaseFragment@@MAEXABVTDesC8@@HH@Z @ 59 NONAME ; void CSenBaseFragment::CharactersL(class TDesC8 const &, int, int)
	?CharactersL@CSenDomFragment@@MAEXABVTDesC8@@HH@Z @ 60 NONAME ; void CSenDomFragment::CharactersL(class TDesC8 const &, int, int)
	?Child@CSenBaseElement@@UAEPAVCSenElement@@H@Z @ 61 NONAME ; class CSenElement * CSenBaseElement::Child(int)
	?Compare@CSenNamespace@@QBEHABV1@@Z @ 62 NONAME ; int CSenNamespace::Compare(class CSenNamespace const &) const
	?Compare@CSenNamespace@@QBEHABVTDesC8@@0@Z @ 63 NONAME ; int CSenNamespace::Compare(class TDesC8 const &, class TDesC8 const &) const
	?ConsistsOfL@CSenBaseElement@@UAEHAAVMSenElement@@@Z @ 64 NONAME ; int CSenBaseElement::ConsistsOfL(class MSenElement &)
	?ConsistsOfL@CSenBaseFragment@@UAEHAAVMSenFragment@@@Z @ 65 NONAME ; int CSenBaseFragment::ConsistsOfL(class MSenFragment &)
	?Content@CSenBaseElement@@UBE?AVTPtrC8@@XZ @ 66 NONAME ; class TPtrC8 CSenBaseElement::Content(void) const
	?Content@CSenBaseFragment@@UAE?AVTPtrC8@@XZ @ 67 NONAME ; class TPtrC8 CSenBaseFragment::Content(void)
	?ContentOf@CSenBaseFragment@@IAE?AVTPtrC8@@ABVTDesC8@@@Z @ 68 NONAME ; class TPtrC8 CSenBaseFragment::ContentOf(class TDesC8 const &)
	?ContentUnicodeL@CSenBaseElement@@UBEPAVHBufC16@@XZ @ 69 NONAME ; class HBufC16 * CSenBaseElement::ContentUnicodeL(void) const
	?ContentWriteStreamL@CSenBaseElement@@UAEAAVRWriteStream@@XZ @ 70 NONAME ; class RWriteStream & CSenBaseElement::ContentWriteStreamL(void)
	?CopyFromL@CSenBaseElement@@UAEXAAVCSenElement@@@Z @ 71 NONAME ; void CSenBaseElement::CopyFromL(class CSenElement &)
	?CreateElementL@CSenBaseElement@@UAEPAVCSenElement@@ABVTDesC8@@0@Z @ 72 NONAME ; class CSenElement * CSenBaseElement::CreateElementL(class TDesC8 const &, class TDesC8 const &)
	?DecodeHttpCharactersL@SenXmlUtils@@SAHABVTDesC8@@AAPAVHBufC8@@@Z @ 73 NONAME ; int SenXmlUtils::DecodeHttpCharactersL(class TDesC8 const &, class HBufC8 * &)
	?DecodeHttpCharactersLC@SenXmlUtils@@SAPAVHBufC8@@ABVTDesC8@@@Z @ 74 NONAME ; class HBufC8 * SenXmlUtils::DecodeHttpCharactersLC(class TDesC8 const &)
	?DelegateParsingL@CSenBaseFragment@@UAEXAAVMSenFragment@@@Z @ 75 NONAME ; void CSenBaseFragment::DelegateParsingL(class MSenFragment &)
	?DelegateParsingL@CSenBaseFragment@@UAEXABVTDesC8@@00ABV?$RArray@VRAttribute@Xml@@@@@Z @ 76 NONAME ; void CSenBaseFragment::DelegateParsingL(class TDesC8 const &, class TDesC8 const &, class TDesC8 const &, class RArray<class Xml::RAttribute> const &)
	?DetachL@CSenBaseElement@@UAEPAVCSenElement@@XZ @ 77 NONAME ; class CSenElement * CSenBaseElement::DetachL(void)
	?DetachL@CSenBaseFragment@@UAEXXZ @ 78 NONAME ; void CSenBaseFragment::DetachL(void)
	?Element@CSenBaseElement@@UAEPAVCSenElement@@ABVTDesC8@@0@Z @ 79 NONAME ; class CSenElement * CSenBaseElement::Element(class TDesC8 const &, class TDesC8 const &)
	?Element@CSenBaseElement@@UAEPAVCSenElement@@ABVTDesC8@@@Z @ 80 NONAME ; class CSenElement * CSenBaseElement::Element(class TDesC8 const &)
	?ElementsL@CSenBaseElement@@UAEAAV?$RPointerArray@VCSenElement@@@@XZ @ 81 NONAME ; class RPointerArray<class CSenElement> & CSenBaseElement::ElementsL(void)
	?ElementsL@CSenBaseElement@@UAEHAAV?$RPointerArray@VCSenElement@@@@ABVTDesC8@@1@Z @ 82 NONAME ; int CSenBaseElement::ElementsL(class RPointerArray<class CSenElement> &, class TDesC8 const &, class TDesC8 const &)
	?ElementsL@CSenBaseElement@@UAEHAAV?$RPointerArray@VCSenElement@@@@ABVTDesC8@@@Z @ 83 NONAME ; int CSenBaseElement::ElementsL(class RPointerArray<class CSenElement> &, class TDesC8 const &)
	?EnabledParserFeature@CSenXmlReader@@UAEHXZ @ 84 NONAME ; int CSenXmlReader::EnabledParserFeature(void)
	?EncodeHttpCharactersL@SenXmlUtils@@SAHABVTDesC8@@AAPAVHBufC8@@@Z @ 85 NONAME ; int SenXmlUtils::EncodeHttpCharactersL(class TDesC8 const &, class HBufC8 * &)
	?EncodeHttpCharactersLC@SenXmlUtils@@SAPAVHBufC8@@ABVTDesC8@@@Z @ 86 NONAME ; class HBufC8 * SenXmlUtils::EncodeHttpCharactersLC(class TDesC8 const &)
	?EndDocument@CSenBaseFragment@@EAEHXZ @ 87 NONAME ; int CSenBaseFragment::EndDocument(void)
	?EndElement@CSenBaseFragment@@EAEHABVTDesC8@@00@Z @ 88 NONAME ; int CSenBaseFragment::EndElement(class TDesC8 const &, class TDesC8 const &, class TDesC8 const &)
	?EndElementL@CSenBaseFragment@@MAEXABVTDesC8@@00@Z @ 89 NONAME ; void CSenBaseFragment::EndElementL(class TDesC8 const &, class TDesC8 const &, class TDesC8 const &)
	?EndsWith@SenXmlUtils@@SAHABVTDesC8@@0@Z @ 90 NONAME ; int SenXmlUtils::EndsWith(class TDesC8 const &, class TDesC8 const &)
	?EnsureNamespace@CSenBaseFragment@@UAEXABVTDesC8@@@Z @ 91 NONAME ; void CSenBaseFragment::EnsureNamespace(class TDesC8 const &)
	?Error@CSenBaseFragment@@EAEHH@Z @ 92 NONAME ; int CSenBaseFragment::Error(int)
	?ExpandL@CSenDomFragment@@UAEXABVTDesC8@@00ABV?$RArray@VRAttribute@Xml@@@@@Z @ 93 NONAME ; void CSenDomFragment::ExpandL(class TDesC8 const &, class TDesC8 const &, class TDesC8 const &, class RArray<class Xml::RAttribute> const &)
	?ExtractElement@CSenBaseFragment@@UAEPAVCSenElement@@XZ @ 94 NONAME ; class CSenElement * CSenBaseFragment::ExtractElement(void)
	?FindAttr@CSenBaseElement@@MAEPAVCSenBaseAttribute@@ABVTDesC8@@@Z @ 95 NONAME ; class CSenBaseAttribute * CSenBaseElement::FindAttr(class TDesC8 const &)
	?HasContent@CSenBaseElement@@UBEHXZ @ 96 NONAME ; int CSenBaseElement::HasContent(void) const
	?IndexOfElement@CSenBaseElement@@MBEHABVTDesC8@@0@Z @ 97 NONAME ; int CSenBaseElement::IndexOfElement(class TDesC8 const &, class TDesC8 const &) const
	?InsertElementL@CSenBaseElement@@UAEAAVCSenElement@@AAV2@ABV2@@Z @ 98 NONAME ; class CSenElement & CSenBaseElement::InsertElementL(class CSenElement &, class CSenElement const &)
	?InsertL@CSenNamespace@@QAEXAAVRBufWriteStream@@@Z @ 99 NONAME ; void CSenNamespace::InsertL(class RBufWriteStream &)
	?LeaveOnXmlEscapesL@SenXmlUtils@@SAXABVTDesC8@@@Z @ 100 NONAME ; void SenXmlUtils::LeaveOnXmlEscapesL(class TDesC8 const &)
	?LocalName@CSenBaseElement@@UBEABVTDesC8@@XZ @ 101 NONAME ; class TDesC8 const & CSenBaseElement::LocalName(void) const
	?LocalName@CSenBaseFragment@@UBEABVTDesC8@@XZ @ 102 NONAME ; class TDesC8 const & CSenBaseFragment::LocalName(void) const
	?LocalName@SenXmlUtils@@SA?AVTPtrC8@@ABVTDesC8@@@Z @ 103 NONAME ; class TPtrC8 SenXmlUtils::LocalName(class TDesC8 const &)
	?MatchesL@CSenNamespace@@QBEHABV1@@Z @ 104 NONAME ; int CSenNamespace::MatchesL(class CSenNamespace const &) const
	?Namespace@CSenBaseElement@@UAEPBVCSenNamespace@@ABVTDesC8@@0@Z @ 105 NONAME ; class CSenNamespace const * CSenBaseElement::Namespace(class TDesC8 const &, class TDesC8 const &)
	?Namespace@CSenBaseElement@@UAEPBVCSenNamespace@@ABVTDesC8@@@Z @ 106 NONAME ; class CSenNamespace const * CSenBaseElement::Namespace(class TDesC8 const &)
	?Namespace@CSenBaseElement@@UAEPBVCSenNamespace@@ABVTDesC8@@H@Z @ 107 NONAME ; class CSenNamespace const * CSenBaseElement::Namespace(class TDesC8 const &, int)
	?Namespace@CSenBaseElement@@UAEPBVCSenNamespace@@XZ @ 108 NONAME ; class CSenNamespace const * CSenBaseElement::Namespace(void)
	?Namespace@CSenBaseFragment@@UAEPAVCSenNamespace@@ABVTDesC8@@@Z @ 109 NONAME ; class CSenNamespace * CSenBaseFragment::Namespace(class TDesC8 const &)
	?NamespaceURI@CSenBaseElement@@UBEABVTDesC8@@XZ @ 110 NONAME ; class TDesC8 const & CSenBaseElement::NamespaceURI(void) const
	?NamespacesL@CSenBaseElement@@UAEAAV?$RPointerArray@VCSenNamespace@@@@XZ @ 111 NONAME ; class RPointerArray<class CSenNamespace> & CSenBaseElement::NamespacesL(void)
	?NewL@CSenBaseAttribute@@SAPAV1@ABVTDesC8@@00@Z @ 112 NONAME ; class CSenBaseAttribute * CSenBaseAttribute::NewL(class TDesC8 const &, class TDesC8 const &, class TDesC8 const &)
	?NewL@CSenBaseAttribute@@SAPAV1@ABVTDesC8@@0@Z @ 113 NONAME ; class CSenBaseAttribute * CSenBaseAttribute::NewL(class TDesC8 const &, class TDesC8 const &)
	?NewL@CSenBaseElement@@SAPAV1@ABVTDesC8@@00@Z @ 114 NONAME ; class CSenBaseElement * CSenBaseElement::NewL(class TDesC8 const &, class TDesC8 const &, class TDesC8 const &)
	?NewL@CSenBaseElement@@SAPAV1@ABVTDesC8@@00ABV?$RArray@VRAttribute@Xml@@@@@Z @ 115 NONAME ; class CSenBaseElement * CSenBaseElement::NewL(class TDesC8 const &, class TDesC8 const &, class TDesC8 const &, class RArray<class Xml::RAttribute> const &)
	?NewL@CSenBaseElement@@SAPAV1@ABVTDesC8@@00ABV?$RArray@VRAttribute@Xml@@@@AAVCSenElement@@@Z @ 116 NONAME ; class CSenBaseElement * CSenBaseElement::NewL(class TDesC8 const &, class TDesC8 const &, class TDesC8 const &, class RArray<class Xml::RAttribute> const &, class CSenElement &)
	?NewL@CSenBaseElement@@SAPAV1@ABVTDesC8@@0@Z @ 117 NONAME ; class CSenBaseElement * CSenBaseElement::NewL(class TDesC8 const &, class TDesC8 const &)
	?NewL@CSenBaseElement@@SAPAV1@ABVTDesC8@@@Z @ 118 NONAME ; class CSenBaseElement * CSenBaseElement::NewL(class TDesC8 const &)
	?NewL@CSenBaseFragment@@SAPAV1@ABVCSenElement@@@Z @ 119 NONAME ; class CSenBaseFragment * CSenBaseFragment::NewL(class CSenElement const &)
	?NewL@CSenBaseFragment@@SAPAV1@ABVTDesC8@@00@Z @ 120 NONAME ; class CSenBaseFragment * CSenBaseFragment::NewL(class TDesC8 const &, class TDesC8 const &, class TDesC8 const &)
	?NewL@CSenBaseFragment@@SAPAV1@ABVTDesC8@@00ABV?$RArray@VRAttribute@Xml@@@@@Z @ 121 NONAME ; class CSenBaseFragment * CSenBaseFragment::NewL(class TDesC8 const &, class TDesC8 const &, class TDesC8 const &, class RArray<class Xml::RAttribute> const &)
	?NewL@CSenBaseFragment@@SAPAV1@ABVTDesC8@@00ABV?$RArray@VRAttribute@Xml@@@@AAVCSenElement@@@Z @ 122 NONAME ; class CSenBaseFragment * CSenBaseFragment::NewL(class TDesC8 const &, class TDesC8 const &, class TDesC8 const &, class RArray<class Xml::RAttribute> const &, class CSenElement &)
	?NewL@CSenBaseFragment@@SAPAV1@ABVTDesC8@@0@Z @ 123 NONAME ; class CSenBaseFragment * CSenBaseFragment::NewL(class TDesC8 const &, class TDesC8 const &)
	?NewL@CSenBaseFragment@@SAPAV1@ABVTDesC8@@@Z @ 124 NONAME ; class CSenBaseFragment * CSenBaseFragment::NewL(class TDesC8 const &)
	?NewL@CSenDomFragment@@SAPAV1@ABVCSenElement@@@Z @ 125 NONAME ; class CSenDomFragment * CSenDomFragment::NewL(class CSenElement const &)
	?NewL@CSenDomFragment@@SAPAV1@ABVTDesC8@@00@Z @ 126 NONAME ; class CSenDomFragment * CSenDomFragment::NewL(class TDesC8 const &, class TDesC8 const &, class TDesC8 const &)
	?NewL@CSenDomFragment@@SAPAV1@ABVTDesC8@@00ABV?$RArray@VRAttribute@Xml@@@@@Z @ 127 NONAME ; class CSenDomFragment * CSenDomFragment::NewL(class TDesC8 const &, class TDesC8 const &, class TDesC8 const &, class RArray<class Xml::RAttribute> const &)
	?NewL@CSenDomFragment@@SAPAV1@ABVTDesC8@@00ABV?$RArray@VRAttribute@Xml@@@@AAVCSenElement@@@Z @ 128 NONAME ; class CSenDomFragment * CSenDomFragment::NewL(class TDesC8 const &, class TDesC8 const &, class TDesC8 const &, class RArray<class Xml::RAttribute> const &, class CSenElement &)
	?NewL@CSenDomFragment@@SAPAV1@ABVTDesC8@@0@Z @ 129 NONAME ; class CSenDomFragment * CSenDomFragment::NewL(class TDesC8 const &, class TDesC8 const &)
	?NewL@CSenDomFragment@@SAPAV1@ABVTDesC8@@@Z @ 130 NONAME ; class CSenDomFragment * CSenDomFragment::NewL(class TDesC8 const &)
	?NewL@CSenDomFragment@@SAPAV1@XZ @ 131 NONAME ; class CSenDomFragment * CSenDomFragment::NewL(void)
	?NewL@CSenNamespace@@SAPAV1@ABVTDesC8@@0@Z @ 132 NONAME ; class CSenNamespace * CSenNamespace::NewL(class TDesC8 const &, class TDesC8 const &)
	?NewL@CSenNamespace@@SAPAV1@ABVTDesC8@@@Z @ 133 NONAME ; class CSenNamespace * CSenNamespace::NewL(class TDesC8 const &)
	?NewL@CSenXmlReader@@SAPAV1@H@Z @ 134 NONAME ; class CSenXmlReader * CSenXmlReader::NewL(int)
	?NewL@CSenXmlReader@@SAPAV1@XZ @ 135 NONAME ; class CSenXmlReader * CSenXmlReader::NewL(void)
	?NewLC@CSenNamespace@@SAPAV1@ABVTDesC8@@0@Z @ 136 NONAME ; class CSenNamespace * CSenNamespace::NewLC(class TDesC8 const &, class TDesC8 const &)
	?NewLC@CSenNamespace@@SAPAV1@ABVTDesC8@@@Z @ 137 NONAME ; class CSenNamespace * CSenNamespace::NewLC(class TDesC8 const &)
	?NewLC@CSenXmlReader@@SAPAV1@H@Z @ 138 NONAME ; class CSenXmlReader * CSenXmlReader::NewLC(int)
	?NewLC@CSenXmlReader@@SAPAV1@XZ @ 139 NONAME ; class CSenXmlReader * CSenXmlReader::NewLC(void)
	?NsPrefix@CSenBaseElement@@UBEABVTDesC8@@XZ @ 140 NONAME ; class TDesC8 const & CSenBaseElement::NsPrefix(void) const
	?NsPrefix@CSenBaseFragment@@UBEABVTDesC8@@XZ @ 141 NONAME ; class TDesC8 const & CSenBaseFragment::NsPrefix(void) const
	?NsPrefix@SenXmlUtils@@SA?AVTPtrC8@@ABVTDesC8@@@Z @ 142 NONAME ; class TPtrC8 SenXmlUtils::NsPrefix(class TDesC8 const &)
	?NsUri@CSenBaseFragment@@UBEABVTDesC8@@XZ @ 143 NONAME ; class TDesC8 const & CSenBaseFragment::NsUri(void) const
	?Parent@CSenBaseElement@@UAEPAVCSenElement@@XZ @ 144 NONAME ; class CSenElement * CSenBaseElement::Parent(void)
	?ParseL@CSenBaseFragment@@UAEXABVTDesC8@@@Z @ 145 NONAME ; void CSenBaseFragment::ParseL(class TDesC8 const &)
	?ParseL@CSenXmlReader@@QAEXAAVRFs@@ABVTDesC16@@@Z @ 146 NONAME ; void CSenXmlReader::ParseL(class RFs &, class TDesC16 const &)
	?ParseL@CSenXmlReader@@QAEXABVTDesC8@@@Z @ 147 NONAME ; void CSenXmlReader::ParseL(class TDesC8 const &)
	?ParseWithL@CSenBaseFragment@@UAEXAAVCSenXmlReader@@@Z @ 148 NONAME ; void CSenBaseFragment::ParseWithL(class CSenXmlReader &)
	?ParseWithL@CSenDomFragment@@UAEXAAVCSenXmlReader@@@Z @ 149 NONAME ; void CSenDomFragment::ParseWithL(class CSenXmlReader &)
	?ParserFeature@CSenXmlReader@@UAEHXZ @ 150 NONAME ; int CSenXmlReader::ParserFeature(void)
	?Prefix@CSenNamespace@@QBEABVTDesC8@@XZ @ 151 NONAME ; class TDesC8 const & CSenNamespace::Prefix(void) const
	?Reader@CSenBaseFragment@@UAEPAVCSenXmlReader@@XZ @ 152 NONAME ; class CSenXmlReader * CSenBaseFragment::Reader(void)
	?RemoveElement@CSenBaseElement@@UAEPAVCSenElement@@AAV2@@Z @ 153 NONAME ; class CSenElement * CSenBaseElement::RemoveElement(class CSenElement &)
	?RemoveElement@CSenBaseElement@@UAEPAVCSenElement@@ABVTDesC8@@0@Z @ 154 NONAME ; class CSenElement * CSenBaseElement::RemoveElement(class TDesC8 const &, class TDesC8 const &)
	?RemoveElement@CSenBaseElement@@UAEPAVCSenElement@@ABVTDesC8@@@Z @ 155 NONAME ; class CSenElement * CSenBaseElement::RemoveElement(class TDesC8 const &)
	?ReplaceElementL@CSenBaseElement@@UAEPAVCSenElement@@AAV2@@Z @ 156 NONAME ; class CSenElement * CSenBaseElement::ReplaceElementL(class CSenElement &)
	?ResetContentL@CSenBaseFragment@@UAEXXZ @ 157 NONAME ; void CSenBaseFragment::ResetContentL(void)
	?ResumeParsingFromL@CSenBaseFragment@@UAEXABVTDesC8@@00@Z @ 158 NONAME ; void CSenBaseFragment::ResumeParsingFromL(class TDesC8 const &, class TDesC8 const &, class TDesC8 const &)
	?ResumeParsingFromL@CSenDomFragment@@UAEXABVTDesC8@@00@Z @ 159 NONAME ; void CSenDomFragment::ResumeParsingFromL(class TDesC8 const &, class TDesC8 const &, class TDesC8 const &)
	?Root@CSenBaseElement@@UAEAAVMSenElement@@XZ @ 160 NONAME ; class MSenElement & CSenBaseElement::Root(void)
	?SaveNamespacesL@CSenBaseFragment@@UAEXABV?$RArray@VRAttribute@Xml@@@@H@Z @ 161 NONAME ; void CSenBaseFragment::SaveNamespacesL(class RArray<class Xml::RAttribute> const &, int)
	?Set@CSenBaseElement@@UAEXABVTDesC8@@00@Z @ 162 NONAME ; void CSenBaseElement::Set(class TDesC8 const &, class TDesC8 const &, class TDesC8 const &)
	?SetAttributesL@CSenBaseElement@@UAEXABV?$RArray@VRAttribute@Xml@@@@@Z @ 163 NONAME ; void CSenBaseElement::SetAttributesL(class RArray<class Xml::RAttribute> const &)
	?SetAttributesL@CSenBaseFragment@@UAEXABV?$RArray@VRAttribute@Xml@@@@@Z @ 164 NONAME ; void CSenBaseFragment::SetAttributesL(class RArray<class Xml::RAttribute> const &)
	?SetAttributesL@CSenDomFragment@@UAEXABV?$RArray@VRAttribute@Xml@@@@@Z @ 165 NONAME ; void CSenDomFragment::SetAttributesL(class RArray<class Xml::RAttribute> const &)
	?SetContentHandler@CSenXmlReader@@UAEXAAVMSenContentHandlerClient@@@Z @ 166 NONAME ; void CSenXmlReader::SetContentHandler(class MSenContentHandlerClient &)
	?SetContentL@CSenBaseElement@@UAE?AVTPtrC8@@ABVTDesC8@@@Z @ 167 NONAME ; class TPtrC8 CSenBaseElement::SetContentL(class TDesC8 const &)
	?SetContentOfL@CSenBaseFragment@@IAEAAVMSenElement@@ABVTDesC8@@0@Z @ 168 NONAME ; class MSenElement & CSenBaseFragment::SetContentOfL(class TDesC8 const &, class TDesC8 const &)
	?SetNamespaceL@CSenBaseElement@@UAEXABVTDesC8@@0@Z @ 169 NONAME ; void CSenBaseElement::SetNamespaceL(class TDesC8 const &, class TDesC8 const &)
	?SetNamespaceL@CSenBaseElement@@UAEXABVTDesC8@@@Z @ 170 NONAME ; void CSenBaseElement::SetNamespaceL(class TDesC8 const &)
	?SetOwner@CSenBaseFragment@@UAEXAAVMSenFragment@@@Z @ 171 NONAME ; void CSenBaseFragment::SetOwner(class MSenFragment &)
	?SetParent@CSenBaseElement@@UAEPAVCSenElement@@PAV2@@Z @ 172 NONAME ; class CSenElement * CSenBaseElement::SetParent(class CSenElement *)
	?SetPrefixL@CSenBaseElement@@UAEXABVTDesC8@@@Z @ 173 NONAME ; void CSenBaseElement::SetPrefixL(class TDesC8 const &)
	?SetPrefixL@CSenNamespace@@QAEXABVTDesC8@@@Z @ 174 NONAME ; void CSenNamespace::SetPrefixL(class TDesC8 const &)
	?SetReader@CSenBaseFragment@@UAEXAAVCSenXmlReader@@@Z @ 175 NONAME ; void CSenBaseFragment::SetReader(class CSenXmlReader &)
	?SetUriL@CSenNamespace@@QAEXABVTDesC8@@@Z @ 176 NONAME ; void CSenNamespace::SetUriL(class TDesC8 const &)
	?StartDocument@CSenBaseFragment@@EAEHXZ @ 177 NONAME ; int CSenBaseFragment::StartDocument(void)
	?StartElement@CSenBaseFragment@@EAEHABVTDesC8@@00ABV?$RArray@VRAttribute@Xml@@@@@Z @ 178 NONAME ; int CSenBaseFragment::StartElement(class TDesC8 const &, class TDesC8 const &, class TDesC8 const &, class RArray<class Xml::RAttribute> const &)
	?StartElementL@CSenBaseFragment@@MAEXABVTDesC8@@00ABV?$RArray@VRAttribute@Xml@@@@@Z @ 179 NONAME ; void CSenBaseFragment::StartElementL(class TDesC8 const &, class TDesC8 const &, class TDesC8 const &, class RArray<class Xml::RAttribute> const &)
	?StartElementL@CSenDomFragment@@MAEXABVTDesC8@@00ABV?$RArray@VRAttribute@Xml@@@@@Z @ 180 NONAME ; void CSenDomFragment::StartElementL(class TDesC8 const &, class TDesC8 const &, class TDesC8 const &, class RArray<class Xml::RAttribute> const &)
	?StartEntity@CSenBaseFragment@@IAEHAAVTDesC8@@@Z @ 181 NONAME ; int CSenBaseFragment::StartEntity(class TDesC8 &)
	?StartsWith@SenXmlUtils@@SAHABVTDesC8@@0@Z @ 182 NONAME ; int SenXmlUtils::StartsWith(class TDesC8 const &, class TDesC8 const &)
	?ToUnicodeLC@SenXmlUtils@@SAPAVHBufC16@@ABVTDesC8@@@Z @ 183 NONAME ; class HBufC16 * SenXmlUtils::ToUnicodeLC(class TDesC8 const &)
	?ToUtf8LC@SenXmlUtils@@SAPAVHBufC8@@ABVTDesC16@@@Z @ 184 NONAME ; class HBufC8 * SenXmlUtils::ToUtf8LC(class TDesC16 const &)
	?URI@CSenNamespace@@QBEABVTDesC8@@XZ @ 185 NONAME ; class TDesC8 const & CSenNamespace::URI(void) const
	?WriteAsXMLToL@CSenBaseElement@@UAEXAAVRWriteStream@@@Z @ 186 NONAME ; void CSenBaseElement::WriteAsXMLToL(class RWriteStream &)
	?WriteAsXMLToL@CSenBaseFragment@@UAEXAAVRWriteStream@@@Z @ 187 NONAME ; void CSenBaseFragment::WriteAsXMLToL(class RWriteStream &)
	?WriteAttrToL@CSenBaseElement@@MAEXAAVRWriteStream@@ABVTDesC8@@1@Z @ 188 NONAME ; void CSenBaseElement::WriteAttrToL(class RWriteStream &, class TDesC8 const &, class TDesC8 const &)
	?WriteAttrsToL@CSenBaseElement@@MAEXAAVRWriteStream@@@Z @ 189 NONAME ; void CSenBaseElement::WriteAttrsToL(class RWriteStream &)
	?WriteContentToL@CSenBaseElement@@MAEXAAVRWriteStream@@@Z @ 190 NONAME ; void CSenBaseElement::WriteContentToL(class RWriteStream &)
	?WriteElementsToL@CSenBaseElement@@MAEXAAVRWriteStream@@@Z @ 191 NONAME ; void CSenBaseElement::WriteElementsToL(class RWriteStream &)
	?WriteEndElementL@CSenBaseFragment@@UAEXABVTDesC8@@00@Z @ 192 NONAME ; void CSenBaseFragment::WriteEndElementL(class TDesC8 const &, class TDesC8 const &, class TDesC8 const &)
	?WriteEndElementL@CSenDomFragment@@MAEXABVTDesC8@@00@Z @ 193 NONAME ; void CSenDomFragment::WriteEndElementL(class TDesC8 const &, class TDesC8 const &, class TDesC8 const &)
	?WriteNamespacesToL@CSenBaseElement@@UAEXAAVRWriteStream@@@Z @ 194 NONAME ; void CSenBaseElement::WriteNamespacesToL(class RWriteStream &)
	?WriteStartElementL@CSenBaseFragment@@UAEXABVTDesC8@@00ABV?$RArray@VRAttribute@Xml@@@@@Z @ 195 NONAME ; void CSenBaseFragment::WriteStartElementL(class TDesC8 const &, class TDesC8 const &, class TDesC8 const &, class RArray<class Xml::RAttribute> const &)
	?WriteStartElementL@CSenDomFragment@@MAEXABVTDesC8@@00ABV?$RArray@VRAttribute@Xml@@@@@Z @ 196 NONAME ; void CSenDomFragment::WriteStartElementL(class TDesC8 const &, class TDesC8 const &, class TDesC8 const &, class RArray<class Xml::RAttribute> const &)
	?WriteToBufL@CSenBaseElement@@MAE?AVTPtrC8@@AAVCBufBase@@@Z @ 197 NONAME ; class TPtrC8 CSenBaseElement::WriteToBufL(class CBufBase &)
	?NewL@CSenXmlReader@@SAPAV1@ABVTDesC8@@@Z @ 198 NONAME ; class CSenXmlReader * CSenXmlReader::NewL(class TDesC8 const &)
	?NewL@CSenXmlReader@@SAPAV1@ABVTDesC8@@H@Z @ 199 NONAME ; class CSenXmlReader * CSenXmlReader::NewL(class TDesC8 const &, int)
	?NewLC@CSenXmlReader@@SAPAV1@ABVTDesC8@@@Z @ 200 NONAME ; class CSenXmlReader * CSenXmlReader::NewLC(class TDesC8 const &)
	?NewLC@CSenXmlReader@@SAPAV1@ABVTDesC8@@H@Z @ 201 NONAME ; class CSenXmlReader * CSenXmlReader::NewLC(class TDesC8 const &, int)
	??0CSenXmlElement@@IAE@XZ @ 202 NONAME ; CSenXmlElement::CSenXmlElement(void)
	??1CSenXmlElement@@UAE@XZ @ 203 NONAME ; CSenXmlElement::~CSenXmlElement(void)
	?AddAttrL@CSenXmlElement@@UAEXABVTDesC8@@0@Z @ 204 NONAME ; void CSenXmlElement::AddAttrL(class TDesC8 const &, class TDesC8 const &)
	?AddAttributeL@CSenXmlElement@@IAEABVTDesC8@@PAVCSenBaseAttribute@@@Z @ 205 NONAME ; class TDesC8 const & CSenXmlElement::AddAttributeL(class CSenBaseAttribute *)
	?AddAttributeL@CSenXmlElement@@MAEABVTDesC8@@ABV2@00@Z @ 206 NONAME ; class TDesC8 const & CSenXmlElement::AddAttributeL(class TDesC8 const &, class TDesC8 const &, class TDesC8 const &)
	?AddAttributeL@CSenXmlElement@@MAEABVTDesC8@@ABV2@0@Z @ 207 NONAME ; class TDesC8 const & CSenXmlElement::AddAttributeL(class TDesC8 const &, class TDesC8 const &)
	?AddAttributesL@CSenXmlElement@@UAEXABV?$RArray@VRAttribute@Xml@@@@@Z @ 208 NONAME ; void CSenXmlElement::AddAttributesL(class RArray<class Xml::RAttribute> const &)
	?AddElementL@CSenXmlElement@@UAEAAVCSenElement@@AAV2@@Z @ 209 NONAME ; class CSenElement & CSenXmlElement::AddElementL(class CSenElement &)
	?AddElementL@CSenXmlElement@@UAEAAVCSenElement@@ABVTDesC8@@00@Z @ 210 NONAME ; class CSenElement & CSenXmlElement::AddElementL(class TDesC8 const &, class TDesC8 const &, class TDesC8 const &)
	?AddElementL@CSenXmlElement@@UAEAAVCSenElement@@ABVTDesC8@@0@Z @ 211 NONAME ; class CSenElement & CSenXmlElement::AddElementL(class TDesC8 const &, class TDesC8 const &)
	?AddElementL@CSenXmlElement@@UAEAAVCSenElement@@ABVTDesC8@@@Z @ 212 NONAME ; class CSenElement & CSenXmlElement::AddElementL(class TDesC8 const &)
	?AddNamespaceL@CSenXmlElement@@UAEPBVCSenNamespace@@AAV2@H@Z @ 213 NONAME ; class CSenNamespace const * CSenXmlElement::AddNamespaceL(class CSenNamespace &, int)
	?AddNamespaceL@CSenXmlElement@@UAEPBVCSenNamespace@@ABVTDesC8@@0@Z @ 214 NONAME ; class CSenNamespace const * CSenXmlElement::AddNamespaceL(class TDesC8 const &, class TDesC8 const &)
	?AllocContentBufL@CSenXmlElement@@MAEXXZ @ 215 NONAME ; void CSenXmlElement::AllocContentBufL(void)
	?AsElement@CSenXmlElement@@UAEPAVMSenElement@@XZ @ 216 NONAME ; class MSenElement * CSenXmlElement::AsElement(void)
	?AsXmlL@CSenXmlElement@@UAEPAVHBufC8@@XZ @ 217 NONAME ; class HBufC8 * CSenXmlElement::AsXmlL(void)
	?AsXmlUnicodeL@CSenXmlElement@@UAEPAVHBufC16@@XZ @ 218 NONAME ; class HBufC16 * CSenXmlElement::AsXmlUnicodeL(void)
	?AttrValue@CSenXmlElement@@UAEPBVTDesC8@@ABV2@@Z @ 219 NONAME ; class TDesC8 const * CSenXmlElement::AttrValue(class TDesC8 const &)
	?AttributesL@CSenXmlElement@@UAEAAV?$RPointerArray@VCSenBaseAttribute@@@@XZ @ 220 NONAME ; class RPointerArray<class CSenBaseAttribute> & CSenXmlElement::AttributesL(void)
	?BaseConstructL@CSenXmlElement@@IAEXABVTDesC8@@00@Z @ 221 NONAME ; void CSenXmlElement::BaseConstructL(class TDesC8 const &, class TDesC8 const &, class TDesC8 const &)
	?BaseConstructL@CSenXmlElement@@IAEXABVTDesC8@@00ABV?$RArray@VRAttribute@Xml@@@@@Z @ 222 NONAME ; void CSenXmlElement::BaseConstructL(class TDesC8 const &, class TDesC8 const &, class TDesC8 const &, class RArray<class Xml::RAttribute> const &)
	?BaseConstructL@CSenXmlElement@@IAEXABVTDesC8@@00ABV?$RArray@VRAttribute@Xml@@@@AAVCSenElement@@@Z @ 223 NONAME ; void CSenXmlElement::BaseConstructL(class TDesC8 const &, class TDesC8 const &, class TDesC8 const &, class RArray<class Xml::RAttribute> const &, class CSenElement &)
	?BaseConstructL@CSenXmlElement@@IAEXABVTDesC8@@0@Z @ 224 NONAME ; void CSenXmlElement::BaseConstructL(class TDesC8 const &, class TDesC8 const &)
	?BaseConstructL@CSenXmlElement@@IAEXABVTDesC8@@@Z @ 225 NONAME ; void CSenXmlElement::BaseConstructL(class TDesC8 const &)
	?Child@CSenXmlElement@@UAEPAVCSenElement@@H@Z @ 226 NONAME ; class CSenElement * CSenXmlElement::Child(int)
	?ConsistsOfL@CSenXmlElement@@UAEHAAVMSenElement@@@Z @ 227 NONAME ; int CSenXmlElement::ConsistsOfL(class MSenElement &)
	?Content@CSenXmlElement@@UBE?AVTPtrC8@@XZ @ 228 NONAME ; class TPtrC8 CSenXmlElement::Content(void) const
	?ContentUnicodeL@CSenXmlElement@@UBEPAVHBufC16@@XZ @ 229 NONAME ; class HBufC16 * CSenXmlElement::ContentUnicodeL(void) const
	?ContentWriteStreamL@CSenXmlElement@@UAEAAVRWriteStream@@XZ @ 230 NONAME ; class RWriteStream & CSenXmlElement::ContentWriteStreamL(void)
	?CopyFromL@CSenXmlElement@@UAEXAAVCSenElement@@@Z @ 231 NONAME ; void CSenXmlElement::CopyFromL(class CSenElement &)
	?CreateElementL@CSenXmlElement@@UAEPAVCSenElement@@ABVTDesC8@@0@Z @ 232 NONAME ; class CSenElement * CSenXmlElement::CreateElementL(class TDesC8 const &, class TDesC8 const &)
	?DetachL@CSenXmlElement@@UAEPAVCSenElement@@XZ @ 233 NONAME ; class CSenElement * CSenXmlElement::DetachL(void)
	?Element@CSenXmlElement@@UAEPAVCSenElement@@ABVTDesC8@@0@Z @ 234 NONAME ; class CSenElement * CSenXmlElement::Element(class TDesC8 const &, class TDesC8 const &)
	?Element@CSenXmlElement@@UAEPAVCSenElement@@ABVTDesC8@@@Z @ 235 NONAME ; class CSenElement * CSenXmlElement::Element(class TDesC8 const &)
	?ElementsL@CSenXmlElement@@UAEAAV?$RPointerArray@VCSenElement@@@@XZ @ 236 NONAME ; class RPointerArray<class CSenElement> & CSenXmlElement::ElementsL(void)
	?ElementsL@CSenXmlElement@@UAEHAAV?$RPointerArray@VCSenElement@@@@ABVTDesC8@@1@Z @ 237 NONAME ; int CSenXmlElement::ElementsL(class RPointerArray<class CSenElement> &, class TDesC8 const &, class TDesC8 const &)
	?ElementsL@CSenXmlElement@@UAEHAAV?$RPointerArray@VCSenElement@@@@ABVTDesC8@@@Z @ 238 NONAME ; int CSenXmlElement::ElementsL(class RPointerArray<class CSenElement> &, class TDesC8 const &)
	?FindAttr@CSenXmlElement@@MAEPAVCSenBaseAttribute@@ABVTDesC8@@@Z @ 239 NONAME ; class CSenBaseAttribute * CSenXmlElement::FindAttr(class TDesC8 const &)
	?HasContent@CSenXmlElement@@UBEHXZ @ 240 NONAME ; int CSenXmlElement::HasContent(void) const
	?IndexOfElement@CSenXmlElement@@MBEHABVTDesC8@@0@Z @ 241 NONAME ; int CSenXmlElement::IndexOfElement(class TDesC8 const &, class TDesC8 const &) const
	?InsertElementL@CSenXmlElement@@UAEAAVCSenElement@@AAV2@ABV2@@Z @ 242 NONAME ; class CSenElement & CSenXmlElement::InsertElementL(class CSenElement &, class CSenElement const &)
	?LocalName@CSenXmlElement@@UBEABVTDesC8@@XZ @ 243 NONAME ; class TDesC8 const & CSenXmlElement::LocalName(void) const
	?Namespace@CSenXmlElement@@UAEPBVCSenNamespace@@ABVTDesC8@@0@Z @ 244 NONAME ; class CSenNamespace const * CSenXmlElement::Namespace(class TDesC8 const &, class TDesC8 const &)
	?Namespace@CSenXmlElement@@UAEPBVCSenNamespace@@ABVTDesC8@@@Z @ 245 NONAME ; class CSenNamespace const * CSenXmlElement::Namespace(class TDesC8 const &)
	?Namespace@CSenXmlElement@@UAEPBVCSenNamespace@@ABVTDesC8@@H@Z @ 246 NONAME ; class CSenNamespace const * CSenXmlElement::Namespace(class TDesC8 const &, int)
	?Namespace@CSenXmlElement@@UAEPBVCSenNamespace@@XZ @ 247 NONAME ; class CSenNamespace const * CSenXmlElement::Namespace(void)
	?NamespaceURI@CSenXmlElement@@UBEABVTDesC8@@XZ @ 248 NONAME ; class TDesC8 const & CSenXmlElement::NamespaceURI(void) const
	?NamespacesL@CSenXmlElement@@UAEAAV?$RPointerArray@VCSenNamespace@@@@XZ @ 249 NONAME ; class RPointerArray<class CSenNamespace> & CSenXmlElement::NamespacesL(void)
	?NewL@CSenXmlElement@@SAPAV1@ABVTDesC8@@00@Z @ 250 NONAME ; class CSenXmlElement * CSenXmlElement::NewL(class TDesC8 const &, class TDesC8 const &, class TDesC8 const &)
	?NewL@CSenXmlElement@@SAPAV1@ABVTDesC8@@00ABV?$RArray@VRAttribute@Xml@@@@@Z @ 251 NONAME ; class CSenXmlElement * CSenXmlElement::NewL(class TDesC8 const &, class TDesC8 const &, class TDesC8 const &, class RArray<class Xml::RAttribute> const &)
	?NewL@CSenXmlElement@@SAPAV1@ABVTDesC8@@00ABV?$RArray@VRAttribute@Xml@@@@AAVCSenElement@@@Z @ 252 NONAME ; class CSenXmlElement * CSenXmlElement::NewL(class TDesC8 const &, class TDesC8 const &, class TDesC8 const &, class RArray<class Xml::RAttribute> const &, class CSenElement &)
	?NewL@CSenXmlElement@@SAPAV1@ABVTDesC8@@0@Z @ 253 NONAME ; class CSenXmlElement * CSenXmlElement::NewL(class TDesC8 const &, class TDesC8 const &)
	?NewL@CSenXmlElement@@SAPAV1@ABVTDesC8@@@Z @ 254 NONAME ; class CSenXmlElement * CSenXmlElement::NewL(class TDesC8 const &)
	?NsPrefix@CSenXmlElement@@UBEABVTDesC8@@XZ @ 255 NONAME ; class TDesC8 const & CSenXmlElement::NsPrefix(void) const
	?Parent@CSenXmlElement@@UAEPAVCSenElement@@XZ @ 256 NONAME ; class CSenElement * CSenXmlElement::Parent(void)
	?RemoveAttributeL@SenXmlUtils@@SAPAVCSenBaseAttribute@@AAVCSenElement@@ABVTDesC8@@@Z @ 257 NONAME ; class CSenBaseAttribute * SenXmlUtils::RemoveAttributeL(class CSenElement &, class TDesC8 const &)
	?RemoveAttributeL@SenXmlUtils@@SAPAVCSenBaseAttribute@@AAVCSenElement@@PAV2@@Z @ 258 NONAME ; class CSenBaseAttribute * SenXmlUtils::RemoveAttributeL(class CSenElement &, class CSenBaseAttribute *)
	?RemoveElement@CSenXmlElement@@UAEPAVCSenElement@@AAV2@@Z @ 259 NONAME ; class CSenElement * CSenXmlElement::RemoveElement(class CSenElement &)
	?RemoveElement@CSenXmlElement@@UAEPAVCSenElement@@ABVTDesC8@@0@Z @ 260 NONAME ; class CSenElement * CSenXmlElement::RemoveElement(class TDesC8 const &, class TDesC8 const &)
	?RemoveElement@CSenXmlElement@@UAEPAVCSenElement@@ABVTDesC8@@@Z @ 261 NONAME ; class CSenElement * CSenXmlElement::RemoveElement(class TDesC8 const &)
	?ReplaceElementL@CSenXmlElement@@UAEPAVCSenElement@@AAV2@@Z @ 262 NONAME ; class CSenElement * CSenXmlElement::ReplaceElementL(class CSenElement &)
	?Root@CSenXmlElement@@UAEAAVMSenElement@@XZ @ 263 NONAME ; class MSenElement & CSenXmlElement::Root(void)
	?Set@CSenXmlElement@@UAEXABVTDesC8@@00@Z @ 264 NONAME ; void CSenXmlElement::Set(class TDesC8 const &, class TDesC8 const &, class TDesC8 const &)
	?SetAttributesL@CSenXmlElement@@UAEXABV?$RArray@VRAttribute@Xml@@@@@Z @ 265 NONAME ; void CSenXmlElement::SetAttributesL(class RArray<class Xml::RAttribute> const &)
	?SetContentL@CSenXmlElement@@UAE?AVTPtrC8@@ABVTDesC8@@@Z @ 266 NONAME ; class TPtrC8 CSenXmlElement::SetContentL(class TDesC8 const &)
	?SetNamespaceL@CSenXmlElement@@UAEXABVTDesC8@@0@Z @ 267 NONAME ; void CSenXmlElement::SetNamespaceL(class TDesC8 const &, class TDesC8 const &)
	?SetNamespaceL@CSenXmlElement@@UAEXABVTDesC8@@@Z @ 268 NONAME ; void CSenXmlElement::SetNamespaceL(class TDesC8 const &)
	?SetParent@CSenXmlElement@@UAEPAVCSenElement@@PAV2@@Z @ 269 NONAME ; class CSenElement * CSenXmlElement::SetParent(class CSenElement *)
	?SetPrefixL@CSenXmlElement@@UAEXABVTDesC8@@@Z @ 270 NONAME ; void CSenXmlElement::SetPrefixL(class TDesC8 const &)
	?WriteAsXMLToL@CSenXmlElement@@UAEXAAVRWriteStream@@@Z @ 271 NONAME ; void CSenXmlElement::WriteAsXMLToL(class RWriteStream &)
	?WriteAttrToL@CSenXmlElement@@MAEXAAVRWriteStream@@ABVTDesC8@@1@Z @ 272 NONAME ; void CSenXmlElement::WriteAttrToL(class RWriteStream &, class TDesC8 const &, class TDesC8 const &)
	?WriteAttrsToL@CSenXmlElement@@MAEXAAVRWriteStream@@@Z @ 273 NONAME ; void CSenXmlElement::WriteAttrsToL(class RWriteStream &)
	?WriteContentToL@CSenXmlElement@@MAEXAAVRWriteStream@@@Z @ 274 NONAME ; void CSenXmlElement::WriteContentToL(class RWriteStream &)
	?WriteElementsToL@CSenXmlElement@@MAEXAAVRWriteStream@@@Z @ 275 NONAME ; void CSenXmlElement::WriteElementsToL(class RWriteStream &)
	?WriteNamespacesToL@CSenXmlElement@@UAEXAAVRWriteStream@@@Z @ 276 NONAME ; void CSenXmlElement::WriteNamespacesToL(class RWriteStream &)
	?WriteToBufL@CSenXmlElement@@MAE?AVTPtrC8@@AAVCBufBase@@@Z @ 277 NONAME ; class TPtrC8 CSenXmlElement::WriteToBufL(class CBufBase &)
	?AddAttributeL@SenXmlUtils@@SAABVTDesC8@@AAVCSenElement@@ABV2@11@Z @ 278 NONAME ; class TDesC8 const & SenXmlUtils::AddAttributeL(class CSenElement &, class TDesC8 const &, class TDesC8 const &, class TDesC8 const &)
	?AddAttributeL@SenXmlUtils@@SAABVTDesC8@@AAVCSenElement@@ABV2@1@Z @ 279 NONAME ; class TDesC8 const & SenXmlUtils::AddAttributeL(class CSenElement &, class TDesC8 const &, class TDesC8 const &)
	?AddAttributeL@SenXmlUtils@@SAABVTDesC8@@AAVCSenElement@@PAVCSenBaseAttribute@@@Z @ 280 NONAME ; class TDesC8 const & SenXmlUtils::AddAttributeL(class CSenElement &, class CSenBaseAttribute *)

