EXPORTS
	??0RHttpDownloadMgr@@QAE@XZ @ 1 NONAME ; RHttpDownloadMgr::RHttpDownloadMgr(void)
	?AddObserverL@RHttpDownloadMgr@@QAEXAAVMHttpDownloadMgrObserver@@@Z @ 2 NONAME ; void RHttpDownloadMgr::AddObserverL(class MHttpDownloadMgrObserver &)
	?Close@RHttpDownloadMgr@@QAEXXZ @ 3 NONAME ; void RHttpDownloadMgr::Close(void)
	?ConnectL@RHttpDownloadMgr@@QAEXVTUid@@AAVMHttpDownloadMgrObserver@@H@Z @ 4 NONAME ; void RHttpDownloadMgr::ConnectL(class TUid, class MHttpDownloadMgrObserver &, int)
	?CreateDownloadL@RHttpDownloadMgr@@QAEAAVRHttpDownload@@ABVTDesC8@@AAH@Z @ 5 NONAME ; class RHttpDownload & RHttpDownloadMgr::CreateDownloadL(class TDesC8 const &, int &)
	?CurrentDownloads@RHttpDownloadMgr@@QBEABV?$CArrayPtrFlat@VRHttpDownload@@@@XZ @ 6 NONAME ; class CArrayPtrFlat<class RHttpDownload> const & RHttpDownloadMgr::CurrentDownloads(void) const
	?Delete@RHttpDownload@@QAEHXZ @ 7 NONAME ; int RHttpDownload::Delete(void)
	?DeleteAll@RHttpDownloadMgr@@QAEHXZ @ 8 NONAME ; int RHttpDownloadMgr::DeleteAll(void)
	?Disconnect@RHttpDownloadMgr@@QAEHXZ @ 9 NONAME ; int RHttpDownloadMgr::Disconnect(void)
	?GetBoolAttribute@RHttpDownload@@QAEHIAAH@Z @ 10 NONAME ; int RHttpDownload::GetBoolAttribute(unsigned int, int &)
	?GetBoolAttribute@RHttpDownloadMgr@@QAEHIAAH@Z @ 11 NONAME ; int RHttpDownloadMgr::GetBoolAttribute(unsigned int, int &)
	?GetIntAttribute@RHttpDownload@@QAEHIAAJ@Z @ 12 NONAME ; int RHttpDownload::GetIntAttribute(unsigned int, long &)
	?GetIntAttribute@RHttpDownloadMgr@@QAEHIAAJ@Z @ 13 NONAME ; int RHttpDownloadMgr::GetIntAttribute(unsigned int, long &)
	?GetStringAttribute@RHttpDownload@@QAEHIAAVTDes16@@@Z @ 14 NONAME ; int RHttpDownload::GetStringAttribute(unsigned int, class TDes16 &)
	?GetStringAttribute@RHttpDownload@@QAEHIAAVTDes8@@@Z @ 15 NONAME ; int RHttpDownload::GetStringAttribute(unsigned int, class TDes8 &)
	?GetStringAttribute@RHttpDownloadMgr@@QAEHIAAVTDes16@@@Z @ 16 NONAME ; int RHttpDownloadMgr::GetStringAttribute(unsigned int, class TDes16 &)
	?GetStringAttribute@RHttpDownloadMgr@@QAEHIAAVTDes8@@@Z @ 17 NONAME ; int RHttpDownloadMgr::GetStringAttribute(unsigned int, class TDes8 &)
	?Move@RHttpDownload@@QAEHXZ @ 18 NONAME ; int RHttpDownload::Move(void)
	?Pause@RHttpDownload@@QAEHXZ @ 19 NONAME ; int RHttpDownload::Pause(void)
	?PauseAll@RHttpDownloadMgr@@QAEHXZ @ 20 NONAME ; int RHttpDownloadMgr::PauseAll(void)
	?RemoveObserver@RHttpDownloadMgr@@QAEXAAVMHttpDownloadMgrObserver@@@Z @ 21 NONAME ; void RHttpDownloadMgr::RemoveObserver(class MHttpDownloadMgrObserver &)
	?Reset@RHttpDownload@@QAEHXZ @ 22 NONAME ; int RHttpDownload::Reset(void)
	?ResetAll@RHttpDownloadMgr@@QAEHXZ @ 23 NONAME ; int RHttpDownloadMgr::ResetAll(void)
	?SetBoolAttribute@RHttpDownload@@QAEHIH@Z @ 24 NONAME ; int RHttpDownload::SetBoolAttribute(unsigned int, int)
	?SetBoolAttribute@RHttpDownloadMgr@@QAEHIH@Z @ 25 NONAME ; int RHttpDownloadMgr::SetBoolAttribute(unsigned int, int)
	?SetDefaultBoolAttribute@RHttpDownloadMgr@@QAEHIH@Z @ 26 NONAME ; int RHttpDownloadMgr::SetDefaultBoolAttribute(unsigned int, int)
	?SetDefaultIntAttribute@RHttpDownloadMgr@@QAEHIJ@Z @ 27 NONAME ; int RHttpDownloadMgr::SetDefaultIntAttribute(unsigned int, long)
	?SetDefaultStringAttribute@RHttpDownloadMgr@@QAEHIABVTDesC16@@@Z @ 28 NONAME ; int RHttpDownloadMgr::SetDefaultStringAttribute(unsigned int, class TDesC16 const &)
	?SetDefaultStringAttribute@RHttpDownloadMgr@@QAEHIABVTDesC8@@@Z @ 29 NONAME ; int RHttpDownloadMgr::SetDefaultStringAttribute(unsigned int, class TDesC8 const &)
	?SetIntAttribute@RHttpDownload@@QAEHIJ@Z @ 30 NONAME ; int RHttpDownload::SetIntAttribute(unsigned int, long)
	?SetIntAttribute@RHttpDownloadMgr@@QAEHIJ@Z @ 31 NONAME ; int RHttpDownloadMgr::SetIntAttribute(unsigned int, long)
	?SetStringAttribute@RHttpDownload@@QAEHIABVTDesC16@@@Z @ 32 NONAME ; int RHttpDownload::SetStringAttribute(unsigned int, class TDesC16 const &)
	?SetStringAttribute@RHttpDownload@@QAEHIABVTDesC8@@@Z @ 33 NONAME ; int RHttpDownload::SetStringAttribute(unsigned int, class TDesC8 const &)
	?SetStringAttribute@RHttpDownloadMgr@@QAEHIABVTDesC16@@@Z @ 34 NONAME ; int RHttpDownloadMgr::SetStringAttribute(unsigned int, class TDesC16 const &)
	?SetStringAttribute@RHttpDownloadMgr@@QAEHIABVTDesC8@@@Z @ 35 NONAME ; int RHttpDownloadMgr::SetStringAttribute(unsigned int, class TDesC8 const &)
	?Start@RHttpDownload@@QAEHXZ @ 36 NONAME ; int RHttpDownload::Start(void)
	?StartAll@RHttpDownloadMgr@@QAEHXZ @ 37 NONAME ; int RHttpDownloadMgr::StartAll(void)
	?StartDownloadMgrServer@@YAHPAX@Z @ 38 NONAME ; int StartDownloadMgrServer(void *)
	?Version@RHttpDownloadMgr@@QBE?AVTVersion@@XZ @ 39 NONAME ; class TVersion RHttpDownloadMgr::Version(void) const
	?GetFileHandleAttribute@RHttpDownload@@QAEHAAVRFile@@@Z @ 40 NONAME ; int RHttpDownload::GetFileHandleAttribute(class RFile &)
	?SetFileHandleAttribute@RHttpDownload@@QAEHAAVRFile@@@Z @ 41 NONAME ; int RHttpDownload::SetFileHandleAttribute(class RFile &)
	?CreateCodDownloadL@RHttpDownloadMgr@@QAEAAVRHttpDownload@@ABVTDesC8@@00PAVCEikonEnv@@AAH@Z @ 42 NONAME ; class RHttpDownload & RHttpDownloadMgr::CreateCodDownloadL(class TDesC8 const &, class TDesC8 const &, class TDesC8 const &, class CEikonEnv *, int &)
	?CreateClientSideDownloadL@RHttpDownloadMgr@@QAEAAVRHttpDownload@@HAAH@Z @ 43 NONAME ; class RHttpDownload & RHttpDownloadMgr::CreateClientSideDownloadL(int, int &)
	?CreateDownloadL@RHttpDownloadMgr@@QAEAAVRHttpDownload@@ABVTDesC8@@@Z @ 44 NONAME ; class RHttpDownload & RHttpDownloadMgr::CreateDownloadL(class TDesC8 const &)
	?FindDownload@RHttpDownloadMgr@@QAEPAVRHttpDownload@@ABVTDesC8@@0@Z @ 45 NONAME ; class RHttpDownload * RHttpDownloadMgr::FindDownload(class TDesC8 const &, class TDesC8 const &)
	?SetNextUriObserver@RHttpDownloadMgr@@QAEXPAVMHttpDownloadMgrNextUriObserver@@@Z @ 46 NONAME ; void RHttpDownloadMgr::SetNextUriObserver(class MHttpDownloadMgrNextUriObserver *)	
	?AttachToDownloadL@RHttpDownloadMgrApiExt@@QAEAAVRHttpDownload@@J@Z @ 47 NONAME ; class RHttpDownload & RHttpDownloadMgrApiExt::AttachToDownloadL(long)
	??0RHttpDownloadMgrApiExt@@QAE@XZ @ 48 NONAME ; RHttpDownloadMgrApiExt::RHttpDownloadMgrApiExt(void)
	?GetBoolAttribute@RHttpDownload@@QAEHIABJAAH@Z @ 49 NONAME ; int RHttpDownload::GetBoolAttribute(unsigned int, long const &, int &)
	?GetIntAttribute@RHttpDownload@@QAEHIABJAAJ@Z @ 50 NONAME ; int RHttpDownload::GetIntAttribute(unsigned int, long const &, long &)
	?GetStringAttribute@RHttpDownload@@QAEHIABJAAVTDes16@@@Z @ 51 NONAME ; int RHttpDownload::GetStringAttribute(unsigned int, long const &, class TDes16 &)
	?GetStringAttribute@RHttpDownload@@QAEHIABJAAVTDes8@@@Z @ 52 NONAME ; int RHttpDownload::GetStringAttribute(unsigned int, long const &, class TDes8 &)
	?SetDownloadDataAttribute@RHttpDownload@@QAEHABVTDesC8@@@Z @ 53 NONAME ; int RHttpDownload::SetDownloadDataAttribute(class TDesC8 const &)
	?SetStringAttribute@RHttpDownload@@QAEHIABJABVTDesC16@@@Z @ 54 NONAME ; int RHttpDownload::SetStringAttribute(unsigned int, long const &, class TDesC16 const &)
	?SetTrackDataAttribute@RHttpDownload@@QAEHHABVTDesC8@@@Z @ 55 NONAME ; int RHttpDownload::SetTrackDataAttribute(int, class TDesC8 const &)

