EXPORTS
	??0CSenDomFragmentBase@@IAE@XZ @ 1 NONAME ; CSenDomFragmentBase::CSenDomFragmentBase(void)
	??0CSenFragmentBase@@IAE@XZ @ 2 NONAME ; CSenFragmentBase::CSenFragmentBase(void)
	??1CSenDomFragmentBase@@UAE@XZ @ 3 NONAME ; CSenDomFragmentBase::~CSenDomFragmentBase(void)
	??1CSenFragmentBase@@UAE@XZ @ 4 NONAME ; CSenFragmentBase::~CSenFragmentBase(void)
	?AddAttributesL@CSenDomFragmentBase@@UAEXABV?$RArray@VRAttribute@Xml@@@@@Z @ 5 NONAME ; void CSenDomFragmentBase::AddAttributesL(class RArray<class Xml::RAttribute> const &)
	?AddAttributesL@CSenFragmentBase@@MAEXABV?$RArray@VRAttribute@Xml@@@@@Z @ 6 NONAME ; void CSenFragmentBase::AddAttributesL(class RArray<class Xml::RAttribute> const &)
	?AddAttributesToElementL@CSenFragmentBase@@MAEXVTXmlEngElement@@ABV?$RArray@VRAttribute@Xml@@@@@Z @ 7 NONAME ; void CSenFragmentBase::AddAttributesToElementL(class TXmlEngElement, class RArray<class Xml::RAttribute> const &)
	?AddContentL@CSenFragmentBase@@MAEXABVTDesC8@@@Z @ 8 NONAME ; void CSenFragmentBase::AddContentL(class TDesC8 const &)
	?AddNamespacesL@CSenDomFragmentBase@@MAEXXZ @ 9 NONAME ; void CSenDomFragmentBase::AddNamespacesL(void)
	?AddNamespacesL@CSenFragmentBase@@MAEXXZ @ 10 NONAME ; void CSenFragmentBase::AddNamespacesL(void)
	?AsDocumentL@CSenDomFragmentBase@@UAEAAVRSenDocument@@XZ @ 11 NONAME ; class RSenDocument & CSenDomFragmentBase::AsDocumentL(void)
	?AsDocumentL@CSenFragmentBase@@UAEAAVRSenDocument@@XZ @ 12 NONAME ; class RSenDocument & CSenFragmentBase::AsDocumentL(void)
	?AsElementL@CSenDomFragmentBase@@UAE?AVTXmlEngElement@@XZ @ 13 NONAME ; class TXmlEngElement CSenDomFragmentBase::AsElementL(void)
	?AsElementL@CSenFragmentBase@@UAE?AVTXmlEngElement@@XZ @ 14 NONAME ; class TXmlEngElement CSenFragmentBase::AsElementL(void)
	?AsXmlL@CSenDomFragmentBase@@UAEPAVHBufC8@@XZ @ 15 NONAME ; class HBufC8 * CSenDomFragmentBase::AsXmlL(void)
	?AsXmlL@CSenFragmentBase@@UAEPAVHBufC8@@XZ @ 16 NONAME ; class HBufC8 * CSenFragmentBase::AsXmlL(void)
	?AsXmlUnicodeL@CSenDomFragmentBase@@UAEPAVHBufC16@@XZ @ 17 NONAME ; class HBufC16 * CSenDomFragmentBase::AsXmlUnicodeL(void)
	?AsXmlUnicodeL@CSenFragmentBase@@UAEPAVHBufC16@@XZ @ 18 NONAME ; class HBufC16 * CSenFragmentBase::AsXmlUnicodeL(void)
	?BaseConstructL@CSenDomFragmentBase@@IAEXABVTDesC8@@00@Z @ 19 NONAME ; void CSenDomFragmentBase::BaseConstructL(class TDesC8 const &, class TDesC8 const &, class TDesC8 const &)
	?BaseConstructL@CSenDomFragmentBase@@IAEXABVTDesC8@@00ABV?$RArray@VRAttribute@Xml@@@@@Z @ 20 NONAME ; void CSenDomFragmentBase::BaseConstructL(class TDesC8 const &, class TDesC8 const &, class TDesC8 const &, class RArray<class Xml::RAttribute> const &)
	?BaseConstructL@CSenDomFragmentBase@@IAEXABVTDesC8@@00ABV?$RArray@VRAttribute@Xml@@@@AAVTXmlEngElement@@@Z @ 21 NONAME ; void CSenDomFragmentBase::BaseConstructL(class TDesC8 const &, class TDesC8 const &, class TDesC8 const &, class RArray<class Xml::RAttribute> const &, class TXmlEngElement &)
	?BaseConstructL@CSenDomFragmentBase@@IAEXABVTDesC8@@00ABV?$RArray@VRAttribute@Xml@@@@AAVTXmlEngElement@@AAVRSenDocument@@@Z @ 22 NONAME ; void CSenDomFragmentBase::BaseConstructL(class TDesC8 const &, class TDesC8 const &, class TDesC8 const &, class RArray<class Xml::RAttribute> const &, class TXmlEngElement &, class RSenDocument &)
	?BaseConstructL@CSenDomFragmentBase@@IAEXABVTDesC8@@0@Z @ 23 NONAME ; void CSenDomFragmentBase::BaseConstructL(class TDesC8 const &, class TDesC8 const &)
	?BaseConstructL@CSenDomFragmentBase@@IAEXABVTDesC8@@@Z @ 24 NONAME ; void CSenDomFragmentBase::BaseConstructL(class TDesC8 const &)
	?BaseConstructL@CSenDomFragmentBase@@IAEXABVTXmlEngElement@@@Z @ 25 NONAME ; void CSenDomFragmentBase::BaseConstructL(class TXmlEngElement const &)
	?BaseConstructL@CSenDomFragmentBase@@IAEXXZ @ 26 NONAME ; void CSenDomFragmentBase::BaseConstructL(void)
	?BaseConstructL@CSenFragmentBase@@IAEXAAVTXmlEngElement@@AAVRSenDocument@@@Z @ 27 NONAME ; void CSenFragmentBase::BaseConstructL(class TXmlEngElement &, class RSenDocument &)
	?BaseConstructL@CSenFragmentBase@@IAEXABVTDesC8@@00@Z @ 28 NONAME ; void CSenFragmentBase::BaseConstructL(class TDesC8 const &, class TDesC8 const &, class TDesC8 const &)
	?BaseConstructL@CSenFragmentBase@@IAEXABVTDesC8@@00ABV?$RArray@VRAttribute@Xml@@@@@Z @ 29 NONAME ; void CSenFragmentBase::BaseConstructL(class TDesC8 const &, class TDesC8 const &, class TDesC8 const &, class RArray<class Xml::RAttribute> const &)
	?BaseConstructL@CSenFragmentBase@@IAEXABVTDesC8@@00ABV?$RArray@VRAttribute@Xml@@@@AAVTXmlEngElement@@@Z @ 30 NONAME ; void CSenFragmentBase::BaseConstructL(class TDesC8 const &, class TDesC8 const &, class TDesC8 const &, class RArray<class Xml::RAttribute> const &, class TXmlEngElement &)
	?BaseConstructL@CSenFragmentBase@@IAEXABVTDesC8@@00ABV?$RArray@VRAttribute@Xml@@@@AAVTXmlEngElement@@AAVRSenDocument@@@Z @ 31 NONAME ; void CSenFragmentBase::BaseConstructL(class TDesC8 const &, class TDesC8 const &, class TDesC8 const &, class RArray<class Xml::RAttribute> const &, class TXmlEngElement &, class RSenDocument &)
	?BaseConstructL@CSenFragmentBase@@IAEXABVTDesC8@@0@Z @ 32 NONAME ; void CSenFragmentBase::BaseConstructL(class TDesC8 const &, class TDesC8 const &)
	?BaseConstructL@CSenFragmentBase@@IAEXABVTDesC8@@@Z @ 33 NONAME ; void CSenFragmentBase::BaseConstructL(class TDesC8 const &)
	?BaseConstructL@CSenFragmentBase@@IAEXABVTXmlEngElement@@@Z @ 34 NONAME ; void CSenFragmentBase::BaseConstructL(class TXmlEngElement const &)
	?Close@RSenDocument@@QAEXXZ @ 35 NONAME ; void RSenDocument::Close(void)
	?ConsistsOfL@CSenDomFragmentBase@@MAEHAAVTXmlEngElement@@0@Z @ 36 NONAME ; int CSenDomFragmentBase::ConsistsOfL(class TXmlEngElement &, class TXmlEngElement &)
	?ConsistsOfL@CSenDomFragmentBase@@UAEHAAVCSenFragmentBase@@@Z @ 37 NONAME ; int CSenDomFragmentBase::ConsistsOfL(class CSenFragmentBase &)
	?ConsistsOfL@CSenFragmentBase@@MAEHAAVTXmlEngElement@@0@Z @ 38 NONAME ; int CSenFragmentBase::ConsistsOfL(class TXmlEngElement &, class TXmlEngElement &)
	?ConsistsOfL@CSenFragmentBase@@UAEHAAV1@@Z @ 39 NONAME ; int CSenFragmentBase::ConsistsOfL(class CSenFragmentBase &)
	?ContentL@CSenDomFragmentBase@@UAE?AVTPtrC8@@XZ @ 40 NONAME ; class TPtrC8 CSenDomFragmentBase::ContentL(void)
	?ContentL@CSenFragmentBase@@UAE?AVTPtrC8@@XZ @ 41 NONAME ; class TPtrC8 CSenFragmentBase::ContentL(void)
	?ContentOf@CSenDomFragmentBase@@IAE?AVTPtrC8@@ABVTDesC8@@@Z @ 42 NONAME ; class TPtrC8 CSenDomFragmentBase::ContentOf(class TDesC8 const &)
	?ContentOf@CSenFragmentBase@@IAE?AVTPtrC8@@ABVTDesC8@@@Z @ 43 NONAME ; class TPtrC8 CSenFragmentBase::ContentOf(class TDesC8 const &)
	?Copy@RSenDocument@@QAE?AV1@XZ @ 44 NONAME ; class RSenDocument RSenDocument::Copy(void)
	?Destroy@RSenDocument@@QAEXXZ @ 45 NONAME ; void RSenDocument::Destroy(void)
	?ExpandL@CSenDomFragmentBase@@UAEXABVRTagInfo@Xml@@ABV?$RArray@VRAttribute@Xml@@@@H@Z @ 46 NONAME ; void CSenDomFragmentBase::ExpandL(class Xml::RTagInfo const &, class RArray<class Xml::RAttribute> const &, int)
	?ExtractElement@CSenDomFragmentBase@@UAE?AVTXmlEngElement@@XZ @ 47 NONAME ; class TXmlEngElement CSenDomFragmentBase::ExtractElement(void)
	?ExtractElement@CSenFragmentBase@@UAE?AVTXmlEngElement@@XZ @ 48 NONAME ; class TXmlEngElement CSenFragmentBase::ExtractElement(void)
	?GetExtendedInterface@CSenDomFragmentBase@@UAEPAXJ@Z @ 49 NONAME ; void * CSenDomFragmentBase::GetExtendedInterface(long)
	?GetExtendedInterface@CSenFragmentBase@@UAEPAXJ@Z @ 50 NONAME ; void * CSenFragmentBase::GetExtendedInterface(long)
	?LocalName@CSenDomFragmentBase@@UBE?AVTPtrC8@@XZ @ 51 NONAME ; class TPtrC8 CSenDomFragmentBase::LocalName(void) const
	?LocalName@CSenFragmentBase@@UBE?AVTPtrC8@@XZ @ 52 NONAME ; class TPtrC8 CSenFragmentBase::LocalName(void) const
	?Namespace@CSenDomFragmentBase@@UAE?AVTXmlEngNamespace@@ABVTDesC8@@@Z @ 53 NONAME ; class TXmlEngNamespace CSenDomFragmentBase::Namespace(class TDesC8 const &)
	?Namespace@CSenFragmentBase@@UAE?AVTXmlEngNamespace@@ABVTDesC8@@@Z @ 54 NONAME ; class TXmlEngNamespace CSenFragmentBase::Namespace(class TDesC8 const &)
	?NewL@CSenDomFragmentBase@@SAPAV1@ABVTDesC8@@00@Z @ 55 NONAME ; class CSenDomFragmentBase * CSenDomFragmentBase::NewL(class TDesC8 const &, class TDesC8 const &, class TDesC8 const &)
	?NewL@CSenDomFragmentBase@@SAPAV1@ABVTDesC8@@00ABV?$RArray@VRAttribute@Xml@@@@@Z @ 56 NONAME ; class CSenDomFragmentBase * CSenDomFragmentBase::NewL(class TDesC8 const &, class TDesC8 const &, class TDesC8 const &, class RArray<class Xml::RAttribute> const &)
	?NewL@CSenDomFragmentBase@@SAPAV1@ABVTDesC8@@00ABV?$RArray@VRAttribute@Xml@@@@AAVTXmlEngElement@@@Z @ 57 NONAME ; class CSenDomFragmentBase * CSenDomFragmentBase::NewL(class TDesC8 const &, class TDesC8 const &, class TDesC8 const &, class RArray<class Xml::RAttribute> const &, class TXmlEngElement &)
	?NewL@CSenDomFragmentBase@@SAPAV1@ABVTDesC8@@00ABV?$RArray@VRAttribute@Xml@@@@AAVTXmlEngElement@@AAVRSenDocument@@@Z @ 58 NONAME ; class CSenDomFragmentBase * CSenDomFragmentBase::NewL(class TDesC8 const &, class TDesC8 const &, class TDesC8 const &, class RArray<class Xml::RAttribute> const &, class TXmlEngElement &, class RSenDocument &)
	?NewL@CSenDomFragmentBase@@SAPAV1@ABVTDesC8@@0@Z @ 59 NONAME ; class CSenDomFragmentBase * CSenDomFragmentBase::NewL(class TDesC8 const &, class TDesC8 const &)
	?NewL@CSenDomFragmentBase@@SAPAV1@ABVTDesC8@@@Z @ 60 NONAME ; class CSenDomFragmentBase * CSenDomFragmentBase::NewL(class TDesC8 const &)
	?NewL@CSenDomFragmentBase@@SAPAV1@ABVTXmlEngElement@@@Z @ 61 NONAME ; class CSenDomFragmentBase * CSenDomFragmentBase::NewL(class TXmlEngElement const &)
	?NewL@CSenDomFragmentBase@@SAPAV1@XZ @ 62 NONAME ; class CSenDomFragmentBase * CSenDomFragmentBase::NewL(void)
	?NewL@CSenFragmentBase@@SAPAV1@AAVTXmlEngElement@@AAVRSenDocument@@@Z @ 63 NONAME ; class CSenFragmentBase * CSenFragmentBase::NewL(class TXmlEngElement &, class RSenDocument &)
	?NewL@CSenFragmentBase@@SAPAV1@ABVTDesC8@@00@Z @ 64 NONAME ; class CSenFragmentBase * CSenFragmentBase::NewL(class TDesC8 const &, class TDesC8 const &, class TDesC8 const &)
	?NewL@CSenFragmentBase@@SAPAV1@ABVTDesC8@@00ABV?$RArray@VRAttribute@Xml@@@@@Z @ 65 NONAME ; class CSenFragmentBase * CSenFragmentBase::NewL(class TDesC8 const &, class TDesC8 const &, class TDesC8 const &, class RArray<class Xml::RAttribute> const &)
	?NewL@CSenFragmentBase@@SAPAV1@ABVTDesC8@@00ABV?$RArray@VRAttribute@Xml@@@@AAVTXmlEngElement@@@Z @ 66 NONAME ; class CSenFragmentBase * CSenFragmentBase::NewL(class TDesC8 const &, class TDesC8 const &, class TDesC8 const &, class RArray<class Xml::RAttribute> const &, class TXmlEngElement &)
	?NewL@CSenFragmentBase@@SAPAV1@ABVTDesC8@@00ABV?$RArray@VRAttribute@Xml@@@@AAVTXmlEngElement@@AAVRSenDocument@@@Z @ 67 NONAME ; class CSenFragmentBase * CSenFragmentBase::NewL(class TDesC8 const &, class TDesC8 const &, class TDesC8 const &, class RArray<class Xml::RAttribute> const &, class TXmlEngElement &, class RSenDocument &)
	?NewL@CSenFragmentBase@@SAPAV1@ABVTDesC8@@0@Z @ 68 NONAME ; class CSenFragmentBase * CSenFragmentBase::NewL(class TDesC8 const &, class TDesC8 const &)
	?NewL@CSenFragmentBase@@SAPAV1@ABVTDesC8@@@Z @ 69 NONAME ; class CSenFragmentBase * CSenFragmentBase::NewL(class TDesC8 const &)
	?NewL@CSenFragmentBase@@SAPAV1@ABVTXmlEngElement@@@Z @ 70 NONAME ; class CSenFragmentBase * CSenFragmentBase::NewL(class TXmlEngElement const &)
	?NewL@CSenParser@@SAPAV1@ABVTDesC8@@@Z @ 71 NONAME ; class CSenParser * CSenParser::NewL(class TDesC8 const &)
	?NewL@CSenParser@@SAPAV1@PAVCParser@Xml@@@Z @ 72 NONAME ; class CSenParser * CSenParser::NewL(class Xml::CParser *)
	?NewL@CSenParser@@SAPAV1@XZ @ 73 NONAME ; class CSenParser * CSenParser::NewL(void)
	?NewL@RSenDocument@@SA?AV1@PAX@Z @ 74 NONAME ; class RSenDocument RSenDocument::NewL(void *)
	?NewL@RSenDocument@@SA?AV1@XZ @ 75 NONAME ; class RSenDocument RSenDocument::NewL(void)
	?NewLC@CSenParser@@SAPAV1@ABVTDesC8@@@Z @ 76 NONAME ; class CSenParser * CSenParser::NewLC(class TDesC8 const &)
	?NewLC@CSenParser@@SAPAV1@PAVCParser@Xml@@@Z @ 77 NONAME ; class CSenParser * CSenParser::NewLC(class Xml::CParser *)
	?NewLC@CSenParser@@SAPAV1@XZ @ 78 NONAME ; class CSenParser * CSenParser::NewLC(void)
	?NewLC@RSenDocument@@SA?AV1@PAX@Z @ 79 NONAME ; class RSenDocument RSenDocument::NewLC(void *)
	?NewLC@RSenDocument@@SA?AV1@XZ @ 80 NONAME ; class RSenDocument RSenDocument::NewLC(void)
	?NsPrefix@CSenDomFragmentBase@@UBE?AVTPtrC8@@XZ @ 81 NONAME ; class TPtrC8 CSenDomFragmentBase::NsPrefix(void) const
	?NsPrefix@CSenFragmentBase@@UBE?AVTPtrC8@@XZ @ 82 NONAME ; class TPtrC8 CSenFragmentBase::NsPrefix(void) const
	?NsUri@CSenDomFragmentBase@@UBE?AVTPtrC8@@XZ @ 83 NONAME ; class TPtrC8 CSenDomFragmentBase::NsUri(void) const
	?NsUri@CSenFragmentBase@@UBE?AVTPtrC8@@XZ @ 84 NONAME ; class TPtrC8 CSenFragmentBase::NsUri(void) const
	?OnContentL@CSenDomFragmentBase@@UAEXABVTDesC8@@H@Z @ 85 NONAME ; void CSenDomFragmentBase::OnContentL(class TDesC8 const &, int)
	?OnContentL@CSenFragmentBase@@UAEXABVTDesC8@@H@Z @ 86 NONAME ; void CSenFragmentBase::OnContentL(class TDesC8 const &, int)
	?OnDelegateParsingL@CSenDomFragmentBase@@UAEXAAVCSenFragmentBase@@@Z @ 87 NONAME ; void CSenDomFragmentBase::OnDelegateParsingL(class CSenFragmentBase &)
	?OnDelegateParsingL@CSenDomFragmentBase@@UAEXABVRTagInfo@Xml@@ABV?$RArray@VRAttribute@Xml@@@@H@Z @ 88 NONAME ; void CSenDomFragmentBase::OnDelegateParsingL(class Xml::RTagInfo const &, class RArray<class Xml::RAttribute> const &, int)
	?OnDelegateParsingL@CSenFragmentBase@@UAEXAAV1@@Z @ 89 NONAME ; void CSenFragmentBase::OnDelegateParsingL(class CSenFragmentBase &)
	?OnDelegateParsingL@CSenFragmentBase@@UAEXABVRTagInfo@Xml@@ABV?$RArray@VRAttribute@Xml@@@@H@Z @ 90 NONAME ; void CSenFragmentBase::OnDelegateParsingL(class Xml::RTagInfo const &, class RArray<class Xml::RAttribute> const &, int)
	?OnEndDocumentL@CSenDomFragmentBase@@UAEXH@Z @ 91 NONAME ; void CSenDomFragmentBase::OnEndDocumentL(int)
	?OnEndDocumentL@CSenFragmentBase@@UAEXH@Z @ 92 NONAME ; void CSenFragmentBase::OnEndDocumentL(int)
	?OnEndElementL@CSenDomFragmentBase@@UAEXABVRTagInfo@Xml@@H@Z @ 93 NONAME ; void CSenDomFragmentBase::OnEndElementL(class Xml::RTagInfo const &, int)
	?OnEndElementL@CSenFragmentBase@@UAEXABVRTagInfo@Xml@@H@Z @ 94 NONAME ; void CSenFragmentBase::OnEndElementL(class Xml::RTagInfo const &, int)
	?OnEndPrefixMappingL@CSenDomFragmentBase@@UAEXABVRString@@H@Z @ 95 NONAME ; void CSenDomFragmentBase::OnEndPrefixMappingL(class RString const &, int)
	?OnEndPrefixMappingL@CSenFragmentBase@@UAEXABVRString@@H@Z @ 96 NONAME ; void CSenFragmentBase::OnEndPrefixMappingL(class RString const &, int)
	?OnError@CSenDomFragmentBase@@UAEXH@Z @ 97 NONAME ; void CSenDomFragmentBase::OnError(int)
	?OnError@CSenFragmentBase@@UAEXH@Z @ 98 NONAME ; void CSenFragmentBase::OnError(int)
	?OnIgnorableWhiteSpaceL@CSenDomFragmentBase@@UAEXABVTDesC8@@H@Z @ 99 NONAME ; void CSenDomFragmentBase::OnIgnorableWhiteSpaceL(class TDesC8 const &, int)
	?OnIgnorableWhiteSpaceL@CSenFragmentBase@@UAEXABVTDesC8@@H@Z @ 100 NONAME ; void CSenFragmentBase::OnIgnorableWhiteSpaceL(class TDesC8 const &, int)
	?OnProcessingInstructionL@CSenDomFragmentBase@@UAEXABVTDesC8@@0H@Z @ 101 NONAME ; void CSenDomFragmentBase::OnProcessingInstructionL(class TDesC8 const &, class TDesC8 const &, int)
	?OnProcessingInstructionL@CSenFragmentBase@@UAEXABVTDesC8@@0H@Z @ 102 NONAME ; void CSenFragmentBase::OnProcessingInstructionL(class TDesC8 const &, class TDesC8 const &, int)
	?OnResumeParsingFromL@CSenDomFragmentBase@@UAEXABVRTagInfo@Xml@@H@Z @ 103 NONAME ; void CSenDomFragmentBase::OnResumeParsingFromL(class Xml::RTagInfo const &, int)
	?OnResumeParsingFromL@CSenFragmentBase@@UAEXABVRTagInfo@Xml@@H@Z @ 104 NONAME ; void CSenFragmentBase::OnResumeParsingFromL(class Xml::RTagInfo const &, int)
	?OnSkippedEntityL@CSenDomFragmentBase@@UAEXABVRString@@H@Z @ 105 NONAME ; void CSenDomFragmentBase::OnSkippedEntityL(class RString const &, int)
	?OnSkippedEntityL@CSenFragmentBase@@UAEXABVRString@@H@Z @ 106 NONAME ; void CSenFragmentBase::OnSkippedEntityL(class RString const &, int)
	?OnStartDocumentL@CSenDomFragmentBase@@UAEXABVRDocumentParameters@Xml@@H@Z @ 107 NONAME ; void CSenDomFragmentBase::OnStartDocumentL(class Xml::RDocumentParameters const &, int)
	?OnStartDocumentL@CSenFragmentBase@@UAEXABVRDocumentParameters@Xml@@H@Z @ 108 NONAME ; void CSenFragmentBase::OnStartDocumentL(class Xml::RDocumentParameters const &, int)
	?OnStartElementL@CSenDomFragmentBase@@UAEXABVRTagInfo@Xml@@ABV?$RArray@VRAttribute@Xml@@@@H@Z @ 109 NONAME ; void CSenDomFragmentBase::OnStartElementL(class Xml::RTagInfo const &, class RArray<class Xml::RAttribute> const &, int)
	?OnStartElementL@CSenFragmentBase@@UAEXABVRTagInfo@Xml@@ABV?$RArray@VRAttribute@Xml@@@@H@Z @ 110 NONAME ; void CSenFragmentBase::OnStartElementL(class Xml::RTagInfo const &, class RArray<class Xml::RAttribute> const &, int)
	?OnStartPrefixMappingL@CSenDomFragmentBase@@UAEXABVRString@@0H@Z @ 111 NONAME ; void CSenDomFragmentBase::OnStartPrefixMappingL(class RString const &, class RString const &, int)
	?OnStartPrefixMappingL@CSenFragmentBase@@UAEXABVRString@@0H@Z @ 112 NONAME ; void CSenFragmentBase::OnStartPrefixMappingL(class RString const &, class RString const &, int)
	?OnWriteEndElementL@CSenDomFragmentBase@@QAEXABVRTagInfo@Xml@@@Z @ 113 NONAME ; void CSenDomFragmentBase::OnWriteEndElementL(class Xml::RTagInfo const &)
	?OnWriteEndElementL@CSenFragmentBase@@QAEXABVRTagInfo@Xml@@@Z @ 114 NONAME ; void CSenFragmentBase::OnWriteEndElementL(class Xml::RTagInfo const &)
	?OnWriteStartElementL@CSenDomFragmentBase@@QAEXABVRTagInfo@Xml@@ABV?$RArray@VRAttribute@Xml@@@@@Z @ 115 NONAME ; void CSenDomFragmentBase::OnWriteStartElementL(class Xml::RTagInfo const &, class RArray<class Xml::RAttribute> const &)
	?OnWriteStartElementL@CSenFragmentBase@@QAEXABVRTagInfo@Xml@@ABV?$RArray@VRAttribute@Xml@@@@@Z @ 116 NONAME ; void CSenFragmentBase::OnWriteStartElementL(class Xml::RTagInfo const &, class RArray<class Xml::RAttribute> const &)
	?ResetContentL@CSenDomFragmentBase@@UAEXXZ @ 117 NONAME ; void CSenDomFragmentBase::ResetContentL(void)
	?ResetContentL@CSenFragmentBase@@UAEXXZ @ 118 NONAME ; void CSenFragmentBase::ResetContentL(void)
	?SetContentHandler@CSenDomFragmentBase@@QAEXAAVCSenFragmentBase@@@Z @ 119 NONAME ; void CSenDomFragmentBase::SetContentHandler(class CSenFragmentBase &)
	?SetContentHandler@CSenFragmentBase@@QAEXAAV1@@Z @ 120 NONAME ; void CSenFragmentBase::SetContentHandler(class CSenFragmentBase &)
	?SetContentL@CSenFragmentBase@@MAEXABVTDesC8@@@Z @ 121 NONAME ; void CSenFragmentBase::SetContentL(class TDesC8 const &)
	?SetContentOfL@CSenDomFragmentBase@@IAE?AVTXmlEngElement@@ABVTDesC8@@0@Z @ 122 NONAME ; class TXmlEngElement CSenDomFragmentBase::SetContentOfL(class TDesC8 const &, class TDesC8 const &)
	?SetContentOfL@CSenFragmentBase@@IAE?AVTXmlEngElement@@ABVTDesC8@@0@Z @ 123 NONAME ; class TXmlEngElement CSenFragmentBase::SetContentOfL(class TDesC8 const &, class TDesC8 const &)
	?SetDocument@CSenFragmentBase@@QAEXAAVRSenDocument@@@Z @ 124 NONAME ; void CSenFragmentBase::SetDocument(class RSenDocument &)
	?SetOwner@CSenDomFragmentBase@@UAEXAAVCSenFragmentBase@@@Z @ 125 NONAME ; void CSenDomFragmentBase::SetOwner(class CSenFragmentBase &)
	?SetOwner@CSenFragmentBase@@UAEXAAV1@@Z @ 126 NONAME ; void CSenFragmentBase::SetOwner(class CSenFragmentBase &)
	?SetParser@CSenFragmentBase@@EAEXAAVCSenParser@@@Z @ 127 NONAME ; void CSenFragmentBase::SetParser(class CSenParser &)
	?StartSavingContent@CSenFragmentBase@@IAEXXZ @ 128 NONAME ; void CSenFragmentBase::StartSavingContent(void)
	?WriteAsXMLToL@CSenDomFragmentBase@@UAEXAAVRWriteStream@@@Z @ 129 NONAME ; void CSenDomFragmentBase::WriteAsXMLToL(class RWriteStream &)
	?WriteAsXMLToL@CSenFragmentBase@@UAEXAAVRWriteStream@@@Z @ 130 NONAME ; void CSenFragmentBase::WriteAsXMLToL(class RWriteStream &)
	?ManualXmlEngineTlsAttachL@RSenDocument@@SAHXZ @ 131 NONAME ; int RSenDocument::ManualXmlEngineTlsAttachL(void)
	?ManualXmlEngineTlsCleanup@RSenDocument@@SAHXZ @ 132 NONAME ; int RSenDocument::ManualXmlEngineTlsCleanup(void)
	?XmlEngRenameElementL@WsXmlUtils@@QAEXVTXmlEngElement@@ABVTDesC8@@11@Z @ 133 NONAME ; void WsXmlUtils::XmlEngRenameElementL(class TXmlEngElement, class TDesC8 const &, class TDesC8 const &, class TDesC8 const &)

