EXPORTS
	_ZN11WlanQtUtils10connectIapEib @ 1 NONAME
	_ZN11WlanQtUtils11qt_metacallEN11QMetaObject4CallEiPPv @ 2 NONAME
	_ZN11WlanQtUtils11qt_metacastEPKc @ 3 NONAME
	_ZN11WlanQtUtils11scanWlanApsEv @ 4 NONAME
	_ZN11WlanQtUtils12stopWlanScanEv @ 5 NONAME
	_ZN11WlanQtUtils13disconnectIapEi @ 6 NONAME
	_ZN11WlanQtUtils13wlanScanReadyEi @ 7 NONAME
	_ZN11WlanQtUtils14scanWlanDirectERK7QString @ 8 NONAME
	_ZN11WlanQtUtils15wlanScanApReadyEi @ 9 NONAME
	_ZN11WlanQtUtils16staticMetaObjectE @ 10 NONAME DATA 16
	_ZN11WlanQtUtils17wlanNetworkClosedEii @ 11 NONAME
	_ZN11WlanQtUtils17wlanNetworkOpenedEi @ 12 NONAME
	_ZN11WlanQtUtils19getStaticMetaObjectEv @ 13 NONAME
	_ZN11WlanQtUtils19wlanScanDirectReadyEi @ 14 NONAME
	_ZN11WlanQtUtils9createIapEPK13WlanQtUtilsAp @ 15 NONAME
	_ZN11WlanQtUtils9deleteIapEi @ 16 NONAME
	_ZN11WlanQtUtils9ictResultEii @ 17 NONAME
	_ZN11WlanQtUtils9scanWlansEv @ 18 NONAME
	_ZN11WlanQtUtils9updateIapEiPK13WlanQtUtilsAp @ 19 NONAME
	_ZN11WlanQtUtilsC1Ev @ 20 NONAME
	_ZN11WlanQtUtilsC2Ev @ 21 NONAME
	_ZN11WlanQtUtilsD0Ev @ 22 NONAME
	_ZN11WlanQtUtilsD1Ev @ 23 NONAME
	_ZN11WlanQtUtilsD2Ev @ 24 NONAME
	_ZN13WlanQtUtilsAp7compareEPKS_S1_PFiRK7QStringS4_E @ 25 NONAME
	_ZN13WlanQtUtilsAp8setValueEi8QVariant @ 26 NONAME
	_ZN13WlanQtUtilsApC1ERKS_ @ 27 NONAME
	_ZN13WlanQtUtilsApC1Ev @ 28 NONAME
	_ZN13WlanQtUtilsApC2ERKS_ @ 29 NONAME
	_ZN13WlanQtUtilsApC2Ev @ 30 NONAME
	_ZN13WlanQtUtilsApD0Ev @ 31 NONAME
	_ZN13WlanQtUtilsApD1Ev @ 32 NONAME
	_ZN13WlanQtUtilsApD2Ev @ 33 NONAME
	_ZNK11WlanQtUtils10metaObjectEv @ 34 NONAME
	_ZNK11WlanQtUtils14availableWlansER5QListI14QSharedPointerI13WlanQtUtilsApEES5_ @ 35 NONAME
	_ZNK11WlanQtUtils16availableWlanApsER5QListI14QSharedPointerI13WlanQtUtilsApEE @ 36 NONAME
	_ZNK11WlanQtUtils16connectionStatusEv @ 37 NONAME
	_ZNK11WlanQtUtils7iapNameEi @ 38 NONAME
	_ZNK11WlanQtUtils9activeIapEv @ 39 NONAME
	_ZNK13WlanQtUtilsAp5valueEi @ 40 NONAME
	_ZTI11WlanQtUtils @ 41 NONAME
	_ZTI13WlanQtUtilsAp @ 42 NONAME
	_ZTV11WlanQtUtils @ 43 NONAME
	_ZTV13WlanQtUtilsAp @ 44 NONAME
	_ZN11WlanQtUtils21moveIapToInternetSnapEi @ 45 NONAME

