EXPORTS
	_ZN13CUpnpTmServer12RegisterAppLEP17CUpnpRemotableApp @ 1 NONAME
	_ZN13CUpnpTmServer13RegisterAppsLERK13RPointerArrayI17CUpnpRemotableAppE @ 2 NONAME
	_ZN13CUpnpTmServer13UnRegisterAppEj @ 3 NONAME
	_ZN13CUpnpTmServer14UnRegisterAppsERK6RArrayIjE @ 4 NONAME
	_ZN13CUpnpTmServer14UpdateAppListLERK6RArrayIjE @ 5 NONAME
	_ZN13CUpnpTmServer15GetRemotableAppEjRi @ 6 NONAME
	_ZN13CUpnpTmServer16SetXmlSignatureLERK6TDesC8 @ 7 NONAME
	_ZN13CUpnpTmServer16UpdateAppStatusLERK6RArrayIjE @ 8 NONAME
	_ZN13CUpnpTmServer23UpdateUnusedProfileIdsLERK6RArrayIjE @ 9 NONAME
	_ZN13CUpnpTmServer4NewLER23CUpnpTmServerDeviceInfoR21MUpnpTmServerObserver @ 10 NONAME
	_ZN13CUpnpTmServer5StopLEv @ 11 NONAME
	_ZN13CUpnpTmServer6StartLEv @ 12 NONAME
	_ZN17CUpnpRemotableApp18SetAppDescriptionLERK6TDesC8 @ 13 NONAME
	_ZN17CUpnpRemotableApp18SetResourceStatusLERK6TDesC8 @ 14 NONAME
	_ZN17CUpnpRemotableApp20CreateTmInfoElementLEN18CUpnpTmInfoElement21TTerminalModeInfoTypeE @ 15 NONAME
	_ZN17CUpnpRemotableApp24SetAllowedProfileIdListLERK6RArrayIjE @ 16 NONAME
	_ZN17CUpnpRemotableApp4NewLEjRK6TDesC8 @ 17 NONAME
	_ZN17CUpnpRemotableApp8AddIconLEP21CUpnpTerminalModeIcon @ 18 NONAME
	_ZN18CUpnpTmInfoElement17AddTmInfoElementLERK6TDesC8S2_ @ 19 NONAME
	_ZN21CUpnpTerminalModeIcon4NewLERK7TDesC16iiiRK6TDesC8 @ 20 NONAME
	_ZN21CUpnpTmClientIconPref12SetMimeTypeLERK6TDesC8 @ 21 NONAME
	_ZN21CUpnpTmClientIconPref4NewLEj @ 22 NONAME
	_ZN23CUpnpTmServerDeviceInfo13SetBtAddressLERK6TDesC8 @ 23 NONAME
	_ZN23CUpnpTmServerDeviceInfo14AddDeviceIconLEP21CUpnpTerminalModeIcon @ 24 NONAME
	_ZN23CUpnpTmServerDeviceInfo14SetDeviceInfoLERK6TDesC8 @ 25 NONAME
	_ZN23CUpnpTmServerDeviceInfo4NewLEm @ 26 NONAME
	_ZTI13CUpnpTmServer @ 27 NONAME
	_ZTI17CUpnpRemotableApp @ 28 NONAME
	_ZTI17CUpnpTmServerImpl @ 29 NONAME
	_ZTI18CUpnpAppFilterInfo @ 30 NONAME
	_ZTI18CUpnpTmIconMapping @ 31 NONAME
	_ZTI18CUpnpTmInfoElement @ 32 NONAME
	_ZTI19CUpnpTmServerDevice @ 33 NONAME
	_ZTI21CUpnpTerminalModeIcon @ 34 NONAME
	_ZTI21CUpnpTmClientIconPref @ 35 NONAME
	_ZTI22CUpnpRemotableAppStore @ 36 NONAME
	_ZTI22CUpnpSvgImageConverter @ 37 NONAME
	_ZTI22CUpnpTmFilteredAppList @ 38 NONAME
	_ZTI23CUpnpTmAppServerService @ 39 NONAME
	_ZTI23CUpnpTmServerDeviceInfo @ 40 NONAME
	_ZTI25CUpnpIconConversionActive @ 41 NONAME
	_ZTI27CUpnpTmClientProfileService @ 42 NONAME
	_ZTI28CUpnpTmServerDeviceXmlParser @ 43 NONAME
	_ZTI29CUpnpIconFileServeTransaction @ 44 NONAME
	_ZTI32CUpnpTmServerDescriptionProvider @ 45 NONAME
	_ZTV13CUpnpTmServer @ 46 NONAME
	_ZTV17CUpnpRemotableApp @ 47 NONAME
	_ZTV17CUpnpTmServerImpl @ 48 NONAME
	_ZTV18CUpnpAppFilterInfo @ 49 NONAME
	_ZTV18CUpnpTmIconMapping @ 50 NONAME
	_ZTV18CUpnpTmInfoElement @ 51 NONAME
	_ZTV19CUpnpTmServerDevice @ 52 NONAME
	_ZTV21CUpnpTerminalModeIcon @ 53 NONAME
	_ZTV21CUpnpTmClientIconPref @ 54 NONAME
	_ZTV22CUpnpRemotableAppStore @ 55 NONAME
	_ZTV22CUpnpSvgImageConverter @ 56 NONAME
	_ZTV22CUpnpTmFilteredAppList @ 57 NONAME
	_ZTV23CUpnpTmAppServerService @ 58 NONAME
	_ZTV23CUpnpTmServerDeviceInfo @ 59 NONAME
	_ZTV25CUpnpIconConversionActive @ 60 NONAME
	_ZTV27CUpnpTmClientProfileService @ 61 NONAME
	_ZTV28CUpnpTmServerDeviceXmlParser @ 62 NONAME
	_ZTV29CUpnpIconFileServeTransaction @ 63 NONAME
	_ZTV32CUpnpTmServerDescriptionProvider @ 64 NONAME

