EXPORTS
	??0CSenSoapFault@@IAE@XZ @ 1 NONAME ; protected: __thiscall CSenSoapFault::CSenSoapFault(void)
	??0CSenSoapMessage@@IAE@XZ @ 2 NONAME ; protected: __thiscall CSenSoapMessage::CSenSoapMessage(void)
	??0CSenWsSecurityHeader@@IAE@XZ @ 3 NONAME ; protected: __thiscall CSenWsSecurityHeader::CSenWsSecurityHeader(void)
	??1CSenSoapEnvelope@@UAE@XZ @ 4 NONAME ; public: virtual __thiscall CSenSoapEnvelope::~CSenSoapEnvelope(void)
	??1CSenSoapFault@@UAE@XZ @ 5 NONAME ; public: virtual __thiscall CSenSoapFault::~CSenSoapFault(void)
	??1CSenSoapMessage@@UAE@XZ @ 6 NONAME ; public: virtual __thiscall CSenSoapMessage::~CSenSoapMessage(void)
	??1CSenWsSecurityHeader@@UAE@XZ @ 7 NONAME ; public: virtual __thiscall CSenWsSecurityHeader::~CSenWsSecurityHeader(void)
	?AddHeaderL@CSenSoapEnvelope@@UAEAAVCSenElement@@AAV2@@Z @ 8 NONAME ; public: virtual class CSenElement & __thiscall CSenSoapEnvelope::AddHeaderL(class CSenElement &)
	?AddSecurityTokenL@CSenSoapMessage@@QAEHABVTDesC8@@@Z @ 9 NONAME ; public: int __thiscall CSenSoapMessage::AddSecurityTokenL(class TDesC8 const &)
	?BaseConstructL@CSenSoapEnvelope@@IAEXXZ @ 10 NONAME ; protected: void __thiscall CSenSoapEnvelope::BaseConstructL(void)
	?BaseConstructL@CSenSoapMessage@@IAEXXZ @ 11 NONAME ; protected: void __thiscall CSenSoapMessage::BaseConstructL(void)
	?BaseConstructL@CSenWsSecurityHeader@@IAEXABVTDesC8@@@Z @ 12 NONAME ; protected: void __thiscall CSenWsSecurityHeader::BaseConstructL(class TDesC8 const &)
	?BaseConstructL@CSenWsSecurityHeader@@IAEXXZ @ 13 NONAME ; protected: void __thiscall CSenWsSecurityHeader::BaseConstructL(void)
	?BodyAsStringL@CSenSoapEnvelope@@UAEPAVHBufC8@@XZ @ 14 NONAME ; public: virtual class HBufC8 * __thiscall CSenSoapEnvelope::BodyAsStringL(void)
	?BodyL@CSenSoapEnvelope@@UAEAAVCSenElement@@XZ @ 15 NONAME ; public: virtual class CSenElement & __thiscall CSenSoapEnvelope::BodyL(void)
	?ConstructL@CSenSoapFault@@IAEXAAVCSenElement@@@Z @ 16 NONAME ; protected: void __thiscall CSenSoapFault::ConstructL(class CSenElement &)
	?ConstructL@CSenSoapFault@@IAEXABVTDesC8@@00ABV?$RArray@VRAttribute@Xml@@@@@Z @ 17 NONAME ; protected: void __thiscall CSenSoapFault::ConstructL(class TDesC8 const &,class TDesC8 const &,class TDesC8 const &,class RArray<class Xml::RAttribute> const &)
	?DetachFaultL@CSenSoapEnvelope@@UAEPAVCSenSoapFault@@XZ @ 18 NONAME ; public: virtual class CSenSoapFault * __thiscall CSenSoapEnvelope::DetachFaultL(void)
	?Detail@CSenSoapFault@@QAE?AVTPtrC8@@XZ @ 19 NONAME ; public: class TPtrC8 __thiscall CSenSoapFault::Detail(void)
	?EndElementL@CSenSoapEnvelope@@MAEXABVTDesC8@@00@Z @ 20 NONAME ; protected: virtual void __thiscall CSenSoapEnvelope::EndElementL(class TDesC8 const &,class TDesC8 const &,class TDesC8 const &)
	?FaultActor@CSenSoapFault@@QAE?AVTPtrC8@@XZ @ 21 NONAME ; public: class TPtrC8 __thiscall CSenSoapFault::FaultActor(void)
	?FaultCode@CSenSoapFault@@QAE?AVTPtrC8@@XZ @ 22 NONAME ; public: class TPtrC8 __thiscall CSenSoapFault::FaultCode(void)
	?FaultL@CSenSoapEnvelope@@UAEPAVCSenSoapFault@@XZ @ 23 NONAME ; public: virtual class CSenSoapFault * __thiscall CSenSoapEnvelope::FaultL(void)
	?FaultString@CSenSoapFault@@QAE?AVTPtrC8@@XZ @ 24 NONAME ; public: class TPtrC8 __thiscall CSenSoapFault::FaultString(void)
	?FromXmlDateTimeL@SenDateUtils@@SA?AVTTime@@ABVTDesC8@@@Z @ 25 NONAME ; public: static class TTime __cdecl SenDateUtils::FromXmlDateTimeL(class TDesC8 const &)
	?GetRandomGuid16LC@CSenGuidGen@@QAEPAVHBufC16@@XZ @ 26 NONAME ; public: class HBufC16 * __thiscall CSenGuidGen::GetRandomGuid16LC(void)
	?GetRandomGuid8LC@CSenGuidGen@@QAEPAVHBufC8@@XZ @ 27 NONAME ; public: class HBufC8 * __thiscall CSenGuidGen::GetRandomGuid8LC(void)
	?GetRandomGuidLC@CSenGuidGen@@QAEPAVHBufC16@@XZ @ 28 NONAME ; public: class HBufC16 * __thiscall CSenGuidGen::GetRandomGuidLC(void)
	?HeaderL@CSenSoapEnvelope@@UAEAAVCSenElement@@XZ @ 29 NONAME ; public: virtual class CSenElement & __thiscall CSenSoapEnvelope::HeaderL(void)
	?IsFault@CSenSoapEnvelope@@UAEHXZ @ 30 NONAME ; public: virtual int __thiscall CSenSoapEnvelope::IsFault(void)
	?NewL@CSenGuidGen@@SAPAV1@XZ @ 31 NONAME ; public: static class CSenGuidGen * __cdecl CSenGuidGen::NewL(void)
	?NewL@CSenSoapEnvelope@@SAPAV1@XZ @ 32 NONAME ; public: static class CSenSoapEnvelope * __cdecl CSenSoapEnvelope::NewL(void)
	?NewL@CSenSoapFault@@SAPAV1@AAVCSenElement@@@Z @ 33 NONAME ; public: static class CSenSoapFault * __cdecl CSenSoapFault::NewL(class CSenElement &)
	?NewL@CSenSoapFault@@SAPAV1@ABVTDesC8@@00ABV?$RArray@VRAttribute@Xml@@@@@Z @ 34 NONAME ; public: static class CSenSoapFault * __cdecl CSenSoapFault::NewL(class TDesC8 const &,class TDesC8 const &,class TDesC8 const &,class RArray<class Xml::RAttribute> const &)
	?NewL@CSenSoapMessage@@SAPAV1@XZ @ 35 NONAME ; public: static class CSenSoapMessage * __cdecl CSenSoapMessage::NewL(void)
	?NewL@CSenWsSecurityHeader@@SAPAV1@ABVTDesC8@@@Z @ 36 NONAME ; public: static class CSenWsSecurityHeader * __cdecl CSenWsSecurityHeader::NewL(class TDesC8 const &)
	?NewL@CSenWsSecurityHeader@@SAPAV1@XZ @ 37 NONAME ; public: static class CSenWsSecurityHeader * __cdecl CSenWsSecurityHeader::NewL(void)
	?NewLC@CSenGuidGen@@SAPAV1@XZ @ 38 NONAME ; public: static class CSenGuidGen * __cdecl CSenGuidGen::NewLC(void)
	?NewSecurityHeaderLC@CSenSoapMessage@@MAEPAVCSenWsSecurityHeader@@PBVTDesC8@@@Z @ 39 NONAME ; protected: virtual class CSenWsSecurityHeader * __thiscall CSenSoapMessage::NewSecurityHeaderLC(class TDesC8 const *)
	?ParseHeaderL@CSenSoapEnvelope@@MAEXABVTDesC8@@00ABV?$RArray@VRAttribute@Xml@@@@@Z @ 40 NONAME ; protected: virtual void __thiscall CSenSoapEnvelope::ParseHeaderL(class TDesC8 const &,class TDesC8 const &,class TDesC8 const &,class RArray<class Xml::RAttribute> const &)
	?ParseHeaderL@CSenSoapMessage@@MAEXABVTDesC8@@00ABV?$RArray@VRAttribute@Xml@@@@@Z @ 41 NONAME ; protected: virtual void __thiscall CSenSoapMessage::ParseHeaderL(class TDesC8 const &,class TDesC8 const &,class TDesC8 const &,class RArray<class Xml::RAttribute> const &)
	?SetBodyL@CSenSoapEnvelope@@UAE?AVTPtrC8@@ABVTDesC8@@@Z @ 42 NONAME ; public: virtual class TPtrC8 __thiscall CSenSoapEnvelope::SetBodyL(class TDesC8 const &)
	?SetSecurityHeaderL@CSenSoapMessage@@QAEXABVTDesC8@@@Z @ 43 NONAME ; public: void __thiscall CSenSoapMessage::SetSecurityHeaderL(class TDesC8 const &)
	?SetSoapActionL@CSenSoapEnvelope@@UAE?AVTPtrC8@@ABVTDesC8@@@Z @ 44 NONAME ; public: virtual class TPtrC8 __thiscall CSenSoapEnvelope::SetSoapActionL(class TDesC8 const &)
	?SoapAction@CSenSoapEnvelope@@UAE?AVTPtrC8@@XZ @ 45 NONAME ; public: virtual class TPtrC8 __thiscall CSenSoapEnvelope::SoapAction(void)
	?StartElementL@CSenSoapEnvelope@@MAEXABVTDesC8@@00ABV?$RArray@VRAttribute@Xml@@@@@Z @ 46 NONAME ; protected: virtual void __thiscall CSenSoapEnvelope::StartElementL(class TDesC8 const &,class TDesC8 const &,class TDesC8 const &,class RArray<class Xml::RAttribute> const &)
	?ToXmlDateTimeUtf8L@SenDateUtils@@SAXAAVTDes8@@ABVTTime@@@Z @ 47 NONAME ; public: static void __cdecl SenDateUtils::ToXmlDateTimeUtf8L(class TDes8 &,class TTime const &)
	?UsernameTokenL@CSenWsSecurityHeader@@QAEPAVHBufC8@@AAVCSenIdentityProvider@@@Z @ 48 NONAME ; public: class HBufC8 * __thiscall CSenWsSecurityHeader::UsernameTokenL(class CSenIdentityProvider &)
	?UsernameTokenL@CSenWsSecurityHeader@@SAHABVTDesC8@@AAPAVHBufC8@@@Z @ 49 NONAME ; public: static int __cdecl CSenWsSecurityHeader::UsernameTokenL(class TDesC8 const &,class HBufC8 * &)
	?XmlNs@CSenWsSecurityHeader@@UAE?AVTPtrC8@@XZ @ 50 NONAME ; public: virtual class TPtrC8 __thiscall CSenWsSecurityHeader::XmlNs(void)
	?XmlNsPrefix@CSenWsSecurityHeader@@UAE?AVTPtrC8@@XZ @ 51 NONAME ; public: virtual class TPtrC8 __thiscall CSenWsSecurityHeader::XmlNsPrefix(void)
	??0CSenAttribute@@IAE@XZ @ 52 NONAME ; protected: __thiscall CSenAttribute::CSenAttribute(void)
	??1CSenAttribute@@UAE@XZ @ 53 NONAME ; public: virtual __thiscall CSenAttribute::~CSenAttribute(void)
	??1CSenAttributes@@UAE@XZ @ 54 NONAME ; public: virtual __thiscall CSenAttributes::~CSenAttributes(void)
	??1CSenIdentifier@@UAE@XZ @ 55 NONAME ; public: virtual __thiscall CSenIdentifier::~CSenIdentifier(void)
	?AddAttribute@CSenAttributes@@QAEXABVCSenAttribute@@@Z @ 56 NONAME ; public: void __thiscall CSenAttributes::AddAttribute(class CSenAttribute const &)
	?AddAttribute@CSenIdentifier@@QAEXAAVCSenAttribute@@@Z @ 57 NONAME ; public: void __thiscall CSenIdentifier::AddAttribute(class CSenAttribute &)
	?AddValue@CSenAttribute@@QAEXABVTDesC8@@@Z @ 58 NONAME ; public: void __thiscall CSenAttribute::AddValue(class TDesC8 const &)
	?Attributes@CSenIdentifier@@QBEPBVCSenAttributes@@XZ @ 59 NONAME ; public: class CSenAttributes const * __thiscall CSenIdentifier::Attributes(void)const 
	?CertInfoToStringLC@SenCertUtils@@SAPAVHBufC8@@ABVTCertInfo@@@Z @ 60 NONAME ; public: static class HBufC8 * __cdecl SenCertUtils::CertInfoToStringLC(class TCertInfo const &)
	?ConstructL@CSenAttribute@@IAEXABVTDesC8@@000@Z @ 61 NONAME ; protected: void __thiscall CSenAttribute::ConstructL(class TDesC8 const &,class TDesC8 const &,class TDesC8 const &,class TDesC8 const &)
	?Count@CSenAttributes@@QBEHXZ @ 62 NONAME ; public: int __thiscall CSenAttributes::Count(void)const 
	?Equals@CSenAttribute@@QBEHABV1@@Z @ 63 NONAME ; public: int __thiscall CSenAttribute::Equals(class CSenAttribute const &)const 
	?Equals@CSenAttributes@@QBEHABVCSenAttribute@@@Z @ 64 NONAME ; public: int __thiscall CSenAttributes::Equals(class CSenAttribute const &)const 
	?Equals@CSenIdentifier@@QAEHABV1@@Z @ 65 NONAME ; public: int __thiscall CSenIdentifier::Equals(class CSenIdentifier const &)
	?FriendlyName@CSenAttribute@@QBE?AVTPtrC8@@XZ @ 66 NONAME ; public: class TPtrC8 __thiscall CSenAttribute::FriendlyName(void)const 
	?GetAttribute@CSenAttributes@@QBEABVCSenAttribute@@ABVTDesC8@@@Z @ 67 NONAME ; public: class CSenAttribute const & __thiscall CSenAttributes::GetAttribute(class TDesC8 const &)const 
	?GetValues@CSenAttribute@@QBE?BV?$RPointerArray@VHBufC8@@@@XZ @ 68 NONAME ; public: class RPointerArray<class HBufC8> const __thiscall CSenAttribute::GetValues(void)const 
	?IsProxy@CSenIdentifier@@QBEHXZ @ 69 NONAME ; public: int __thiscall CSenIdentifier::IsProxy(void)const 
	?MatchAny@CSenAttributes@@QAEHABV1@@Z @ 70 NONAME ; public: int __thiscall CSenAttributes::MatchAny(class CSenAttributes const &)
	?Name@CSenAttribute@@QBE?AVTPtrC8@@XZ @ 71 NONAME ; public: class TPtrC8 __thiscall CSenAttribute::Name(void)const 
	?NewL@CSenAttribute@@SAPAV1@ABVTDesC8@@000@Z @ 72 NONAME ; public: static class CSenAttribute * __cdecl CSenAttribute::NewL(class TDesC8 const &,class TDesC8 const &,class TDesC8 const &,class TDesC8 const &)
	?NewL@CSenAttribute@@SAPAV1@ABVTDesC8@@00@Z @ 73 NONAME ; public: static class CSenAttribute * __cdecl CSenAttribute::NewL(class TDesC8 const &,class TDesC8 const &,class TDesC8 const &)
	?NewL@CSenAttributes@@SAPAV1@ABV1@@Z @ 74 NONAME ; public: static class CSenAttributes * __cdecl CSenAttributes::NewL(class CSenAttributes const &)
	?NewL@CSenAttributes@@SAPAV1@XZ @ 75 NONAME ; public: static class CSenAttributes * __cdecl CSenAttributes::NewL(void)
	?NewL@CSenIdentifier@@SAPAV1@ABV1@@Z @ 76 NONAME ; public: static class CSenIdentifier * __cdecl CSenIdentifier::NewL(class CSenIdentifier const &)
	?NewL@CSenIdentifier@@SAPAV1@W4TIdentifierType@SenIdentifier@@ABVTCertInfo@@@Z @ 77 NONAME ; public: static class CSenIdentifier * __cdecl CSenIdentifier::NewL(enum SenIdentifier::TIdentifierType,class TCertInfo const &)
	?NewL@CSenIdentifier@@SAPAV1@W4TIdentifierType@SenIdentifier@@ABVTDesC8@@1@Z @ 78 NONAME ; public: static class CSenIdentifier * __cdecl CSenIdentifier::NewL(enum SenIdentifier::TIdentifierType,class TDesC8 const &,class TDesC8 const &)
	?NewL@CSenIdentifier@@SAPAV1@W4TIdentifierType@SenIdentifier@@ABVTDesC8@@@Z @ 79 NONAME ; public: static class CSenIdentifier * __cdecl CSenIdentifier::NewL(enum SenIdentifier::TIdentifierType,class TDesC8 const &)
	?NewL@CSenIdentifier@@SAPAV1@XZ @ 80 NONAME ; public: static class CSenIdentifier * __cdecl CSenIdentifier::NewL(void)
	?NewLC@CSenAttributes@@SAPAV1@ABV1@@Z @ 81 NONAME ; public: static class CSenAttributes * __cdecl CSenAttributes::NewLC(class CSenAttributes const &)
	?NewLC@CSenAttributes@@SAPAV1@XZ @ 82 NONAME ; public: static class CSenAttributes * __cdecl CSenAttributes::NewLC(void)
	?NewLC@CSenIdentifier@@SAPAV1@ABV1@@Z @ 83 NONAME ; public: static class CSenIdentifier * __cdecl CSenIdentifier::NewLC(class CSenIdentifier const &)
	?NewLC@CSenIdentifier@@SAPAV1@W4TIdentifierType@SenIdentifier@@ABVTCertInfo@@@Z @ 84 NONAME ; public: static class CSenIdentifier * __cdecl CSenIdentifier::NewLC(enum SenIdentifier::TIdentifierType,class TCertInfo const &)
	?NewLC@CSenIdentifier@@SAPAV1@W4TIdentifierType@SenIdentifier@@ABVTDesC8@@1@Z @ 85 NONAME ; public: static class CSenIdentifier * __cdecl CSenIdentifier::NewLC(enum SenIdentifier::TIdentifierType,class TDesC8 const &,class TDesC8 const &)
	?NewLC@CSenIdentifier@@SAPAV1@W4TIdentifierType@SenIdentifier@@ABVTDesC8@@@Z @ 86 NONAME ; public: static class CSenIdentifier * __cdecl CSenIdentifier::NewLC(enum SenIdentifier::TIdentifierType,class TDesC8 const &)
	?NewLC@CSenIdentifier@@SAPAV1@XZ @ 87 NONAME ; public: static class CSenIdentifier * __cdecl CSenIdentifier::NewLC(void)
	?NumValues@CSenAttribute@@QBEHXZ @ 88 NONAME ; public: int __thiscall CSenAttribute::NumValues(void)const 
	?Proxy@CSenIdentifier@@QBEPBV1@XZ @ 89 NONAME ; public: class CSenIdentifier const * __thiscall CSenIdentifier::Proxy(void)const 
	?ProxyFor@CSenIdentifier@@QAEXPAV1@@Z @ 90 NONAME ; public: void __thiscall CSenIdentifier::ProxyFor(class CSenIdentifier *)
	?Root@CSenIdentifier@@QBEPBV1@XZ @ 91 NONAME ; public: class CSenIdentifier const * __thiscall CSenIdentifier::Root(void)const 
	?SetValue@CSenAttribute@@QAEXABVTDesC8@@@Z @ 92 NONAME ; public: void __thiscall CSenAttribute::SetValue(class TDesC8 const &)
	?Type@CSenAttribute@@QBE?AVTPtrC8@@XZ @ 93 NONAME ; public: class TPtrC8 __thiscall CSenAttribute::Type(void)const 
	?Type@CSenIdentifier@@QBE?AW4TIdentifierType@SenIdentifier@@XZ @ 94 NONAME ; public: enum SenIdentifier::TIdentifierType __thiscall CSenIdentifier::Type(void)const 
	?Value@CSenAttribute@@QBE?AVTPtrC8@@XZ @ 95 NONAME ; public: class TPtrC8 __thiscall CSenAttribute::Value(void)const 
	?Value@CSenIdentifier@@QBE?AVTPtrC8@@XZ @ 96 NONAME ; public: class TPtrC8 __thiscall CSenIdentifier::Value(void)const 
	?ParseL@CSenSoapEnvelope@@UAEXABVTDesC8@@@Z @ 97 NONAME ; public: virtual void __thiscall CSenSoapEnvelope::ParseL(class TDesC8 const &)
	?HasBody@CSenSoapEnvelope@@QAEHXZ @ 98 NONAME ; public: int __thiscall CSenSoapEnvelope::HasBody(void)
	?HasHeader@CSenSoapEnvelope@@QAEHXZ @ 99 NONAME ; public: int __thiscall CSenSoapEnvelope::HasHeader(void)
	??0CSenChunk@@IAE@XZ @ 100 NONAME ; protected: __thiscall CSenChunk::CSenChunk(void)
	??1CSenChunk@@UAE@XZ @ 101 NONAME ; public: virtual __thiscall CSenChunk::~CSenChunk(void)
	??8CSenChunk@@QAEHABV0@@Z @ 102 NONAME ; public: int __thiscall CSenChunk::operator==(class CSenChunk const &)
	?AdjustChunk@CSenChunk@@QAEHH@Z @ 103 NONAME ; public: int __thiscall CSenChunk::AdjustChunk(int)
	?AllocDescToChunk@CSenChunk@@QAEHHAAPAVTPtr8@@@Z @ 104 NONAME ; public: int __thiscall CSenChunk::AllocDescToChunk(int,class TPtr8 * &)
	?Chunk@CSenChunk@@QAEAAVRChunk@@XZ @ 105 NONAME ; public: class RChunk & __thiscall CSenChunk::Chunk(void)
	?ChunkHeader@CSenChunk@@QAEAAVTChunkHeader@@XZ @ 106 NONAME ; public: class TChunkHeader & __thiscall CSenChunk::ChunkHeader(void)
	?ChunkName@CSenChunk@@QBE?AVTPtrC16@@XZ @ 107 NONAME ; public: class TPtrC16 __thiscall CSenChunk::ChunkName(void)const 
	?ChunkToArgs@CSenChunk@@QAEXAAVTIpcArgs@@H@Z @ 108 NONAME ; public: void __thiscall CSenChunk::ChunkToArgs(class TIpcArgs &,int)
	?CloseChunk@CSenChunk@@QAEXXZ @ 109 NONAME ; public: void __thiscall CSenChunk::CloseChunk(void)
	?CreateChunk@CSenChunk@@QAEHXZ @ 110 NONAME ; public: int __thiscall CSenChunk::CreateChunk(void)
	?DescFromChunk@CSenChunk@@QAEHAAVTPtrC8@@H@Z @ 111 NONAME ; public: int __thiscall CSenChunk::DescFromChunk(class TPtrC8 &,int)
	?DescToChunk@CSenChunk@@QAEHABVTDesC8@@@Z @ 112 NONAME ; public: int __thiscall CSenChunk::DescToChunk(class TDesC8 const &)
	?DescsFromChunk@CSenChunk@@QAEHAAVTPtrC8@@0@Z @ 113 NONAME ; public: int __thiscall CSenChunk::DescsFromChunk(class TPtrC8 &,class TPtrC8 &)
	?DescsToChunk@CSenChunk@@QAEHABVTDesC8@@0@Z @ 114 NONAME ; public: int __thiscall CSenChunk::DescsToChunk(class TDesC8 const &,class TDesC8 const &)
	?Log@CSenChunk@@IBEPAVRFileLogger@@XZ @ 115 NONAME ; protected: class RFileLogger * __thiscall CSenChunk::Log(void)const 
	?NewL@CSenChunk@@SAPAV1@ABVTDesC16@@@Z @ 116 NONAME ; public: static class CSenChunk * __cdecl CSenChunk::NewL(class TDesC16 const &)
	?NewLC@CSenChunk@@SAPAV1@ABVTDesC16@@@Z @ 117 NONAME ; public: static class CSenChunk * __cdecl CSenChunk::NewLC(class TDesC16 const &)
	?OpenChunk@CSenChunk@@QAEHXZ @ 118 NONAME ; public: int __thiscall CSenChunk::OpenChunk(void)
	?OpenChunkFromRMsgL@CSenChunk@@QAEHABVRMessage2@@H@Z @ 119 NONAME ; public: int __thiscall CSenChunk::OpenChunkFromRMsgL(class RMessage2 const &,int)
	?SetLogger@CSenChunk@@QAEXPAVRFileLogger@@@Z @ 120 NONAME ; public: void __thiscall CSenChunk::SetLogger(class RFileLogger *)
	??8CSenIdentifier@@QAEHABV0@@Z @ 121 NONAME ; public: int __thiscall CSenIdentifier::operator==(class CSenIdentifier const &)
	?NewLC@CSenWsSecurityHeader@@SAPAV1@ABVTDesC8@@@Z @ 122 NONAME ; public: static class CSenWsSecurityHeader * __cdecl CSenWsSecurityHeader::NewLC(class TDesC8 const &)
	?NewLC@CSenWsSecurityHeader@@SAPAV1@XZ @ 123 NONAME ; public: static class CSenWsSecurityHeader * __cdecl CSenWsSecurityHeader::NewLC(void)
	?TimestampL@CSenWsSecurityHeader@@SAHABVTDesC8@@0AAPAVHBufC8@@@Z @ 124 NONAME ; public: static int __cdecl CSenWsSecurityHeader::TimestampL(class TDesC8 const &,class TDesC8 const &,class HBufC8 * &)
	?TimestampL@CSenWsSecurityHeader@@SAHABVTDesC8@@AAPAVHBufC8@@@Z @ 125 NONAME ; public: static int __cdecl CSenWsSecurityHeader::TimestampL(class TDesC8 const &,class HBufC8 * &)
	?UsernameTokenL@CSenWsSecurityHeader@@QAEPAVHBufC8@@AAVCSenIdentityProvider@@W4TPasswordType@1@@Z @ 126 NONAME ; public: class HBufC8 * __thiscall CSenWsSecurityHeader::UsernameTokenL(class CSenIdentityProvider &,enum CSenWsSecurityHeader::TPasswordType)
	?UsernameTokenL@CSenWsSecurityHeader@@SAHABVTDesC8@@0AAPAVHBufC8@@@Z @ 127 NONAME ; public: static int __cdecl CSenWsSecurityHeader::UsernameTokenL(class TDesC8 const &,class TDesC8 const &,class HBufC8 * &)
	?UsernameTokenL@CSenWsSecurityHeader@@SAHABVTDesC8@@0W4TPasswordType@1@AAPAVHBufC8@@@Z @ 128 NONAME ; public: static int __cdecl CSenWsSecurityHeader::UsernameTokenL(class TDesC8 const &,class TDesC8 const &,enum CSenWsSecurityHeader::TPasswordType,class HBufC8 * &)
	??0CSenTransportProperties@@IAE@XZ @ 129 NONAME ; protected: __thiscall CSenTransportProperties::CSenTransportProperties(void)
	??1CSenTransportProperties@@UAE@XZ @ 130 NONAME ; public: virtual __thiscall CSenTransportProperties::~CSenTransportProperties(void)
	?SoapActionL@CSenTransportProperties@@UAEHAAVTPtrC8@@@Z @ 131 NONAME ; public: virtual int __thiscall CSenTransportProperties::SoapActionL(class TPtrC8 &)
	?AsUtf8L@CSenTransportProperties@@UAEPAVHBufC8@@XZ @ 132 NONAME ; public: virtual class HBufC8 * __thiscall CSenTransportProperties::AsUtf8L(void)
	?AsUtf8LC@CSenTransportProperties@@UAEPAVHBufC8@@XZ @ 133 NONAME ; public: virtual class HBufC8 * __thiscall CSenTransportProperties::AsUtf8LC(void)
	?BaseConstructL@CSenSoapEnvelope@@IAEXW4TSOAPVersion@@@Z @ 134 NONAME ; protected: void __thiscall CSenSoapEnvelope::BaseConstructL(enum TSOAPVersion)
	?BaseConstructL@CSenSoapMessage@@IAEXW4TSOAPVersion@@@Z @ 135 NONAME ; protected: void __thiscall CSenSoapMessage::BaseConstructL(enum TSOAPVersion)
	?BaseConstructL@CSenSoapMessage@@IAEXW4TSOAPVersion@@ABVTDesC8@@@Z @ 136 NONAME ; protected: void __thiscall CSenSoapMessage::BaseConstructL(enum TSOAPVersion,class TDesC8 const &)
	?BaseConstructL@CSenTransportProperties@@MAEXABVCSenElement@@@Z @ 137 NONAME ; protected: virtual void __thiscall CSenTransportProperties::BaseConstructL(class CSenElement const &)
	?BaseConstructL@CSenTransportProperties@@MAEXABVTDesC8@@000PAVCSenXmlReader@@@Z @ 138 NONAME ; protected: virtual void __thiscall CSenTransportProperties::BaseConstructL(class TDesC8 const &,class TDesC8 const &,class TDesC8 const &,class TDesC8 const &,class CSenXmlReader *)
	?BaseConstructL@CSenTransportProperties@@MAEXABVTDesC8@@00PAVCSenXmlReader@@@Z @ 139 NONAME ; protected: virtual void __thiscall CSenTransportProperties::BaseConstructL(class TDesC8 const &,class TDesC8 const &,class TDesC8 const &,class CSenXmlReader *)
	?BaseConstructL@CSenTransportProperties@@MAEXABVTDesC8@@0PAVCSenXmlReader@@@Z @ 140 NONAME ; protected: virtual void __thiscall CSenTransportProperties::BaseConstructL(class TDesC8 const &,class TDesC8 const &,class CSenXmlReader *)
	?BaseConstructL@CSenWsSecurityHeader@@IAEXABVTDesC8@@0@Z @ 141 NONAME ; protected: void __thiscall CSenWsSecurityHeader::BaseConstructL(class TDesC8 const &,class TDesC8 const &)
	?BinarySecurityTokenL@CSenWsSecurityHeader@@SAHABVTDesC8@@AAPAVHBufC8@@@Z @ 142 NONAME ; public: static int __cdecl CSenWsSecurityHeader::BinarySecurityTokenL(class TDesC8 const &,class HBufC8 * &)
	?BoolPropertyL@CSenTransportProperties@@UAEHABVTDesC8@@AAH@Z @ 143 NONAME ; public: virtual int __thiscall CSenTransportProperties::BoolPropertyL(class TDesC8 const &,int &)
	?DecodeBase64L@SenCryptoUtils@@SAPAVHBufC8@@ABVTDesC8@@@Z @ 144 NONAME ; public: static class HBufC8 * __cdecl SenCryptoUtils::DecodeBase64L(class TDesC8 const &)
	?DeviceIDL@CSenTransportProperties@@UAEHAAVTPtrC8@@@Z @ 145 NONAME ; public: virtual int __thiscall CSenTransportProperties::DeviceIDL(class TPtrC8 &)
	?EncodeBase64L@SenCryptoUtils@@SAPAVHBufC8@@ABVTDesC8@@@Z @ 146 NONAME ; public: static class HBufC8 * __cdecl SenCryptoUtils::EncodeBase64L(class TDesC8 const &)
	?FaultSubcode@CSenSoapFault@@QAE?AVTPtrC8@@XZ @ 147 NONAME ; public: class TPtrC8 __thiscall CSenSoapFault::FaultSubcode(void)
	?IapIdL@CSenTransportProperties@@UAEHAAK@Z @ 148 NONAME ; public: virtual int __thiscall CSenTransportProperties::IapIdL(unsigned long &)
	?IntPropertyL@CSenTransportProperties@@UAEHABVTDesC8@@AAH@Z @ 149 NONAME ; public: virtual int __thiscall CSenTransportProperties::IntPropertyL(class TDesC8 const &,int &)
	?NewL@CSenHttpTransportProperties@@SAPAV1@ABVCSenElement@@@Z @ 150 NONAME ; public: static class CSenHttpTransportProperties * __cdecl CSenHttpTransportProperties::NewL(class CSenElement const &)
	?NewL@CSenHttpTransportProperties@@SAPAV1@ABVTDesC8@@AAVCSenXmlReader@@@Z @ 151 NONAME ; public: static class CSenHttpTransportProperties * __cdecl CSenHttpTransportProperties::NewL(class TDesC8 const &,class CSenXmlReader &)
	?NewL@CSenHttpTransportProperties@@SAPAV1@XZ @ 152 NONAME ; public: static class CSenHttpTransportProperties * __cdecl CSenHttpTransportProperties::NewL(void)
	?NewL@CSenPropertiesElement@@SAPAV1@ABVTDesC8@@00ABV?$RArray@VRAttribute@Xml@@@@AAVCSenElement@@PAVRStringPool@@@Z @ 153 NONAME ; public: static class CSenPropertiesElement * __cdecl CSenPropertiesElement::NewL(class TDesC8 const &,class TDesC8 const &,class TDesC8 const &,class RArray<class Xml::RAttribute> const &,class CSenElement &,class RStringPool *)
	?NewL@CSenPropertiesElement@@SAPAV1@ABVTDesC8@@00ABV?$RArray@VRAttribute@Xml@@@@PAVRStringPool@@@Z @ 154 NONAME ; public: static class CSenPropertiesElement * __cdecl CSenPropertiesElement::NewL(class TDesC8 const &,class TDesC8 const &,class TDesC8 const &,class RArray<class Xml::RAttribute> const &,class RStringPool *)
	?NewL@CSenPropertiesElement@@SAPAV1@ABVTDesC8@@00PAVRStringPool@@@Z @ 155 NONAME ; public: static class CSenPropertiesElement * __cdecl CSenPropertiesElement::NewL(class TDesC8 const &,class TDesC8 const &,class TDesC8 const &,class RStringPool *)
	?NewL@CSenPropertiesElement@@SAPAV1@ABVTDesC8@@0PAVRStringPool@@@Z @ 156 NONAME ; public: static class CSenPropertiesElement * __cdecl CSenPropertiesElement::NewL(class TDesC8 const &,class TDesC8 const &,class RStringPool *)
	?NewL@CSenPropertiesElement@@SAPAV1@ABVTDesC8@@PAVRStringPool@@@Z @ 157 NONAME ; public: static class CSenPropertiesElement * __cdecl CSenPropertiesElement::NewL(class TDesC8 const &,class RStringPool *)
	?NewL@CSenPropertiesFragment@@SAPAV1@ABVCSenElement@@PAVRStringPool@@@Z @ 158 NONAME ; public: static class CSenPropertiesFragment * __cdecl CSenPropertiesFragment::NewL(class CSenElement const &,class RStringPool *)
	?NewL@CSenPropertiesFragment@@SAPAV1@ABVTDesC8@@00ABV?$RArray@VRAttribute@Xml@@@@AAVCSenElement@@PAVRStringPool@@@Z @ 159 NONAME ; public: static class CSenPropertiesFragment * __cdecl CSenPropertiesFragment::NewL(class TDesC8 const &,class TDesC8 const &,class TDesC8 const &,class RArray<class Xml::RAttribute> const &,class CSenElement &,class RStringPool *)
	?NewL@CSenPropertiesFragment@@SAPAV1@ABVTDesC8@@00ABV?$RArray@VRAttribute@Xml@@@@PAVRStringPool@@@Z @ 160 NONAME ; public: static class CSenPropertiesFragment * __cdecl CSenPropertiesFragment::NewL(class TDesC8 const &,class TDesC8 const &,class TDesC8 const &,class RArray<class Xml::RAttribute> const &,class RStringPool *)
	?NewL@CSenPropertiesFragment@@SAPAV1@ABVTDesC8@@00PAVRStringPool@@@Z @ 161 NONAME ; public: static class CSenPropertiesFragment * __cdecl CSenPropertiesFragment::NewL(class TDesC8 const &,class TDesC8 const &,class TDesC8 const &,class RStringPool *)
	?NewL@CSenPropertiesFragment@@SAPAV1@ABVTDesC8@@0PAVRStringPool@@@Z @ 162 NONAME ; public: static class CSenPropertiesFragment * __cdecl CSenPropertiesFragment::NewL(class TDesC8 const &,class TDesC8 const &,class RStringPool *)
	?NewL@CSenPropertiesFragment@@SAPAV1@ABVTDesC8@@PAVRStringPool@@@Z @ 163 NONAME ; public: static class CSenPropertiesFragment * __cdecl CSenPropertiesFragment::NewL(class TDesC8 const &,class RStringPool *)
	?NewL@CSenPropertiesFragment@@SAPAV1@PAVRStringPool@@@Z @ 164 NONAME ; public: static class CSenPropertiesFragment * __cdecl CSenPropertiesFragment::NewL(class RStringPool *)
	?NewL@CSenSoapMessage@@SAPAV1@W4TSOAPVersion@@@Z @ 165 NONAME ; public: static class CSenSoapMessage * __cdecl CSenSoapMessage::NewL(enum TSOAPVersion)
	?NewL@CSenSoapMessage@@SAPAV1@W4TSOAPVersion@@ABVTDesC8@@@Z @ 166 NONAME ; public: static class CSenSoapMessage * __cdecl CSenSoapMessage::NewL(enum TSOAPVersion,class TDesC8 const &)
	?NewL@CSenTransportProperties@@SAPAV1@ABVCSenElement@@@Z @ 167 NONAME ; public: static class CSenTransportProperties * __cdecl CSenTransportProperties::NewL(class CSenElement const &)
	?NewL@CSenTransportProperties@@SAPAV1@ABVTDesC8@@AAVCSenXmlReader@@@Z @ 168 NONAME ; public: static class CSenTransportProperties * __cdecl CSenTransportProperties::NewL(class TDesC8 const &,class CSenXmlReader &)
	?NewL@CSenTransportProperties@@SAPAV1@XZ @ 169 NONAME ; public: static class CSenTransportProperties * __cdecl CSenTransportProperties::NewL(void)
	?NewL@CSenVtcpTransportProperties@@SAPAV1@ABVTDesC8@@AAVCSenXmlReader@@@Z @ 170 NONAME ; public: static class CSenVtcpTransportProperties * __cdecl CSenVtcpTransportProperties::NewL(class TDesC8 const &,class CSenXmlReader &)
	?NewL@CSenVtcpTransportProperties@@SAPAV1@XZ @ 171 NONAME ; public: static class CSenVtcpTransportProperties * __cdecl CSenVtcpTransportProperties::NewL(void)
	?NewL@CSenWsSecurityHeader@@SAPAV1@ABVTDesC8@@0@Z @ 172 NONAME ; public: static class CSenWsSecurityHeader * __cdecl CSenWsSecurityHeader::NewL(class TDesC8 const &,class TDesC8 const &)
	?NewL@CSenXmlProperties@@SAPAV1@ABVCSenElement@@@Z @ 173 NONAME ; public: static class CSenXmlProperties * __cdecl CSenXmlProperties::NewL(class CSenElement const &)
	?NewL@CSenXmlProperties@@SAPAV1@ABVTDesC8@@AAVCSenXmlReader@@@Z @ 174 NONAME ; public: static class CSenXmlProperties * __cdecl CSenXmlProperties::NewL(class TDesC8 const &,class CSenXmlReader &)
	?NewL@CSenXmlProperties@@SAPAV1@XZ @ 175 NONAME ; public: static class CSenXmlProperties * __cdecl CSenXmlProperties::NewL(void)
	?NewLC@CSenHttpTransportProperties@@SAPAV1@ABVCSenElement@@@Z @ 176 NONAME ; public: static class CSenHttpTransportProperties * __cdecl CSenHttpTransportProperties::NewLC(class CSenElement const &)
	?NewLC@CSenHttpTransportProperties@@SAPAV1@ABVTDesC8@@AAVCSenXmlReader@@@Z @ 177 NONAME ; public: static class CSenHttpTransportProperties * __cdecl CSenHttpTransportProperties::NewLC(class TDesC8 const &,class CSenXmlReader &)
	?NewLC@CSenHttpTransportProperties@@SAPAV1@XZ @ 178 NONAME ; public: static class CSenHttpTransportProperties * __cdecl CSenHttpTransportProperties::NewLC(void)
	?NewLC@CSenTransportProperties@@SAPAV1@ABVCSenElement@@@Z @ 179 NONAME ; public: static class CSenTransportProperties * __cdecl CSenTransportProperties::NewLC(class CSenElement const &)
	?NewLC@CSenTransportProperties@@SAPAV1@ABVTDesC8@@AAVCSenXmlReader@@@Z @ 180 NONAME ; public: static class CSenTransportProperties * __cdecl CSenTransportProperties::NewLC(class TDesC8 const &,class CSenXmlReader &)
	?NewLC@CSenTransportProperties@@SAPAV1@XZ @ 181 NONAME ; public: static class CSenTransportProperties * __cdecl CSenTransportProperties::NewLC(void)
	?NewLC@CSenVtcpTransportProperties@@SAPAV1@ABVTDesC8@@AAVCSenXmlReader@@@Z @ 182 NONAME ; public: static class CSenVtcpTransportProperties * __cdecl CSenVtcpTransportProperties::NewLC(class TDesC8 const &,class CSenXmlReader &)
	?NewLC@CSenVtcpTransportProperties@@SAPAV1@XZ @ 183 NONAME ; public: static class CSenVtcpTransportProperties * __cdecl CSenVtcpTransportProperties::NewLC(void)
	?NewLC@CSenWsSecurityHeader@@SAPAV1@ABVTDesC8@@0@Z @ 184 NONAME ; public: static class CSenWsSecurityHeader * __cdecl CSenWsSecurityHeader::NewLC(class TDesC8 const &,class TDesC8 const &)
	?NewLC@CSenXmlProperties@@SAPAV1@ABVCSenElement@@@Z @ 185 NONAME ; public: static class CSenXmlProperties * __cdecl CSenXmlProperties::NewLC(class CSenElement const &)
	?NewLC@CSenXmlProperties@@SAPAV1@ABVTDesC8@@AAVCSenXmlReader@@@Z @ 186 NONAME ; public: static class CSenXmlProperties * __cdecl CSenXmlProperties::NewLC(class TDesC8 const &,class CSenXmlReader &)
	?NewLC@CSenXmlProperties@@SAPAV1@XZ @ 187 NONAME ; public: static class CSenXmlProperties * __cdecl CSenXmlProperties::NewLC(void)
	?OpenChunkFromHandleNumberL@CSenChunk@@QAEHH@Z @ 188 NONAME ; public: int __thiscall CSenChunk::OpenChunkFromHandleNumberL(int)
	?PSHA1L@SenCryptoUtils@@SAPAVHBufC8@@ABVTDesC8@@0H@Z @ 189 NONAME ; public: static class HBufC8 * __cdecl SenCryptoUtils::PSHA1L(class TDesC8 const &,class TDesC8 const &,int)
	?PropertiesClassType@CSenTransportProperties@@UAE?AW4TSenPropertiesClassType@MSenProperties@@XZ @ 190 NONAME ; public: virtual enum MSenProperties::TSenPropertiesClassType __thiscall CSenTransportProperties::PropertiesClassType(void)
	?PropertyL@CSenTransportProperties@@UAEHABVTDesC8@@AAVTPtrC8@@1@Z @ 191 NONAME ; public: virtual int __thiscall CSenTransportProperties::PropertyL(class TDesC8 const &,class TPtrC8 &,class TPtrC8 &)
	?PropertyL@CSenTransportProperties@@UAEHABVTDesC8@@AAVTPtrC8@@@Z @ 192 NONAME ; public: virtual int __thiscall CSenTransportProperties::PropertyL(class TDesC8 const &,class TPtrC8 &)
	?ProxyHostL@CSenTransportProperties@@UAEHAAVTPtrC8@@@Z @ 193 NONAME ; public: virtual int __thiscall CSenTransportProperties::ProxyHostL(class TPtrC8 &)
	?ProxyPortL@CSenTransportProperties@@UAEHAAH@Z @ 194 NONAME ; public: virtual int __thiscall CSenTransportProperties::ProxyPortL(int &)
	?ProxyUsageL@CSenTransportProperties@@UAEHAAH@Z @ 195 NONAME ; public: virtual int __thiscall CSenTransportProperties::ProxyUsageL(int &)
	?RandomAndHashMd5LC@SenCryptoUtils@@SAPAVHBufC8@@XZ @ 196 NONAME ; public: static class HBufC8 * __cdecl SenCryptoUtils::RandomAndHashMd5LC(void)
	?ReadFromL@CSenTransportProperties@@UAEXABVTDesC8@@@Z @ 197 NONAME ; public: virtual void __thiscall CSenTransportProperties::ReadFromL(class TDesC8 const &)
	?RemovePropertyL@CSenTransportProperties@@UAEHABVTDesC8@@@Z @ 198 NONAME ; public: virtual int __thiscall CSenTransportProperties::RemovePropertyL(class TDesC8 const &)
	?SecureDialogL@CSenTransportProperties@@UAEHAAH@Z @ 199 NONAME ; public: virtual int __thiscall CSenTransportProperties::SecureDialogL(int &)
	?SetSoapActionL@CSenTransportProperties@@UAEXABVTDesC8@@@Z @ 200 NONAME ; public: virtual void __thiscall CSenTransportProperties::SetSoapActionL(class TDesC8 const &)
	?SetBoolPropertyL@CSenTransportProperties@@UAEHABVTDesC8@@H@Z @ 201 NONAME ; public: virtual int __thiscall CSenTransportProperties::SetBoolPropertyL(class TDesC8 const &,int)
	?SetDeviceIDL@CSenTransportProperties@@UAEXABVTDesC8@@@Z @ 202 NONAME ; public: virtual void __thiscall CSenTransportProperties::SetDeviceIDL(class TDesC8 const &)
	?SetIapIdL@CSenTransportProperties@@UAEXK@Z @ 203 NONAME ; public: virtual void __thiscall CSenTransportProperties::SetIapIdL(unsigned long)
	?SetIntPropertyL@CSenTransportProperties@@UAEHABVTDesC8@@H@Z @ 204 NONAME ; public: virtual int __thiscall CSenTransportProperties::SetIntPropertyL(class TDesC8 const &,int)
	?SetOmittedL@CSenTransportProperties@@UAEHABVTDesC8@@H@Z @ 205 NONAME ; public: virtual int __thiscall CSenTransportProperties::SetOmittedL(class TDesC8 const &,int)
	?SetPropertyL@CSenTransportProperties@@UAEHABVTDesC8@@00@Z @ 206 NONAME ; public: virtual int __thiscall CSenTransportProperties::SetPropertyL(class TDesC8 const &,class TDesC8 const &,class TDesC8 const &)
	?SetPropertyL@CSenTransportProperties@@UAEHABVTDesC8@@0@Z @ 207 NONAME ; public: virtual int __thiscall CSenTransportProperties::SetPropertyL(class TDesC8 const &,class TDesC8 const &)
	?SetProxyHostL@CSenTransportProperties@@UAEXABVTDesC8@@@Z @ 208 NONAME ; public: virtual void __thiscall CSenTransportProperties::SetProxyHostL(class TDesC8 const &)
	?SetProxyPortL@CSenTransportProperties@@UAEXH@Z @ 209 NONAME ; public: virtual void __thiscall CSenTransportProperties::SetProxyPortL(int)
	?SetProxyUsageL@CSenTransportProperties@@UAEXH@Z @ 210 NONAME ; public: virtual void __thiscall CSenTransportProperties::SetProxyUsageL(int)
	?SetReader@CSenTransportProperties@@UAEXAAVCSenXmlReader@@@Z @ 211 NONAME ; public: virtual void __thiscall CSenTransportProperties::SetReader(class CSenXmlReader &)
	?SetSecureDialogL@CSenTransportProperties@@UAEXH@Z @ 212 NONAME ; public: virtual void __thiscall CSenTransportProperties::SetSecureDialogL(int)
	?SetUserAgentL@CSenTransportProperties@@UAEXABVTDesC8@@@Z @ 213 NONAME ; public: virtual void __thiscall CSenTransportProperties::SetUserAgentL(class TDesC8 const &)
	?UserAgentL@CSenTransportProperties@@UAEHAAVTPtrC8@@@Z @ 214 NONAME ; public: virtual int __thiscall CSenTransportProperties::UserAgentL(class TPtrC8 &)
	?WriteToL@CSenTransportProperties@@UAEXAAVRWriteStream@@@Z @ 215 NONAME ; public: virtual void __thiscall CSenTransportProperties::WriteToL(class RWriteStream &)
	?ApplyBindingL@CSenTransportProperties@@UAEXW4TSOAPVersion@@@Z @ 216 NONAME ; public: virtual void __thiscall CSenTransportProperties::ApplyBindingL(enum TSOAPVersion)
	?SoapVersion@CSenSoapEnvelope@@UAE?AW4TSOAPVersion@@XZ @ 217 NONAME ; public: virtual enum TSOAPVersion __thiscall CSenSoapEnvelope::SoapVersion(void)

