EXPORTS
	_ZN15RControlChannel4OpenER11RSocketServR14RSubConnectionjijRK18TConnectionDetails @ 1 NONAME
	_ZN15RControlChannel4RecvER15TControlMessageR14TRequestStatus @ 2 NONAME
	_ZN15RControlChannel4SendER15TControlMessageR14TRequestStatus @ 3 NONAME
	_ZN15RControlChannel5CloseEv @ 4 NONAME
	_ZN15RControlChannelC1Ev @ 5 NONAME
	_ZN15RControlChannelC2Ev @ 6 NONAME
	_ZN15TControlMessage10ClearFlagsEv @ 7 NONAME
	_ZN15TControlMessage10MessagePtrEv @ 8 NONAME
	_ZN15TControlMessage12SetMaxLengthEi @ 9 NONAME
	_ZN15TControlMessage13SetMessageDesERK6TDesC8 @ 10 NONAME
	_ZN15TControlMessage13SetMessagePtrER5TDes8 @ 11 NONAME
	_ZN15TControlMessage7SetLastEv @ 12 NONAME
	_ZN15TControlMessageC1Ev @ 13 NONAME
	_ZN15TControlMessageC2Ev @ 14 NONAME
	_ZN15TControlMessageD1Ev @ 15 NONAME
	_ZN15TControlMessageD2Ev @ 16 NONAME
	_ZN19RPnPParameterBundle14SetPnPObserverEP12MPnPObserver @ 17 NONAME
	_ZN20RPnPServiceDiscovery14RegisterNotifyERK19RPnPParameterBundle @ 18 NONAME
	_ZN20RPnPServiceDiscovery15InitiateControlER15RControlChannelRK6TDesC8 @ 19 NONAME
	_ZN20RPnPServiceDiscovery4OpenEj @ 20 NONAME
	_ZN20RPnPServiceDiscovery5CloseEv @ 21 NONAME
	_ZN20RPnPServiceDiscovery6CancelERK19RPnPParameterBundle @ 22 NONAME
	_ZN20RPnPServiceDiscovery8DescribeERK19RPnPParameterBundle @ 23 NONAME
	_ZN20RPnPServiceDiscovery8DiscoverERK19RPnPParameterBundle @ 24 NONAME
	_ZN20RPnPServiceDiscovery9SubscribeERK19RPnPParameterBundle @ 25 NONAME
	_ZN20RPnPServiceDiscoveryC1Ev @ 26 NONAME
	_ZN20RPnPServiceDiscoveryC2Ev @ 27 NONAME
	_ZN20RPnPServicePublisher10SendNotifyERK19RPnPParameterBundle @ 28 NONAME
	_ZN20RPnPServicePublisher15InitiateControlER15RControlChannel @ 29 NONAME
	_ZN20RPnPServicePublisher4OpenEj @ 30 NONAME
	_ZN20RPnPServicePublisher5CloseEv @ 31 NONAME
	_ZN20RPnPServicePublisher7PublishERK19RPnPParameterBundle @ 32 NONAME
	_ZN20RPnPServicePublisherC1Ev @ 33 NONAME
	_ZN20RPnPServicePublisherC2Ev @ 34 NONAME
	_ZN23RPnPParameterBundleBase4OpenEv @ 35 NONAME
	_ZN23RPnPParameterBundleBase5CloseEv @ 36 NONAME
	_ZN24CPnPServiceDiscoveryBaseC2Ev @ 37 NONAME
	_ZN24CPnPServiceDiscoveryBaseD0Ev @ 38 NONAME
	_ZN24CPnPServiceDiscoveryBaseD1Ev @ 39 NONAME
	_ZN24CPnPServiceDiscoveryBaseD2Ev @ 40 NONAME
	_ZN24CPnPServicePublisherBaseC2Ev @ 41 NONAME
	_ZN24CPnPServicePublisherBaseD0Ev @ 42 NONAME
	_ZN24CPnPServicePublisherBaseD1Ev @ 43 NONAME
	_ZN24CPnPServicePublisherBaseD2Ev @ 44 NONAME
	_ZNK15TControlMessage10MessageDesEv @ 45 NONAME
	_ZNK15TControlMessage6IsLastEv @ 46 NONAME
	_ZNK15TControlMessage9MaxLengthEv @ 47 NONAME
	_ZNK19RPnPParameterBundle11PnPObserverEv @ 48 NONAME
	_ZTI15CControlChannel @ 49 NONAME
	_ZTI21CControlChannelReader @ 50 NONAME
	_ZTI21CControlChannelWriter @ 51 NONAME
	_ZTI22CControlChannelHandler @ 52 NONAME
	_ZTI24CPnPServiceDiscoveryBase @ 53 NONAME
	_ZTI24CPnPServicePublisherBase @ 54 NONAME
	_ZTIN4Meta18RMetaDataContainerINS_13SMetaDataEComEEE @ 55 NONAME
	_ZTV15CControlChannel @ 56 NONAME
	_ZTV21CControlChannelReader @ 57 NONAME
	_ZTV21CControlChannelWriter @ 58 NONAME
	_ZTV22CControlChannelHandler @ 59 NONAME
	_ZTV24CPnPServiceDiscoveryBase @ 60 NONAME
	_ZTV24CPnPServicePublisherBase @ 61 NONAME
	_ZTVN4Meta18RMetaDataContainerINS_13SMetaDataEComEEE @ 62 NONAME

