EXPORTS
	?NewLC@CSenIdentityProvider@@SAPAV1@ABVTDesC8@@0@Z @ 1 NONAME ; class CSenIdentityProvider * CSenIdentityProvider::NewLC(class TDesC8 const &, class TDesC8 const &)
	?AdvisoryAuthnID@CSenIdentityProvider@@UAE?AVTPtrC8@@XZ @ 2 NONAME ; class TPtrC8 CSenIdentityProvider::AdvisoryAuthnID(void)
	?SetProviderIdL@CSenXmlServiceDescription@@QAEHABVTDesC8@@@Z @ 3 NONAME ; int CSenXmlServiceDescription::SetProviderIdL(class TDesC8 const &)
	?Id@CSenCredential@@QAEABVTDesC8@@XZ @ 4 NONAME ; class TDesC8 const & CSenCredential::Id(void)
	?FacetsL@CSenXmlServiceDescription@@UAEHAAV?$RPointerArray@VCSenFacet@@@@@Z @ 5 NONAME ; int CSenXmlServiceDescription::FacetsL(class RPointerArray<class CSenFacet> &)
	?ConstructL@CSenIdentityProvider@@IAEXABVTDesC8@@000@Z @ 6 NONAME ; void CSenIdentityProvider::ConstructL(class TDesC8 const &, class TDesC8 const &, class TDesC8 const &, class TDesC8 const &)
	??1CSenXmlServiceDescription@@UAE@XZ @ 7 NONAME ; CSenXmlServiceDescription::~CSenXmlServiceDescription(void)
	?SetPromptUserInfoL@CSenXmlServiceDescription@@QAEXH@Z @ 8 NONAME ; void CSenXmlServiceDescription::SetPromptUserInfoL(int)
	?IdentityProviderIds8L@CSenXmlServiceDescription@@UAEABVCSenIdentityProviderIdArray8@@XZ @ 9 NONAME ; class CSenIdentityProviderIdArray8 const & CSenXmlServiceDescription::IdentityProviderIds8L(void)
	??1CSenCredential2@@UAE@XZ @ 10 NONAME ; CSenCredential2::~CSenCredential2(void)
	?NewLC@CSenIdentityProvider@@SAPAV1@ABVTDesC8@@@Z @ 11 NONAME ; class CSenIdentityProvider * CSenIdentityProvider::NewLC(class TDesC8 const &)
	?StartElementL@CSenXmlServiceDescription@@MAEXABVTDesC8@@00ABV?$RArray@VRAttribute@Xml@@@@@Z @ 12 NONAME ; void CSenXmlServiceDescription::StartElementL(class TDesC8 const &, class TDesC8 const &, class TDesC8 const &, class RArray<class Xml::RAttribute> const &)
	?BaseConstructL@CSenProviderPolicy@@AAEXXZ @ 13 NONAME ; void CSenProviderPolicy::BaseConstructL(void)
	?RebuildFrom@CSenProviderPolicy@@UAEHAAVMSenProviderPolicy@@@Z @ 14 NONAME ; int CSenProviderPolicy::RebuildFrom(class MSenProviderPolicy &)
	?BaseConstructL@CSenCredential2@@IAEXABVTDesC8@@00ABV?$RArray@VRAttribute@Xml@@@@@Z @ 15 NONAME ; void CSenCredential2::BaseConstructL(class TDesC8 const &, class TDesC8 const &, class TDesC8 const &, class RArray<class Xml::RAttribute> const &)
	?FacetValue@CSenXmlServiceDescription@@UAEHAAVTDesC8@@AAPAVHBufC8@@@Z @ 16 NONAME ; int CSenXmlServiceDescription::FacetValue(class TDesC8 &, class HBufC8 * &)
	?BaseConstructL@CSenServicePattern@@IAEXXZ @ 17 NONAME ; void CSenServicePattern::BaseConstructL(void)
	?AuthzID@CSenIdentityProvider@@UAE?AVTPtrC8@@XZ @ 18 NONAME ; class TPtrC8 CSenIdentityProvider::AuthzID(void)
	?NewLC@CSenCredential2@@SAPAV1@ABVTDesC8@@00ABV?$RArray@VRAttribute@Xml@@@@AAVTXmlEngElement@@AAVRSenDocument@@@Z @ 19 NONAME ; class CSenCredential2 * CSenCredential2::NewLC(class TDesC8 const &, class TDesC8 const &, class TDesC8 const &, class RArray<class Xml::RAttribute> const &, class TXmlEngElement &, class RSenDocument &)
	?NewL@CSenPolicy@@SAPAV1@XZ @ 20 NONAME ; class CSenPolicy * CSenPolicy::NewL(void)
	?NewL@CSenXmlServiceDescription@@SAPAV1@XZ @ 21 NONAME ; class CSenXmlServiceDescription * CSenXmlServiceDescription::NewL(void)
	?NewL@CSenFacet@@SAPAV1@XZ @ 22 NONAME ; class CSenFacet * CSenFacet::NewL(void)
	?IapId@CSenXmlServiceDescription@@UAEHAAK@Z @ 23 NONAME ; int CSenXmlServiceDescription::IapId(unsigned long &)
	?UserName@CSenIdentityProvider@@QAE?AVTPtrC8@@XZ @ 24 NONAME ; class TPtrC8 CSenIdentityProvider::UserName(void)
	?ConstructL@CSenIdentityProvider@@IAEXABVTDesC8@@@Z @ 25 NONAME ; void CSenIdentityProvider::ConstructL(class TDesC8 const &)
	?NewLC@CSenXmlServiceDescription@@SAPAV1@ABVTDesC8@@0@Z @ 26 NONAME ; class CSenXmlServiceDescription * CSenXmlServiceDescription::NewLC(class TDesC8 const &, class TDesC8 const &)
	?NewLC@CSenProviderPolicy@@SAPAV1@XZ @ 27 NONAME ; class CSenProviderPolicy * CSenProviderPolicy::NewLC(void)
	?NewLC@CSenIdentityProviderIdArray8@@SAPAV1@XZ @ 28 NONAME ; class CSenIdentityProviderIdArray8 * CSenIdentityProviderIdArray8::NewLC(void)
	?NewL@CSenIdentityProvider@@SAPAV1@ABVTDesC8@@000@Z @ 29 NONAME ; class CSenIdentityProvider * CSenIdentityProvider::NewL(class TDesC8 const &, class TDesC8 const &, class TDesC8 const &, class TDesC8 const &)
	?NewL@CSenPolicy@@SAPAV1@K@Z @ 30 NONAME ; class CSenPolicy * CSenPolicy::NewL(unsigned long)
	?Matches@CSenServicePattern@@UAEHAAVMSenServiceDescription@@@Z @ 31 NONAME ; int CSenServicePattern::Matches(class MSenServiceDescription &)
	?SetIapIdL@CSenPolicy@@UAEXK@Z @ 32 NONAME ; void CSenPolicy::SetIapIdL(unsigned long)
	?NewLC@CSenPolicy@@SAPAV1@KH@Z @ 33 NONAME ; class CSenPolicy * CSenPolicy::NewLC(unsigned long, int)
	?ConstructL@CSenFacet@@IAEXABVTDesC8@@00ABV?$RArray@VRAttribute@Xml@@@@@Z @ 34 NONAME ; void CSenFacet::ConstructL(class TDesC8 const &, class TDesC8 const &, class TDesC8 const &, class RArray<class Xml::RAttribute> const &)
	?SetContractL@CSenXmlServiceDescription@@UAEXABVTDesC8@@@Z @ 35 NONAME ; void CSenXmlServiceDescription::SetContractL(class TDesC8 const &)
	?NewLC@CSenConsumerPolicy@@SAPAV1@K@Z @ 36 NONAME ; class CSenConsumerPolicy * CSenConsumerPolicy::NewLC(unsigned long)
	?Contract@CSenXmlServiceDescription@@UAE?AVTPtrC8@@XZ @ 37 NONAME ; class TPtrC8 CSenXmlServiceDescription::Contract(void)
	?ConstructL@CSenXmlServiceDescription@@IAEXABVTDesC8@@@Z @ 38 NONAME ; void CSenXmlServiceDescription::ConstructL(class TDesC8 const &)
	??0CSenXmlServiceDescription@@IAE@W4TDescriptionClassType@MSenServiceDescription@@@Z @ 39 NONAME ; CSenXmlServiceDescription::CSenXmlServiceDescription(enum MSenServiceDescription::TDescriptionClassType)
	?SetValidUntil@CSenCredential@@QAEXAAVTTime@@@Z @ 40 NONAME ; void CSenCredential::SetValidUntil(class TTime &)
	?NewLC@CSenCredential@@SAPAV1@ABVTDesC8@@00ABV?$RArray@VRAttribute@Xml@@@@@Z @ 41 NONAME ; class CSenCredential * CSenCredential::NewLC(class TDesC8 const &, class TDesC8 const &, class TDesC8 const &, class RArray<class Xml::RAttribute> const &)
	?BaseConstructL@CSenConsumerPolicy@@AAEXKH@Z @ 42 NONAME ; void CSenConsumerPolicy::BaseConstructL(unsigned long, int)
	?NewLC@CSenCredential@@SAPAV1@ABV1@@Z @ 43 NONAME ; class CSenCredential * CSenCredential::NewLC(class CSenCredential const &)
	?NewL@CSenConsumerPolicy@@SAPAV1@K@Z @ 44 NONAME ; class CSenConsumerPolicy * CSenConsumerPolicy::NewL(unsigned long)
	?RebuildFrom@CSenConsumerPolicy@@UAEHAAVMSenConsumerPolicy@@@Z @ 45 NONAME ; int CSenConsumerPolicy::RebuildFrom(class MSenConsumerPolicy &)
	?Id@CSenCredential2@@UAEABVTDesC8@@XZ @ 46 NONAME ; class TDesC8 const & CSenCredential2::Id(void)
	?IsLocalL@CSenXmlServiceDescription@@QAEHXZ @ 47 NONAME ; int CSenXmlServiceDescription::IsLocalL(void)
	?EndElementL@CSenXmlServiceDescription@@MAEXABVTDesC8@@00@Z @ 48 NONAME ; void CSenXmlServiceDescription::EndElementL(class TDesC8 const &, class TDesC8 const &, class TDesC8 const &)
	?NewL@CSenCredential@@SAPAV1@ABV1@@Z @ 49 NONAME ; class CSenCredential * CSenCredential::NewL(class CSenCredential const &)
	?BaseConstructL@CSenPolicy@@IAEXABVTDesC8@@@Z @ 50 NONAME ; void CSenPolicy::BaseConstructL(class TDesC8 const &)
	?SetPolicyL@CSenXmlServiceDescription@@QAEHABVTDesC8@@@Z @ 51 NONAME ; int CSenXmlServiceDescription::SetPolicyL(class TDesC8 const &)
	?HasFacetL@CSenXmlServiceDescription@@UAEHABVTDesC8@@AAH@Z @ 52 NONAME ; int CSenXmlServiceDescription::HasFacetL(class TDesC8 const &, int &)
	?BaseConstructL@CSenCredential2@@IAEXABVTDesC8@@00ABV?$RArray@VRAttribute@Xml@@@@AAVTXmlEngElement@@@Z @ 53 NONAME ; void CSenCredential2::BaseConstructL(class TDesC8 const &, class TDesC8 const &, class TDesC8 const &, class RArray<class Xml::RAttribute> const &, class TXmlEngElement &)
	?SetUserInfoL@CSenIdentityProvider@@QAEHABVTDesC8@@00@Z @ 54 NONAME ; int CSenIdentityProvider::SetUserInfoL(class TDesC8 const &, class TDesC8 const &, class TDesC8 const &)
	?BaseConstructL@CSenPolicy@@IAEXABVTDesC8@@KH@Z @ 55 NONAME ; void CSenPolicy::BaseConstructL(class TDesC8 const &, unsigned long, int)
	?NewL@CSenServicePattern@@SAPAV1@ABVTDesC8@@0@Z @ 56 NONAME ; class CSenServicePattern * CSenServicePattern::NewL(class TDesC8 const &, class TDesC8 const &)
	?HttpCredentialsL@CSenIdentityProvider@@QAEPAVHBufC8@@AAVMSenIdentityManager@@@Z @ 57 NONAME ; class HBufC8 * CSenIdentityProvider::HttpCredentialsL(class MSenIdentityManager &)
	?ConstructL@CSenXmlServiceDescription@@IAEXABVTDesC8@@0@Z @ 58 NONAME ; void CSenXmlServiceDescription::ConstructL(class TDesC8 const &, class TDesC8 const &)
	?NewL@CSenIdentityProvider@@SAPAV1@ABVTDesC8@@0@Z @ 59 NONAME ; class CSenIdentityProvider * CSenIdentityProvider::NewL(class TDesC8 const &, class TDesC8 const &)
	?SetEndPointL@CSenXmlServiceDescription@@UAEXABVTDesC8@@@Z @ 60 NONAME ; void CSenXmlServiceDescription::SetEndPointL(class TDesC8 const &)
	?NewL@CSenXmlServiceDescription@@SAPAV1@ABVTDesC8@@@Z @ 61 NONAME ; class CSenXmlServiceDescription * CSenXmlServiceDescription::NewL(class TDesC8 const &)
	?SetProviderID@CSenIdentityProvider@@QAEHABVTDesC8@@@Z @ 62 NONAME ; int CSenIdentityProvider::SetProviderID(class TDesC8 const &)
	?SetConsumerIdentityProviderIdsL@CSenServicePattern@@UAEXAAVCSenIdentityProviderIdArray8@@@Z @ 63 NONAME ; void CSenServicePattern::SetConsumerIdentityProviderIdsL(class CSenIdentityProviderIdArray8 &)
	?NewLC@CSenXmlServiceDescription@@SAPAV1@ABVTDesC8@@@Z @ 64 NONAME ; class CSenXmlServiceDescription * CSenXmlServiceDescription::NewLC(class TDesC8 const &)
	?BaseConstructL@CSenConsumerPolicy@@AAEXXZ @ 65 NONAME ; void CSenConsumerPolicy::BaseConstructL(void)
	?NewLC@CSenCredential@@SAPAV1@ABVTDesC8@@00ABV?$RArray@VRAttribute@Xml@@@@AAVCSenElement@@@Z @ 66 NONAME ; class CSenCredential * CSenCredential::NewLC(class TDesC8 const &, class TDesC8 const &, class TDesC8 const &, class RArray<class Xml::RAttribute> const &, class CSenElement &)
	?StartElementL@CSenCredential@@MAEXABVTDesC8@@00ABV?$RArray@VRAttribute@Xml@@@@@Z @ 67 NONAME ; void CSenCredential::StartElementL(class TDesC8 const &, class TDesC8 const &, class TDesC8 const &, class RArray<class Xml::RAttribute> const &)
	?HasEqualPrimaryKeysL@CSenXmlServiceDescription@@QAEHAAVMSenServiceDescription@@@Z @ 68 NONAME ; int CSenXmlServiceDescription::HasEqualPrimaryKeysL(class MSenServiceDescription &)
	?Credentials@CSenXmlServiceDescription@@QAEAAV?$RPointerArray@VCSenCredential@@@@XZ @ 69 NONAME ; class RPointerArray<class CSenCredential> & CSenXmlServiceDescription::Credentials(void)
	?NewL@CSenServicePattern@@SAPAV1@XZ @ 70 NONAME ; class CSenServicePattern * CSenServicePattern::NewL(void)
	?SetIdL@CSenCredential2@@AAEXABVTDesC8@@@Z @ 71 NONAME ; void CSenCredential2::SetIdL(class TDesC8 const &)
	?AccountExtensions@CSenIdentityProvider@@QAE?AVTPtrC8@@AAPAVCSenElement@@@Z @ 72 NONAME ; class TPtrC8 CSenIdentityProvider::AccountExtensions(class CSenElement * &)
	?SetPolicyL@CSenXmlServiceDescription@@QAEHABVTDesC8@@0@Z @ 73 NONAME ; int CSenXmlServiceDescription::SetPolicyL(class TDesC8 const &, class TDesC8 const &)
	?NewLC@CSenServicePattern@@SAPAV1@ABVTDesC8@@@Z @ 74 NONAME ; class CSenServicePattern * CSenServicePattern::NewLC(class TDesC8 const &)
	?SetConsumerSnapIdL@CSenServicePattern@@QAEXK@Z @ 75 NONAME ; void CSenServicePattern::SetConsumerSnapIdL(unsigned long)
	?NewLC@CSenConsumerPolicy@@SAPAV1@XZ @ 76 NONAME ; class CSenConsumerPolicy * CSenConsumerPolicy::NewLC(void)
	?NewL@CSenIdentityProvider@@SAPAV1@ABVTDesC8@@00@Z @ 77 NONAME ; class CSenIdentityProvider * CSenIdentityProvider::NewL(class TDesC8 const &, class TDesC8 const &, class TDesC8 const &)
	?NewLC@CSenIdentityProviderIdArray8@@SAPAV1@H@Z @ 78 NONAME ; class CSenIdentityProviderIdArray8 * CSenIdentityProviderIdArray8::NewLC(int)
	?BaseConstructL@CSenProviderPolicy@@AAEXK@Z @ 79 NONAME ; void CSenProviderPolicy::BaseConstructL(unsigned long)
	?NewL@CSenCredential2@@SAPAV1@XZ @ 80 NONAME ; class CSenCredential2 * CSenCredential2::NewL(void)
	?NewLC@CSenConsumerPolicy@@SAPAV1@KH@Z @ 81 NONAME ; class CSenConsumerPolicy * CSenConsumerPolicy::NewLC(unsigned long, int)
	??1CSenCredential@@UAE@XZ @ 82 NONAME ; CSenCredential::~CSenCredential(void)
	?SnapId@CSenPolicy@@UAEHAAK@Z @ 83 NONAME ; int CSenPolicy::SnapId(unsigned long &)
	?FrameworkVersion@CSenXmlServiceDescription@@UAE?AVTPtrC8@@XZ @ 84 NONAME ; class TPtrC8 CSenXmlServiceDescription::FrameworkVersion(void)
	?SetTransportPropertiesL@CSenXmlServiceDescription@@QAEHABVTDesC8@@@Z @ 85 NONAME ; int CSenXmlServiceDescription::SetTransportPropertiesL(class TDesC8 const &)
	?Name@CSenFacet@@UAE?AVTPtrC8@@XZ @ 86 NONAME ; class TPtrC8 CSenFacet::Name(void)
	?SetSnapIdL@CSenXmlServiceDescription@@QAEXK@Z @ 87 NONAME ; void CSenXmlServiceDescription::SetSnapIdL(unsigned long)
	??1CSenIdentityProvider@@UAE@XZ @ 88 NONAME ; CSenIdentityProvider::~CSenIdentityProvider(void)
	?TransportPropertiesL@CSenProviderPolicy@@QAEHAAPAVHBufC8@@@Z @ 89 NONAME ; int CSenProviderPolicy::TransportPropertiesL(class HBufC8 * &)
	?NewLC@CSenPolicy@@SAPAV1@K@Z @ 90 NONAME ; class CSenPolicy * CSenPolicy::NewLC(unsigned long)
	?ServicePolicy@CSenXmlServiceDescription@@QAEPAVMSenServicePolicy@@XZ @ 91 NONAME ; class MSenServicePolicy * CSenXmlServiceDescription::ServicePolicy(void)
	?ResumeParsingFromL@CSenXmlServiceDescription@@UAEXABVTDesC8@@00@Z @ 92 NONAME ; void CSenXmlServiceDescription::ResumeParsingFromL(class TDesC8 const &, class TDesC8 const &, class TDesC8 const &)
	?BaseConstructL@CSenServicePattern@@IAEXABVTDesC8@@0@Z @ 93 NONAME ; void CSenServicePattern::BaseConstructL(class TDesC8 const &, class TDesC8 const &)
	?AcceptsConsumerPolicy@CSenServicePattern@@UAEHAAVMSenConsumerPolicy@@@Z @ 94 NONAME ; int CSenServicePattern::AcceptsConsumerPolicy(class MSenConsumerPolicy &)
	?NewL@CSenFacet@@SAPAV1@AAVCSenElement@@@Z @ 95 NONAME ; class CSenFacet * CSenFacet::NewL(class CSenElement &)
	?SetTransportCueL@CSenXmlServiceDescription@@QAEHABVTDesC8@@@Z @ 96 NONAME ; int CSenXmlServiceDescription::SetTransportCueL(class TDesC8 const &)
	?Endpoint@CSenXmlServiceDescription@@UAE?AVTPtrC8@@XZ @ 97 NONAME ; class TPtrC8 CSenXmlServiceDescription::Endpoint(void)
	?NewLC@CSenProviderPolicy@@SAPAV1@KH@Z @ 98 NONAME ; class CSenProviderPolicy * CSenProviderPolicy::NewLC(unsigned long, int)
	?ConstructL@CSenCredential@@AAEXAAV1@@Z @ 99 NONAME ; void CSenCredential::ConstructL(class CSenCredential &)
	?ConstructL@CSenFacet@@IAEXAAVCSenElement@@@Z @ 100 NONAME ; void CSenFacet::ConstructL(class CSenElement &)
	?ValidUntil@CSenCredential@@QAEAAVTTime@@XZ @ 101 NONAME ; class TTime & CSenCredential::ValidUntil(void)
	?SetAccountExtensionsL@CSenIdentityProvider@@QAEHABVTDesC8@@@Z @ 102 NONAME ; int CSenIdentityProvider::SetAccountExtensionsL(class TDesC8 const &)
	?SetValueL@CSenFacet@@UAEXABVTDesC8@@@Z @ 103 NONAME ; void CSenFacet::SetValueL(class TDesC8 const &)
	?RebuildFromConsumerPolicy@CSenServicePattern@@UAEHAAVMSenConsumerPolicy@@@Z @ 104 NONAME ; int CSenServicePattern::RebuildFromConsumerPolicy(class MSenConsumerPolicy &)
	?Matches@CSenXmlServiceDescription@@UAEHAAVMSenServiceDescription@@@Z @ 105 NONAME ; int CSenXmlServiceDescription::Matches(class MSenServiceDescription &)
	?ConsumerSnapId@CSenServicePattern@@QAEHAAK@Z @ 106 NONAME ; int CSenServicePattern::ConsumerSnapId(unsigned long &)
	?IMEI@CSenIdentityProvider@@QAEABVTDesC8@@XZ @ 107 NONAME ; class TDesC8 const & CSenIdentityProvider::IMEI(void)
	?WriteAsXMLToL@CSenXmlServiceDescription@@UAEXAAVRWriteStream@@@Z @ 108 NONAME ; void CSenXmlServiceDescription::WriteAsXMLToL(class RWriteStream &)
	?DescriptionClassType@CSenXmlServiceDescription@@UAE?AW4TDescriptionClassType@MSenServiceDescription@@XZ @ 109 NONAME ; enum MSenServiceDescription::TDescriptionClassType CSenXmlServiceDescription::DescriptionClassType(void)
	?NewLC@CSenCredential2@@SAPAV1@ABVTDesC8@@00ABV?$RArray@VRAttribute@Xml@@@@AAVTXmlEngElement@@@Z @ 110 NONAME ; class CSenCredential2 * CSenCredential2::NewLC(class TDesC8 const &, class TDesC8 const &, class TDesC8 const &, class RArray<class Xml::RAttribute> const &, class TXmlEngElement &)
	?BaseConstructL@CSenConsumerPolicy@@AAEXK@Z @ 111 NONAME ; void CSenConsumerPolicy::BaseConstructL(unsigned long)
	?NewLC@CSenServicePattern@@SAPAV1@ABVTDesC8@@0@Z @ 112 NONAME ; class CSenServicePattern * CSenServicePattern::NewLC(class TDesC8 const &, class TDesC8 const &)
	?Accepts@CSenProviderPolicy@@UAEHAAVMSenProviderPolicy@@@Z @ 113 NONAME ; int CSenProviderPolicy::Accepts(class MSenProviderPolicy &)
	?AddFacetL@CSenXmlServiceDescription@@UAEHABVCSenFacet@@@Z @ 114 NONAME ; int CSenXmlServiceDescription::AddFacetL(class CSenFacet const &)
	?AddIdentityProviderIdL@CSenPolicy@@UAEHABVTDesC8@@@Z @ 115 NONAME ; int CSenPolicy::AddIdentityProviderIdL(class TDesC8 const &)
	?IapId@CSenPolicy@@UAEHAAK@Z @ 116 NONAME ; int CSenPolicy::IapId(unsigned long &)
	?NewL@CSenConsumerPolicy@@SAPAV1@KH@Z @ 117 NONAME ; class CSenConsumerPolicy * CSenConsumerPolicy::NewL(unsigned long, int)
	?SnapId@CSenXmlServiceDescription@@QAEHAAK@Z @ 118 NONAME ; int CSenXmlServiceDescription::SnapId(unsigned long &)
	?NewLC@CSenProviderPolicy@@SAPAV1@K@Z @ 119 NONAME ; class CSenProviderPolicy * CSenProviderPolicy::NewLC(unsigned long)
	?Type@CSenFacet@@UAE?AVTPtrC8@@XZ @ 120 NONAME ; class TPtrC8 CSenFacet::Type(void)
	?NewLC@CSenCredential2@@SAPAV1@XZ @ 121 NONAME ; class CSenCredential2 * CSenCredential2::NewLC(void)
	?NewLC@CSenCredential2@@SAPAV1@ABV1@@Z @ 122 NONAME ; class CSenCredential2 * CSenCredential2::NewLC(class CSenCredential2 const &)
	??1CSenServicePattern@@UAE@XZ @ 123 NONAME ; CSenServicePattern::~CSenServicePattern(void)
	?IdentityProviderIds8L@CSenPolicy@@UAEABVCSenIdentityProviderIdArray8@@XZ @ 124 NONAME ; class CSenIdentityProviderIdArray8 const & CSenPolicy::IdentityProviderIds8L(void)
	?SetAttributesL@CSenXmlServiceDescription@@UAEXABV?$RArray@VRAttribute@Xml@@@@@Z @ 125 NONAME ; void CSenXmlServiceDescription::SetAttributesL(class RArray<class Xml::RAttribute> const &)
	?ProviderID@CSenIdentityProvider@@QAE?AVTPtrC8@@XZ @ 126 NONAME ; class TPtrC8 CSenIdentityProvider::ProviderID(void)
	?NewL@CSenProviderPolicy@@SAPAV1@K@Z @ 127 NONAME ; class CSenProviderPolicy * CSenProviderPolicy::NewL(unsigned long)
	?BaseConstructL@CSenServicePattern@@IAEXABVTDesC8@@@Z @ 128 NONAME ; void CSenServicePattern::BaseConstructL(class TDesC8 const &)
	?SetPolicyL@CSenXmlServiceDescription@@QAEHABVTDesC8@@000@Z @ 129 NONAME ; int CSenXmlServiceDescription::SetPolicyL(class TDesC8 const &, class TDesC8 const &, class TDesC8 const &, class TDesC8 const &)
	?BaseConstructL@CSenPolicy@@IAEXABVTDesC8@@K@Z @ 130 NONAME ; void CSenPolicy::BaseConstructL(class TDesC8 const &, unsigned long)
	?FrameworkId@CSenXmlServiceDescription@@UAE?AVTPtrC8@@XZ @ 131 NONAME ; class TPtrC8 CSenXmlServiceDescription::FrameworkId(void)
	?SetNameL@CSenFacet@@UAEXABVTDesC8@@@Z @ 132 NONAME ; void CSenFacet::SetNameL(class TDesC8 const &)
	?Password@CSenIdentityProvider@@UAE?AVTPtrC8@@XZ @ 133 NONAME ; class TPtrC8 CSenIdentityProvider::Password(void)
	?IsTrustedByL@CSenIdentityProvider@@QAEHABVTDesC8@@@Z @ 134 NONAME ; int CSenIdentityProvider::IsTrustedByL(class TDesC8 const &)
	??0CSenCredential2@@IAE@XZ @ 135 NONAME ; CSenCredential2::CSenCredential2(void)
	?NewL@CSenCredential2@@SAPAV1@ABVTDesC8@@00ABV?$RArray@VRAttribute@Xml@@@@AAVTXmlEngElement@@@Z @ 136 NONAME ; class CSenCredential2 * CSenCredential2::NewL(class TDesC8 const &, class TDesC8 const &, class TDesC8 const &, class RArray<class Xml::RAttribute> const &, class TXmlEngElement &)
	?NewL@CSenProviderPolicy@@SAPAV1@XZ @ 137 NONAME ; class CSenProviderPolicy * CSenProviderPolicy::NewL(void)
	?NewL@CSenIdentityProviderIdArray8@@SAPAV1@XZ @ 138 NONAME ; class CSenIdentityProviderIdArray8 * CSenIdentityProviderIdArray8::NewL(void)
	?NewL@CSenProviderPolicy@@SAPAV1@KH@Z @ 139 NONAME ; class CSenProviderPolicy * CSenProviderPolicy::NewL(unsigned long, int)
	?SetTypeL@CSenFacet@@UAEXABVTDesC8@@@Z @ 140 NONAME ; void CSenFacet::SetTypeL(class TDesC8 const &)
	?ScoreMatchL@CSenXmlServiceDescription@@UAEHAAVMSenServiceDescription@@@Z @ 141 NONAME ; int CSenXmlServiceDescription::ScoreMatchL(class MSenServiceDescription &)
	?NewL@CSenIdentityProvider@@SAPAV1@ABVTDesC8@@@Z @ 142 NONAME ; class CSenIdentityProvider * CSenIdentityProvider::NewL(class TDesC8 const &)
	?NewL@CSenServicePattern@@SAPAV1@ABVTDesC8@@@Z @ 143 NONAME ; class CSenServicePattern * CSenServicePattern::NewL(class TDesC8 const &)
	?ConsumerPolicyAsXmlL@CSenServicePattern@@QAEPAVHBufC8@@XZ @ 144 NONAME ; class HBufC8 * CSenServicePattern::ConsumerPolicyAsXmlL(void)
	??0CSenServicePattern@@IAE@W4TDescriptionClassType@MSenServiceDescription@@@Z @ 145 NONAME ; CSenServicePattern::CSenServicePattern(enum MSenServiceDescription::TDescriptionClassType)
	?Value@CSenFacet@@UAE?AVTPtrC8@@XZ @ 146 NONAME ; class TPtrC8 CSenFacet::Value(void)
	?ConstructL@CSenCredential@@AAEXABVTDesC8@@00ABV?$RArray@VRAttribute@Xml@@@@AAVCSenElement@@@Z @ 147 NONAME ; void CSenCredential::ConstructL(class TDesC8 const &, class TDesC8 const &, class TDesC8 const &, class RArray<class Xml::RAttribute> const &, class CSenElement &)
	?NewL@CSenFacet@@SAPAV1@ABVTDesC8@@00ABV?$RArray@VRAttribute@Xml@@@@@Z @ 148 NONAME ; class CSenFacet * CSenFacet::NewL(class TDesC8 const &, class TDesC8 const &, class TDesC8 const &, class RArray<class Xml::RAttribute> const &)
	?NewLC@CSenCredential2@@SAPAV1@ABVTDesC8@@00ABV?$RArray@VRAttribute@Xml@@@@@Z @ 149 NONAME ; class CSenCredential2 * CSenCredential2::NewLC(class TDesC8 const &, class TDesC8 const &, class TDesC8 const &, class RArray<class Xml::RAttribute> const &)
	?Accepts@CSenXmlServiceDescription@@UAEHAAVMSenProviderPolicy@@@Z @ 150 NONAME ; int CSenXmlServiceDescription::Accepts(class MSenProviderPolicy &)
	?Accepts@CSenConsumerPolicy@@UAEHAAVMSenConsumerPolicy@@@Z @ 151 NONAME ; int CSenConsumerPolicy::Accepts(class MSenConsumerPolicy &)
	?NewL@CSenIdentityProviderIdArray8@@SAPAV1@H@Z @ 152 NONAME ; class CSenIdentityProviderIdArray8 * CSenIdentityProviderIdArray8::NewL(int)
	?NewL@CSenCredential@@SAPAV1@ABVTDesC8@@00ABV?$RArray@VRAttribute@Xml@@@@AAVCSenElement@@@Z @ 153 NONAME ; class CSenCredential * CSenCredential::NewL(class TDesC8 const &, class TDesC8 const &, class TDesC8 const &, class RArray<class Xml::RAttribute> const &, class CSenElement &)
	?NewL@CSenCredential@@SAPAV1@ABVTDesC8@@00ABV?$RArray@VRAttribute@Xml@@@@@Z @ 154 NONAME ; class CSenCredential * CSenCredential::NewL(class TDesC8 const &, class TDesC8 const &, class TDesC8 const &, class RArray<class Xml::RAttribute> const &)
	?ConsumerIdentityProviderIds8L@CSenServicePattern@@UAEABVCSenIdentityProviderIdArray8@@XZ @ 155 NONAME ; class CSenIdentityProviderIdArray8 const & CSenServicePattern::ConsumerIdentityProviderIds8L(void)
	?ConstructL@CSenIdentityProvider@@IAEXABVTDesC8@@00@Z @ 156 NONAME ; void CSenIdentityProvider::ConstructL(class TDesC8 const &, class TDesC8 const &, class TDesC8 const &)
	?IsStrict@CSenIdentityProviderIdArray8@@UBEHXZ @ 157 NONAME ; int CSenIdentityProviderIdArray8::IsStrict(void) const
	?SetIdentityProviderIdsL@CSenXmlServiceDescription@@UAEXAAVCSenIdentityProviderIdArray8@@@Z @ 158 NONAME ; void CSenXmlServiceDescription::SetIdentityProviderIdsL(class CSenIdentityProviderIdArray8 &)
	?NewL@CSenCredential2@@SAPAV1@ABV1@@Z @ 159 NONAME ; class CSenCredential2 * CSenCredential2::NewL(class CSenCredential2 const &)
	?NewElementName@CSenXmlServiceDescription@@UAEABVTDesC8@@XZ @ 160 NONAME ; class TDesC8 const & CSenXmlServiceDescription::NewElementName(void)
	?SetFacetL@CSenXmlServiceDescription@@UAEHABVCSenFacet@@@Z @ 161 NONAME ; int CSenXmlServiceDescription::SetFacetL(class CSenFacet const &)
	?NewLC@CSenIdentityProvider@@SAPAV1@ABVTDesC8@@000@Z @ 162 NONAME ; class CSenIdentityProvider * CSenIdentityProvider::NewLC(class TDesC8 const &, class TDesC8 const &, class TDesC8 const &, class TDesC8 const &)
	?ConstructL@CSenIdentityProvider@@IAEXABVTDesC8@@0@Z @ 163 NONAME ; void CSenIdentityProvider::ConstructL(class TDesC8 const &, class TDesC8 const &)
	?AsXmlUnicodeL@CSenXmlServiceDescription@@UAEPAVHBufC16@@XZ @ 164 NONAME ; class HBufC16 * CSenXmlServiceDescription::AsXmlUnicodeL(void)
	??0CSenCredential@@AAE@XZ @ 165 NONAME ; CSenCredential::CSenCredential(void)
	?SetConsumerIapIdL@CSenServicePattern@@UAEXK@Z @ 166 NONAME ; void CSenServicePattern::SetConsumerIapIdL(unsigned long)
	?NewL@CSenCredential2@@SAPAV1@ABVTDesC8@@00ABV?$RArray@VRAttribute@Xml@@@@@Z @ 167 NONAME ; class CSenCredential2 * CSenCredential2::NewL(class TDesC8 const &, class TDesC8 const &, class TDesC8 const &, class RArray<class Xml::RAttribute> const &)
	?SetValidUntil@CSenCredential2@@UAEXAAVTTime@@@Z @ 168 NONAME ; void CSenCredential2::SetValidUntil(class TTime &)
	?NewL@CSenXmlServiceDescription@@SAPAV1@ABVTDesC8@@0@Z @ 169 NONAME ; class CSenXmlServiceDescription * CSenXmlServiceDescription::NewL(class TDesC8 const &, class TDesC8 const &)
	?NewLC@CSenServicePattern@@SAPAV1@XZ @ 170 NONAME ; class CSenServicePattern * CSenServicePattern::NewLC(void)
	?SetTransportPropertiesL@CSenProviderPolicy@@QAEHABVTDesC8@@@Z @ 171 NONAME ; int CSenProviderPolicy::SetTransportPropertiesL(class TDesC8 const &)
	?SetStrict@CSenIdentityProviderIdArray8@@UAEXH@Z @ 172 NONAME ; void CSenIdentityProviderIdArray8::SetStrict(int)
	?OnStartElementL@CSenCredential2@@MAEXABVRTagInfo@Xml@@ABV?$RArray@VRAttribute@Xml@@@@H@Z @ 173 NONAME ; void CSenCredential2::OnStartElementL(class Xml::RTagInfo const &, class RArray<class Xml::RAttribute> const &, int)
	??0CSenIdentityProvider@@IAE@W4TDescriptionClassType@MSenServiceDescription@@@Z @ 174 NONAME ; CSenIdentityProvider::CSenIdentityProvider(enum MSenServiceDescription::TDescriptionClassType)
	?StartElementL@CSenServicePattern@@UAEXABVTDesC8@@00ABV?$RArray@VRAttribute@Xml@@@@@Z @ 175 NONAME ; void CSenServicePattern::StartElementL(class TDesC8 const &, class TDesC8 const &, class TDesC8 const &, class RArray<class Xml::RAttribute> const &)
	?PromptUserInfo@CSenXmlServiceDescription@@QAEHXZ @ 176 NONAME ; int CSenXmlServiceDescription::PromptUserInfo(void)
	??1CSenFacet@@UAE@XZ @ 177 NONAME ; CSenFacet::~CSenFacet(void)
	??1CSenIdentityProviderIdArray8@@UAE@XZ @ 178 NONAME ; CSenIdentityProviderIdArray8::~CSenIdentityProviderIdArray8(void)
	?ConstructL@CSenCredential@@AAEXABVTDesC8@@00ABV?$RArray@VRAttribute@Xml@@@@@Z @ 179 NONAME ; void CSenCredential::ConstructL(class TDesC8 const &, class TDesC8 const &, class TDesC8 const &, class RArray<class Xml::RAttribute> const &)
	??0CSenFacet@@IAE@XZ @ 180 NONAME ; CSenFacet::CSenFacet(void)
	?ConstructL@CSenFacet@@IAEXABVTDesC8@@@Z @ 181 NONAME ; void CSenFacet::ConstructL(class TDesC8 const &)
	?NewL@CSenPolicy@@SAPAV1@KH@Z @ 182 NONAME ; class CSenPolicy * CSenPolicy::NewL(unsigned long, int)
	?SetProviderIdL@CSenIdentityProvider@@QAEHABVTDesC8@@@Z @ 183 NONAME ; int CSenIdentityProvider::SetProviderIdL(class TDesC8 const &)
	?ProviderId@CSenXmlServiceDescription@@QAE?AVTPtrC8@@XZ @ 184 NONAME ; class TPtrC8 CSenXmlServiceDescription::ProviderId(void)
	?TransportCue@CSenXmlServiceDescription@@QAE?AVTPtrC8@@XZ @ 185 NONAME ; class TPtrC8 CSenXmlServiceDescription::TransportCue(void)
	?BaseConstructL@CSenCredential2@@IAEXABVTDesC8@@00ABV?$RArray@VRAttribute@Xml@@@@AAVTXmlEngElement@@AAVRSenDocument@@@Z @ 186 NONAME ; void CSenCredential2::BaseConstructL(class TDesC8 const &, class TDesC8 const &, class TDesC8 const &, class RArray<class Xml::RAttribute> const &, class TXmlEngElement &, class RSenDocument &)
	?SetServiceID@CSenIdentityProvider@@QAEHABVTDesC8@@@Z @ 187 NONAME ; int CSenIdentityProvider::SetServiceID(class TDesC8 const &)
	?TransportPropertiesL@CSenXmlServiceDescription@@QAEHAAPAVHBufC8@@@Z @ 188 NONAME ; int CSenXmlServiceDescription::TransportPropertiesL(class HBufC8 * &)
	?ConsumerIapId@CSenServicePattern@@UAEHAAK@Z @ 189 NONAME ; int CSenServicePattern::ConsumerIapId(unsigned long &)
	?ValidUntil@CSenCredential2@@UAEAAVTTime@@XZ @ 190 NONAME ; class TTime & CSenCredential2::ValidUntil(void)
	?NewLC@CSenIdentityProvider@@SAPAV1@ABVTDesC8@@00@Z @ 191 NONAME ; class CSenIdentityProvider * CSenIdentityProvider::NewLC(class TDesC8 const &, class TDesC8 const &, class TDesC8 const &)
	?BaseConstructL@CSenCredential2@@IAEXAAV1@@Z @ 192 NONAME ; void CSenCredential2::BaseConstructL(class CSenCredential2 &)
	?AddIdentityProviderIdL@CSenXmlServiceDescription@@UAEHAAVTDesC8@@@Z @ 193 NONAME ; int CSenXmlServiceDescription::AddIdentityProviderIdL(class TDesC8 &)
	?IsDefault@CSenIdentityProvider@@QAEHXZ @ 194 NONAME ; int CSenIdentityProvider::IsDefault(void)
	?NewLC@CSenPolicy@@SAPAV1@XZ @ 195 NONAME ; class CSenPolicy * CSenPolicy::NewLC(void)
	?AddConsumerIdentityProviderIdL@CSenServicePattern@@UAEHABVTDesC8@@@Z @ 196 NONAME ; int CSenServicePattern::AddConsumerIdentityProviderIdL(class TDesC8 const &)
	?AsXmlL@CSenXmlServiceDescription@@UAEPAVHBufC8@@XZ @ 197 NONAME ; class HBufC8 * CSenXmlServiceDescription::AsXmlL(void)
	?SetIdentityProviderIdsL@CSenPolicy@@UAEXAAVCSenIdentityProviderIdArray8@@@Z @ 198 NONAME ; void CSenPolicy::SetIdentityProviderIdsL(class CSenIdentityProviderIdArray8 &)
	?RebuildFrom@CSenPolicy@@UAEHAAVMSenPolicy@@@Z @ 199 NONAME ; int CSenPolicy::RebuildFrom(class MSenPolicy &)
	?SetSnapIdL@CSenPolicy@@UAEXK@Z @ 200 NONAME ; void CSenPolicy::SetSnapIdL(unsigned long)
	?NewElementName@CSenIdentityProvider@@UAEABVTDesC8@@XZ @ 201 NONAME ; class TDesC8 const & CSenIdentityProvider::NewElementName(void)
	?NewL@CSenConsumerPolicy@@SAPAV1@XZ @ 202 NONAME ; class CSenConsumerPolicy * CSenConsumerPolicy::NewL(void)
	?NewL@CSenCredential2@@SAPAV1@ABVTDesC8@@00ABV?$RArray@VRAttribute@Xml@@@@AAVTXmlEngElement@@AAVRSenDocument@@@Z @ 203 NONAME ; class CSenCredential2 * CSenCredential2::NewL(class TDesC8 const &, class TDesC8 const &, class TDesC8 const &, class RArray<class Xml::RAttribute> const &, class TXmlEngElement &, class RSenDocument &)
	?RebuildFrom@CSenXmlServiceDescription@@UAEHAAVMSenProviderPolicy@@@Z @ 204 NONAME ; int CSenXmlServiceDescription::RebuildFrom(class MSenProviderPolicy &)
	?Accepts@CSenPolicy@@UAEHAAVMSenPolicy@@@Z @ 205 NONAME ; int CSenPolicy::Accepts(class MSenPolicy &)
	?RemoveFacet@CSenXmlServiceDescription@@UAEHABVTDesC8@@@Z @ 206 NONAME ; int CSenXmlServiceDescription::RemoveFacet(class TDesC8 const &)
	?SetIapIdL@CSenXmlServiceDescription@@UAEXK@Z @ 207 NONAME ; void CSenXmlServiceDescription::SetIapIdL(unsigned long)
	?IsTrustedByL@CSenIdentityProvider@@QAEHAAVMSenServiceDescription@@@Z @ 208 NONAME ; int CSenIdentityProvider::IsTrustedByL(class MSenServiceDescription &)
	?NewLC@CSenXmlServiceDescription@@SAPAV1@XZ @ 209 NONAME ; class CSenXmlServiceDescription * CSenXmlServiceDescription::NewLC(void)
	?SetFrameworkIdL@CSenXmlServiceDescription@@QAEXABVTDesC8@@@Z @ 210 NONAME ; void CSenXmlServiceDescription::SetFrameworkIdL(class TDesC8 const &)
	?ConstructL@CSenXmlServiceDescription@@IAEXXZ @ 211 NONAME ; void CSenXmlServiceDescription::ConstructL(void)
	?ConstructL@CSenCredential2@@AAEXABVTDesC8@@@Z @ 212 NONAME ; void CSenCredential2::ConstructL(class TDesC8 const &)
	?BaseConstructL@CSenProviderPolicy@@AAEXKH@Z @ 213 NONAME ; void CSenProviderPolicy::BaseConstructL(unsigned long, int)

