EXPORTS
	??0CSenCredential@@AAE@XZ @ 1 NONAME ; CSenCredential::CSenCredential(void)
	??0CSenFacet@@IAE@XZ @ 2 NONAME ; CSenFacet::CSenFacet(void)
	??0CSenIdentityProvider@@IAE@W4TDescriptionClassType@MSenServiceDescription@@@Z @ 3 NONAME ; CSenIdentityProvider::CSenIdentityProvider(enum MSenServiceDescription::TDescriptionClassType)
	??0CSenServicePattern@@IAE@W4TDescriptionClassType@MSenServiceDescription@@@Z @ 4 NONAME ; CSenServicePattern::CSenServicePattern(enum MSenServiceDescription::TDescriptionClassType)
	??0CSenXmlServiceDescription@@IAE@W4TDescriptionClassType@MSenServiceDescription@@@Z @ 5 NONAME ; CSenXmlServiceDescription::CSenXmlServiceDescription(enum MSenServiceDescription::TDescriptionClassType)
	??1CSenCredential@@UAE@XZ @ 6 NONAME ; CSenCredential::~CSenCredential(void)
	??1CSenFacet@@UAE@XZ @ 7 NONAME ; CSenFacet::~CSenFacet(void)
	??1CSenIdentityProvider@@UAE@XZ @ 8 NONAME ; CSenIdentityProvider::~CSenIdentityProvider(void)
	??1CSenIdentityProviderIdArray8@@UAE@XZ @ 9 NONAME ; CSenIdentityProviderIdArray8::~CSenIdentityProviderIdArray8(void)
	??1CSenServicePattern@@UAE@XZ @ 10 NONAME ; CSenServicePattern::~CSenServicePattern(void)
	??1CSenXmlServiceDescription@@UAE@XZ @ 11 NONAME ; CSenXmlServiceDescription::~CSenXmlServiceDescription(void)
	?Accepts@CSenConsumerPolicy@@UAEHAAVMSenConsumerPolicy@@@Z @ 12 NONAME ; int CSenConsumerPolicy::Accepts(class MSenConsumerPolicy &)
	?Accepts@CSenPolicy@@UAEHAAVMSenPolicy@@@Z @ 13 NONAME ; int CSenPolicy::Accepts(class MSenPolicy &)
	?Accepts@CSenProviderPolicy@@UAEHAAVMSenProviderPolicy@@@Z @ 14 NONAME ; int CSenProviderPolicy::Accepts(class MSenProviderPolicy &)
	?Accepts@CSenXmlServiceDescription@@UAEHAAVMSenProviderPolicy@@@Z @ 15 NONAME ; int CSenXmlServiceDescription::Accepts(class MSenProviderPolicy &)
	?AcceptsConsumerPolicy@CSenServicePattern@@UAEHAAVMSenConsumerPolicy@@@Z @ 16 NONAME ; int CSenServicePattern::AcceptsConsumerPolicy(class MSenConsumerPolicy &)
	?AddConsumerIdentityProviderIdL@CSenServicePattern@@UAEHABVTDesC8@@@Z @ 17 NONAME ; int CSenServicePattern::AddConsumerIdentityProviderIdL(class TDesC8 const &)
	?AddFacetL@CSenXmlServiceDescription@@UAEHABVCSenFacet@@@Z @ 18 NONAME ; int CSenXmlServiceDescription::AddFacetL(class CSenFacet const &)
	?AddIdentityProviderIdL@CSenPolicy@@UAEHABVTDesC8@@@Z @ 19 NONAME ; int CSenPolicy::AddIdentityProviderIdL(class TDesC8 const &)
	?AddIdentityProviderIdL@CSenXmlServiceDescription@@UAEHAAVTDesC8@@@Z @ 20 NONAME ; int CSenXmlServiceDescription::AddIdentityProviderIdL(class TDesC8 &)
	?AdvisoryAuthnID@CSenIdentityProvider@@UAE?AVTPtrC8@@XZ @ 21 NONAME ; class TPtrC8 CSenIdentityProvider::AdvisoryAuthnID(void)
	?AsXmlL@CSenXmlServiceDescription@@UAEPAVHBufC8@@XZ @ 22 NONAME ; class HBufC8 * CSenXmlServiceDescription::AsXmlL(void)
	?AsXmlUnicodeL@CSenXmlServiceDescription@@UAEPAVHBufC16@@XZ @ 23 NONAME ; class HBufC16 * CSenXmlServiceDescription::AsXmlUnicodeL(void)
	?AuthzID@CSenIdentityProvider@@UAE?AVTPtrC8@@XZ @ 24 NONAME ; class TPtrC8 CSenIdentityProvider::AuthzID(void)
	?BaseConstructL@CSenConsumerPolicy@@AAEXK@Z @ 25 NONAME ; void CSenConsumerPolicy::BaseConstructL(unsigned long)
	?BaseConstructL@CSenConsumerPolicy@@AAEXXZ @ 26 NONAME ; void CSenConsumerPolicy::BaseConstructL(void)
	?BaseConstructL@CSenPolicy@@IAEXABVTDesC8@@@Z @ 27 NONAME ; void CSenPolicy::BaseConstructL(class TDesC8 const &)
	?BaseConstructL@CSenPolicy@@IAEXABVTDesC8@@K@Z @ 28 NONAME ; void CSenPolicy::BaseConstructL(class TDesC8 const &, unsigned long)
	?BaseConstructL@CSenProviderPolicy@@AAEXK@Z @ 29 NONAME ; void CSenProviderPolicy::BaseConstructL(unsigned long)
	?BaseConstructL@CSenProviderPolicy@@AAEXXZ @ 30 NONAME ; void CSenProviderPolicy::BaseConstructL(void)
	?BaseConstructL@CSenServicePattern@@IAEXABVTDesC8@@0@Z @ 31 NONAME ; void CSenServicePattern::BaseConstructL(class TDesC8 const &, class TDesC8 const &)
	?BaseConstructL@CSenServicePattern@@IAEXABVTDesC8@@@Z @ 32 NONAME ; void CSenServicePattern::BaseConstructL(class TDesC8 const &)
	?BaseConstructL@CSenServicePattern@@IAEXXZ @ 33 NONAME ; void CSenServicePattern::BaseConstructL(void)
	?ConstructL@CSenCredential@@AAEXAAV1@@Z @ 34 NONAME ; void CSenCredential::ConstructL(class CSenCredential &)
	?ConstructL@CSenCredential@@AAEXABVTDesC8@@00ABV?$RArray@VRAttribute@Xml@@@@@Z @ 35 NONAME ; void CSenCredential::ConstructL(class TDesC8 const &, class TDesC8 const &, class TDesC8 const &, class RArray<class Xml::RAttribute> const &)
	?ConstructL@CSenCredential@@AAEXABVTDesC8@@00ABV?$RArray@VRAttribute@Xml@@@@AAVCSenElement@@@Z @ 36 NONAME ; void CSenCredential::ConstructL(class TDesC8 const &, class TDesC8 const &, class TDesC8 const &, class RArray<class Xml::RAttribute> const &, class CSenElement &)
	?ConstructL@CSenFacet@@IAEXAAVCSenElement@@@Z @ 37 NONAME ; void CSenFacet::ConstructL(class CSenElement &)
	?ConstructL@CSenFacet@@IAEXABVTDesC8@@00ABV?$RArray@VRAttribute@Xml@@@@@Z @ 38 NONAME ; void CSenFacet::ConstructL(class TDesC8 const &, class TDesC8 const &, class TDesC8 const &, class RArray<class Xml::RAttribute> const &)
	?ConstructL@CSenFacet@@IAEXABVTDesC8@@@Z @ 39 NONAME ; void CSenFacet::ConstructL(class TDesC8 const &)
	?ConstructL@CSenIdentityProvider@@IAEXABVTDesC8@@000@Z @ 40 NONAME ; void CSenIdentityProvider::ConstructL(class TDesC8 const &, class TDesC8 const &, class TDesC8 const &, class TDesC8 const &)
	?ConstructL@CSenIdentityProvider@@IAEXABVTDesC8@@00@Z @ 41 NONAME ; void CSenIdentityProvider::ConstructL(class TDesC8 const &, class TDesC8 const &, class TDesC8 const &)
	?ConstructL@CSenIdentityProvider@@IAEXABVTDesC8@@0@Z @ 42 NONAME ; void CSenIdentityProvider::ConstructL(class TDesC8 const &, class TDesC8 const &)
	?ConstructL@CSenIdentityProvider@@IAEXABVTDesC8@@@Z @ 43 NONAME ; void CSenIdentityProvider::ConstructL(class TDesC8 const &)
	?ConstructL@CSenXmlServiceDescription@@IAEXABVTDesC8@@0@Z @ 44 NONAME ; void CSenXmlServiceDescription::ConstructL(class TDesC8 const &, class TDesC8 const &)
	?ConstructL@CSenXmlServiceDescription@@IAEXABVTDesC8@@@Z @ 45 NONAME ; void CSenXmlServiceDescription::ConstructL(class TDesC8 const &)
	?ConstructL@CSenXmlServiceDescription@@IAEXXZ @ 46 NONAME ; void CSenXmlServiceDescription::ConstructL(void)
	?ConsumerIapId@CSenServicePattern@@UAEHAAK@Z @ 47 NONAME ; int CSenServicePattern::ConsumerIapId(unsigned long &)
	?ConsumerIdentityProviderIds8L@CSenServicePattern@@UAEABVCSenIdentityProviderIdArray8@@XZ @ 48 NONAME ; class CSenIdentityProviderIdArray8 const & CSenServicePattern::ConsumerIdentityProviderIds8L(void)
	?ConsumerPolicyAsXmlL@CSenServicePattern@@QAEPAVHBufC8@@XZ @ 49 NONAME ; class HBufC8 * CSenServicePattern::ConsumerPolicyAsXmlL(void)
	?Contract@CSenXmlServiceDescription@@UAE?AVTPtrC8@@XZ @ 50 NONAME ; class TPtrC8 CSenXmlServiceDescription::Contract(void)
	?Credentials@CSenXmlServiceDescription@@QAEAAV?$RPointerArray@VCSenCredential@@@@XZ @ 51 NONAME ; class RPointerArray<class CSenCredential> & CSenXmlServiceDescription::Credentials(void)
	?DescriptionClassType@CSenXmlServiceDescription@@UAE?AW4TDescriptionClassType@MSenServiceDescription@@XZ @ 52 NONAME ; enum MSenServiceDescription::TDescriptionClassType CSenXmlServiceDescription::DescriptionClassType(void)
	?EndElementL@CSenXmlServiceDescription@@MAEXABVTDesC8@@00@Z @ 53 NONAME ; void CSenXmlServiceDescription::EndElementL(class TDesC8 const &, class TDesC8 const &, class TDesC8 const &)
	?Endpoint@CSenXmlServiceDescription@@UAE?AVTPtrC8@@XZ @ 54 NONAME ; class TPtrC8 CSenXmlServiceDescription::Endpoint(void)
	?FacetValue@CSenXmlServiceDescription@@UAEHAAVTDesC8@@AAPAVHBufC8@@@Z @ 55 NONAME ; int CSenXmlServiceDescription::FacetValue(class TDesC8 &, class HBufC8 * &)
	?FacetsL@CSenXmlServiceDescription@@UAEHAAV?$RPointerArray@VCSenFacet@@@@@Z @ 56 NONAME ; int CSenXmlServiceDescription::FacetsL(class RPointerArray<class CSenFacet> &)
	?FrameworkId@CSenXmlServiceDescription@@UAE?AVTPtrC8@@XZ @ 57 NONAME ; class TPtrC8 CSenXmlServiceDescription::FrameworkId(void)
	?FrameworkVersion@CSenXmlServiceDescription@@UAE?AVTPtrC8@@XZ @ 58 NONAME ; class TPtrC8 CSenXmlServiceDescription::FrameworkVersion(void)
	?HasFacetL@CSenXmlServiceDescription@@UAEHABVTDesC8@@AAH@Z @ 59 NONAME ; int CSenXmlServiceDescription::HasFacetL(class TDesC8 const &, int &)
	?HttpCredentialsL@CSenIdentityProvider@@QAEPAVHBufC8@@AAVMSenIdentityManager@@@Z @ 60 NONAME ; class HBufC8 * CSenIdentityProvider::HttpCredentialsL(class MSenIdentityManager &)
	?IMEI@CSenIdentityProvider@@QAEABVTDesC8@@XZ @ 61 NONAME ; class TDesC8 const & CSenIdentityProvider::IMEI(void)
	?IapId@CSenPolicy@@UAEHAAK@Z @ 62 NONAME ; int CSenPolicy::IapId(unsigned long &)
	?IapId@CSenXmlServiceDescription@@UAEHAAK@Z @ 63 NONAME ; int CSenXmlServiceDescription::IapId(unsigned long &)
	?Id@CSenCredential@@QAEABVTDesC8@@XZ @ 64 NONAME ; class TDesC8 const & CSenCredential::Id(void)
	?IdentityProviderIds8L@CSenPolicy@@UAEABVCSenIdentityProviderIdArray8@@XZ @ 65 NONAME ; class CSenIdentityProviderIdArray8 const & CSenPolicy::IdentityProviderIds8L(void)
	?IdentityProviderIds8L@CSenXmlServiceDescription@@UAEABVCSenIdentityProviderIdArray8@@XZ @ 66 NONAME ; class CSenIdentityProviderIdArray8 const & CSenXmlServiceDescription::IdentityProviderIds8L(void)
	?IsDefault@CSenIdentityProvider@@QAEHXZ @ 67 NONAME ; int CSenIdentityProvider::IsDefault(void)
	?IsStrict@CSenIdentityProviderIdArray8@@UBEHXZ @ 68 NONAME ; int CSenIdentityProviderIdArray8::IsStrict(void) const
	?IsTrustedByL@CSenIdentityProvider@@QAEHAAVMSenServiceDescription@@@Z @ 69 NONAME ; int CSenIdentityProvider::IsTrustedByL(class MSenServiceDescription &)
	?IsTrustedByL@CSenIdentityProvider@@QAEHABVTDesC8@@@Z @ 70 NONAME ; int CSenIdentityProvider::IsTrustedByL(class TDesC8 const &)
	?Matches@CSenServicePattern@@UAEHAAVMSenServiceDescription@@@Z @ 71 NONAME ; int CSenServicePattern::Matches(class MSenServiceDescription &)
	?Matches@CSenXmlServiceDescription@@UAEHAAVMSenServiceDescription@@@Z @ 72 NONAME ; int CSenXmlServiceDescription::Matches(class MSenServiceDescription &)
	?Name@CSenFacet@@UAE?AVTPtrC8@@XZ @ 73 NONAME ; class TPtrC8 CSenFacet::Name(void)
	?NewElementName@CSenIdentityProvider@@UAEABVTDesC8@@XZ @ 74 NONAME ; class TDesC8 const & CSenIdentityProvider::NewElementName(void)
	?NewElementName@CSenXmlServiceDescription@@UAEABVTDesC8@@XZ @ 75 NONAME ; class TDesC8 const & CSenXmlServiceDescription::NewElementName(void)
	?NewL@CSenConsumerPolicy@@SAPAV1@K@Z @ 76 NONAME ; class CSenConsumerPolicy * CSenConsumerPolicy::NewL(unsigned long)
	?NewL@CSenConsumerPolicy@@SAPAV1@XZ @ 77 NONAME ; class CSenConsumerPolicy * CSenConsumerPolicy::NewL(void)
	?NewL@CSenCredential@@SAPAV1@ABV1@@Z @ 78 NONAME ; class CSenCredential * CSenCredential::NewL(class CSenCredential const &)
	?NewL@CSenCredential@@SAPAV1@ABVTDesC8@@00ABV?$RArray@VRAttribute@Xml@@@@@Z @ 79 NONAME ; class CSenCredential * CSenCredential::NewL(class TDesC8 const &, class TDesC8 const &, class TDesC8 const &, class RArray<class Xml::RAttribute> const &)
	?NewL@CSenCredential@@SAPAV1@ABVTDesC8@@00ABV?$RArray@VRAttribute@Xml@@@@AAVCSenElement@@@Z @ 80 NONAME ; class CSenCredential * CSenCredential::NewL(class TDesC8 const &, class TDesC8 const &, class TDesC8 const &, class RArray<class Xml::RAttribute> const &, class CSenElement &)
	?NewL@CSenFacet@@SAPAV1@AAVCSenElement@@@Z @ 81 NONAME ; class CSenFacet * CSenFacet::NewL(class CSenElement &)
	?NewL@CSenFacet@@SAPAV1@ABVTDesC8@@00ABV?$RArray@VRAttribute@Xml@@@@@Z @ 82 NONAME ; class CSenFacet * CSenFacet::NewL(class TDesC8 const &, class TDesC8 const &, class TDesC8 const &, class RArray<class Xml::RAttribute> const &)
	?NewL@CSenFacet@@SAPAV1@XZ @ 83 NONAME ; class CSenFacet * CSenFacet::NewL(void)
	?NewL@CSenIdentityProvider@@SAPAV1@ABVTDesC8@@000@Z @ 84 NONAME ; class CSenIdentityProvider * CSenIdentityProvider::NewL(class TDesC8 const &, class TDesC8 const &, class TDesC8 const &, class TDesC8 const &)
	?NewL@CSenIdentityProvider@@SAPAV1@ABVTDesC8@@00@Z @ 85 NONAME ; class CSenIdentityProvider * CSenIdentityProvider::NewL(class TDesC8 const &, class TDesC8 const &, class TDesC8 const &)
	?NewL@CSenIdentityProvider@@SAPAV1@ABVTDesC8@@0@Z @ 86 NONAME ; class CSenIdentityProvider * CSenIdentityProvider::NewL(class TDesC8 const &, class TDesC8 const &)
	?NewL@CSenIdentityProvider@@SAPAV1@ABVTDesC8@@@Z @ 87 NONAME ; class CSenIdentityProvider * CSenIdentityProvider::NewL(class TDesC8 const &)
	?NewL@CSenIdentityProviderIdArray8@@SAPAV1@H@Z @ 88 NONAME ; class CSenIdentityProviderIdArray8 * CSenIdentityProviderIdArray8::NewL(int)
	?NewL@CSenIdentityProviderIdArray8@@SAPAV1@XZ @ 89 NONAME ; class CSenIdentityProviderIdArray8 * CSenIdentityProviderIdArray8::NewL(void)
	?NewL@CSenPolicy@@SAPAV1@K@Z @ 90 NONAME ; class CSenPolicy * CSenPolicy::NewL(unsigned long)
	?NewL@CSenPolicy@@SAPAV1@XZ @ 91 NONAME ; class CSenPolicy * CSenPolicy::NewL(void)
	?NewL@CSenProviderPolicy@@SAPAV1@K@Z @ 92 NONAME ; class CSenProviderPolicy * CSenProviderPolicy::NewL(unsigned long)
	?NewL@CSenProviderPolicy@@SAPAV1@XZ @ 93 NONAME ; class CSenProviderPolicy * CSenProviderPolicy::NewL(void)
	?NewL@CSenServicePattern@@SAPAV1@ABVTDesC8@@0@Z @ 94 NONAME ; class CSenServicePattern * CSenServicePattern::NewL(class TDesC8 const &, class TDesC8 const &)
	?NewL@CSenServicePattern@@SAPAV1@ABVTDesC8@@@Z @ 95 NONAME ; class CSenServicePattern * CSenServicePattern::NewL(class TDesC8 const &)
	?NewL@CSenServicePattern@@SAPAV1@XZ @ 96 NONAME ; class CSenServicePattern * CSenServicePattern::NewL(void)
	?NewL@CSenXmlServiceDescription@@SAPAV1@ABVTDesC8@@0@Z @ 97 NONAME ; class CSenXmlServiceDescription * CSenXmlServiceDescription::NewL(class TDesC8 const &, class TDesC8 const &)
	?NewL@CSenXmlServiceDescription@@SAPAV1@ABVTDesC8@@@Z @ 98 NONAME ; class CSenXmlServiceDescription * CSenXmlServiceDescription::NewL(class TDesC8 const &)
	?NewL@CSenXmlServiceDescription@@SAPAV1@XZ @ 99 NONAME ; class CSenXmlServiceDescription * CSenXmlServiceDescription::NewL(void)
	?NewLC@CSenConsumerPolicy@@SAPAV1@K@Z @ 100 NONAME ; class CSenConsumerPolicy * CSenConsumerPolicy::NewLC(unsigned long)
	?NewLC@CSenConsumerPolicy@@SAPAV1@XZ @ 101 NONAME ; class CSenConsumerPolicy * CSenConsumerPolicy::NewLC(void)
	?NewLC@CSenCredential@@SAPAV1@ABV1@@Z @ 102 NONAME ; class CSenCredential * CSenCredential::NewLC(class CSenCredential const &)
	?NewLC@CSenCredential@@SAPAV1@ABVTDesC8@@00ABV?$RArray@VRAttribute@Xml@@@@@Z @ 103 NONAME ; class CSenCredential * CSenCredential::NewLC(class TDesC8 const &, class TDesC8 const &, class TDesC8 const &, class RArray<class Xml::RAttribute> const &)
	?NewLC@CSenCredential@@SAPAV1@ABVTDesC8@@00ABV?$RArray@VRAttribute@Xml@@@@AAVCSenElement@@@Z @ 104 NONAME ; class CSenCredential * CSenCredential::NewLC(class TDesC8 const &, class TDesC8 const &, class TDesC8 const &, class RArray<class Xml::RAttribute> const &, class CSenElement &)
	?NewLC@CSenIdentityProvider@@SAPAV1@ABVTDesC8@@000@Z @ 105 NONAME ; class CSenIdentityProvider * CSenIdentityProvider::NewLC(class TDesC8 const &, class TDesC8 const &, class TDesC8 const &, class TDesC8 const &)
	?NewLC@CSenIdentityProvider@@SAPAV1@ABVTDesC8@@00@Z @ 106 NONAME ; class CSenIdentityProvider * CSenIdentityProvider::NewLC(class TDesC8 const &, class TDesC8 const &, class TDesC8 const &)
	?NewLC@CSenIdentityProvider@@SAPAV1@ABVTDesC8@@0@Z @ 107 NONAME ; class CSenIdentityProvider * CSenIdentityProvider::NewLC(class TDesC8 const &, class TDesC8 const &)
	?NewLC@CSenIdentityProvider@@SAPAV1@ABVTDesC8@@@Z @ 108 NONAME ; class CSenIdentityProvider * CSenIdentityProvider::NewLC(class TDesC8 const &)
	?NewLC@CSenIdentityProviderIdArray8@@SAPAV1@H@Z @ 109 NONAME ; class CSenIdentityProviderIdArray8 * CSenIdentityProviderIdArray8::NewLC(int)
	?NewLC@CSenIdentityProviderIdArray8@@SAPAV1@XZ @ 110 NONAME ; class CSenIdentityProviderIdArray8 * CSenIdentityProviderIdArray8::NewLC(void)
	?NewLC@CSenPolicy@@SAPAV1@K@Z @ 111 NONAME ; class CSenPolicy * CSenPolicy::NewLC(unsigned long)
	?NewLC@CSenPolicy@@SAPAV1@XZ @ 112 NONAME ; class CSenPolicy * CSenPolicy::NewLC(void)
	?NewLC@CSenProviderPolicy@@SAPAV1@K@Z @ 113 NONAME ; class CSenProviderPolicy * CSenProviderPolicy::NewLC(unsigned long)
	?NewLC@CSenProviderPolicy@@SAPAV1@XZ @ 114 NONAME ; class CSenProviderPolicy * CSenProviderPolicy::NewLC(void)
	?NewLC@CSenServicePattern@@SAPAV1@ABVTDesC8@@0@Z @ 115 NONAME ; class CSenServicePattern * CSenServicePattern::NewLC(class TDesC8 const &, class TDesC8 const &)
	?NewLC@CSenServicePattern@@SAPAV1@ABVTDesC8@@@Z @ 116 NONAME ; class CSenServicePattern * CSenServicePattern::NewLC(class TDesC8 const &)
	?NewLC@CSenServicePattern@@SAPAV1@XZ @ 117 NONAME ; class CSenServicePattern * CSenServicePattern::NewLC(void)
	?NewLC@CSenXmlServiceDescription@@SAPAV1@ABVTDesC8@@0@Z @ 118 NONAME ; class CSenXmlServiceDescription * CSenXmlServiceDescription::NewLC(class TDesC8 const &, class TDesC8 const &)
	?NewLC@CSenXmlServiceDescription@@SAPAV1@ABVTDesC8@@@Z @ 119 NONAME ; class CSenXmlServiceDescription * CSenXmlServiceDescription::NewLC(class TDesC8 const &)
	?NewLC@CSenXmlServiceDescription@@SAPAV1@XZ @ 120 NONAME ; class CSenXmlServiceDescription * CSenXmlServiceDescription::NewLC(void)
	?Password@CSenIdentityProvider@@UAE?AVTPtrC8@@XZ @ 121 NONAME ; class TPtrC8 CSenIdentityProvider::Password(void)
	?ProviderID@CSenIdentityProvider@@QAE?AVTPtrC8@@XZ @ 122 NONAME ; class TPtrC8 CSenIdentityProvider::ProviderID(void)
	?RebuildFrom@CSenConsumerPolicy@@UAEHAAVMSenConsumerPolicy@@@Z @ 123 NONAME ; int CSenConsumerPolicy::RebuildFrom(class MSenConsumerPolicy &)
	?RebuildFrom@CSenPolicy@@UAEHAAVMSenPolicy@@@Z @ 124 NONAME ; int CSenPolicy::RebuildFrom(class MSenPolicy &)
	?RebuildFrom@CSenProviderPolicy@@UAEHAAVMSenProviderPolicy@@@Z @ 125 NONAME ; int CSenProviderPolicy::RebuildFrom(class MSenProviderPolicy &)
	?RebuildFrom@CSenXmlServiceDescription@@UAEHAAVMSenProviderPolicy@@@Z @ 126 NONAME ; int CSenXmlServiceDescription::RebuildFrom(class MSenProviderPolicy &)
	?RebuildFromConsumerPolicy@CSenServicePattern@@UAEHAAVMSenConsumerPolicy@@@Z @ 127 NONAME ; int CSenServicePattern::RebuildFromConsumerPolicy(class MSenConsumerPolicy &)
	?RemoveFacet@CSenXmlServiceDescription@@UAEHABVTDesC8@@@Z @ 128 NONAME ; int CSenXmlServiceDescription::RemoveFacet(class TDesC8 const &)
	?ResumeParsingFromL@CSenXmlServiceDescription@@UAEXABVTDesC8@@00@Z @ 129 NONAME ; void CSenXmlServiceDescription::ResumeParsingFromL(class TDesC8 const &, class TDesC8 const &, class TDesC8 const &)
	?ScoreMatchL@CSenXmlServiceDescription@@UAEHAAVMSenServiceDescription@@@Z @ 130 NONAME ; int CSenXmlServiceDescription::ScoreMatchL(class MSenServiceDescription &)
	?SetAttributesL@CSenXmlServiceDescription@@UAEXABV?$RArray@VRAttribute@Xml@@@@@Z @ 131 NONAME ; void CSenXmlServiceDescription::SetAttributesL(class RArray<class Xml::RAttribute> const &)
	?SetConsumerIapIdL@CSenServicePattern@@UAEXK@Z @ 132 NONAME ; void CSenServicePattern::SetConsumerIapIdL(unsigned long)
	?SetConsumerIdentityProviderIdsL@CSenServicePattern@@UAEXAAVCSenIdentityProviderIdArray8@@@Z @ 133 NONAME ; void CSenServicePattern::SetConsumerIdentityProviderIdsL(class CSenIdentityProviderIdArray8 &)
	?SetContractL@CSenXmlServiceDescription@@UAEXABVTDesC8@@@Z @ 134 NONAME ; void CSenXmlServiceDescription::SetContractL(class TDesC8 const &)
	?SetEndPointL@CSenXmlServiceDescription@@UAEXABVTDesC8@@@Z @ 135 NONAME ; void CSenXmlServiceDescription::SetEndPointL(class TDesC8 const &)
	?SetFacetL@CSenXmlServiceDescription@@UAEHABVCSenFacet@@@Z @ 136 NONAME ; int CSenXmlServiceDescription::SetFacetL(class CSenFacet const &)
	?SetFrameworkIdL@CSenXmlServiceDescription@@QAEXABVTDesC8@@@Z @ 137 NONAME ; void CSenXmlServiceDescription::SetFrameworkIdL(class TDesC8 const &)
	?SetIapIdL@CSenPolicy@@UAEXK@Z @ 138 NONAME ; void CSenPolicy::SetIapIdL(unsigned long)
	?SetIapIdL@CSenXmlServiceDescription@@UAEXK@Z @ 139 NONAME ; void CSenXmlServiceDescription::SetIapIdL(unsigned long)
	?SetIdentityProviderIdsL@CSenPolicy@@UAEXAAVCSenIdentityProviderIdArray8@@@Z @ 140 NONAME ; void CSenPolicy::SetIdentityProviderIdsL(class CSenIdentityProviderIdArray8 &)
	?SetIdentityProviderIdsL@CSenXmlServiceDescription@@UAEXAAVCSenIdentityProviderIdArray8@@@Z @ 141 NONAME ; void CSenXmlServiceDescription::SetIdentityProviderIdsL(class CSenIdentityProviderIdArray8 &)
	?SetNameL@CSenFacet@@UAEXABVTDesC8@@@Z @ 142 NONAME ; void CSenFacet::SetNameL(class TDesC8 const &)
	?SetProviderID@CSenIdentityProvider@@QAEHABVTDesC8@@@Z @ 143 NONAME ; int CSenIdentityProvider::SetProviderID(class TDesC8 const &)
	?SetServiceID@CSenIdentityProvider@@QAEHABVTDesC8@@@Z @ 144 NONAME ; int CSenIdentityProvider::SetServiceID(class TDesC8 const &)
	?SetStrict@CSenIdentityProviderIdArray8@@UAEXH@Z @ 145 NONAME ; void CSenIdentityProviderIdArray8::SetStrict(int)
	?SetTypeL@CSenFacet@@UAEXABVTDesC8@@@Z @ 146 NONAME ; void CSenFacet::SetTypeL(class TDesC8 const &)
	?SetUserInfoL@CSenIdentityProvider@@QAEHABVTDesC8@@00@Z @ 147 NONAME ; int CSenIdentityProvider::SetUserInfoL(class TDesC8 const &, class TDesC8 const &, class TDesC8 const &)
	?SetValidUntil@CSenCredential@@QAEXAAVTTime@@@Z @ 148 NONAME ; void CSenCredential::SetValidUntil(class TTime &)
	?SetValueL@CSenFacet@@UAEXABVTDesC8@@@Z @ 149 NONAME ; void CSenFacet::SetValueL(class TDesC8 const &)
	?StartElementL@CSenCredential@@MAEXABVTDesC8@@00ABV?$RArray@VRAttribute@Xml@@@@@Z @ 150 NONAME ; void CSenCredential::StartElementL(class TDesC8 const &, class TDesC8 const &, class TDesC8 const &, class RArray<class Xml::RAttribute> const &)
	?StartElementL@CSenServicePattern@@UAEXABVTDesC8@@00ABV?$RArray@VRAttribute@Xml@@@@@Z @ 151 NONAME ; void CSenServicePattern::StartElementL(class TDesC8 const &, class TDesC8 const &, class TDesC8 const &, class RArray<class Xml::RAttribute> const &)
	?StartElementL@CSenXmlServiceDescription@@MAEXABVTDesC8@@00ABV?$RArray@VRAttribute@Xml@@@@@Z @ 152 NONAME ; void CSenXmlServiceDescription::StartElementL(class TDesC8 const &, class TDesC8 const &, class TDesC8 const &, class RArray<class Xml::RAttribute> const &)
	?Type@CSenFacet@@UAE?AVTPtrC8@@XZ @ 153 NONAME ; class TPtrC8 CSenFacet::Type(void)
	?UserName@CSenIdentityProvider@@QAE?AVTPtrC8@@XZ @ 154 NONAME ; class TPtrC8 CSenIdentityProvider::UserName(void)
	?ValidUntil@CSenCredential@@QAEAAVTTime@@XZ @ 155 NONAME ; class TTime & CSenCredential::ValidUntil(void)
	?Value@CSenFacet@@UAE?AVTPtrC8@@XZ @ 156 NONAME ; class TPtrC8 CSenFacet::Value(void)
	?WriteAsXMLToL@CSenXmlServiceDescription@@UAEXAAVRWriteStream@@@Z @ 157 NONAME ; void CSenXmlServiceDescription::WriteAsXMLToL(class RWriteStream &)
	??0CSenCredential2@@IAE@XZ @ 158 NONAME ; CSenCredential2::CSenCredential2(void)
	??1CSenCredential2@@UAE@XZ @ 159 NONAME ; CSenCredential2::~CSenCredential2(void)
	?BaseConstructL@CSenCredential2@@IAEXAAV1@@Z @ 160 NONAME ; void CSenCredential2::BaseConstructL(class CSenCredential2 &)
	?BaseConstructL@CSenCredential2@@IAEXABVTDesC8@@00ABV?$RArray@VRAttribute@Xml@@@@@Z @ 161 NONAME ; void CSenCredential2::BaseConstructL(class TDesC8 const &, class TDesC8 const &, class TDesC8 const &, class RArray<class Xml::RAttribute> const &)
	?BaseConstructL@CSenCredential2@@IAEXABVTDesC8@@00ABV?$RArray@VRAttribute@Xml@@@@AAVTXmlEngElement@@@Z @ 162 NONAME ; void CSenCredential2::BaseConstructL(class TDesC8 const &, class TDesC8 const &, class TDesC8 const &, class RArray<class Xml::RAttribute> const &, class TXmlEngElement &)
	?BaseConstructL@CSenCredential2@@IAEXABVTDesC8@@00ABV?$RArray@VRAttribute@Xml@@@@AAVTXmlEngElement@@AAVRSenDocument@@@Z @ 163 NONAME ; void CSenCredential2::BaseConstructL(class TDesC8 const &, class TDesC8 const &, class TDesC8 const &, class RArray<class Xml::RAttribute> const &, class TXmlEngElement &, class RSenDocument &)
	?ConstructL@CSenCredential2@@AAEXABVTDesC8@@@Z @ 164 NONAME ; void CSenCredential2::ConstructL(class TDesC8 const &)
	?HasEqualPrimaryKeysL@CSenXmlServiceDescription@@QAEHAAVMSenServiceDescription@@@Z @ 165 NONAME ; int CSenXmlServiceDescription::HasEqualPrimaryKeysL(class MSenServiceDescription &)
	?Id@CSenCredential2@@UAEABVTDesC8@@XZ @ 166 NONAME ; class TDesC8 const & CSenCredential2::Id(void)
	?IsLocalL@CSenXmlServiceDescription@@QAEHXZ @ 167 NONAME ; int CSenXmlServiceDescription::IsLocalL(void)
	?NewL@CSenCredential2@@SAPAV1@ABV1@@Z @ 168 NONAME ; class CSenCredential2 * CSenCredential2::NewL(class CSenCredential2 const &)
	?NewL@CSenCredential2@@SAPAV1@ABVTDesC8@@00ABV?$RArray@VRAttribute@Xml@@@@@Z @ 169 NONAME ; class CSenCredential2 * CSenCredential2::NewL(class TDesC8 const &, class TDesC8 const &, class TDesC8 const &, class RArray<class Xml::RAttribute> const &)
	?NewL@CSenCredential2@@SAPAV1@ABVTDesC8@@00ABV?$RArray@VRAttribute@Xml@@@@AAVTXmlEngElement@@@Z @ 170 NONAME ; class CSenCredential2 * CSenCredential2::NewL(class TDesC8 const &, class TDesC8 const &, class TDesC8 const &, class RArray<class Xml::RAttribute> const &, class TXmlEngElement &)
	?NewL@CSenCredential2@@SAPAV1@ABVTDesC8@@00ABV?$RArray@VRAttribute@Xml@@@@AAVTXmlEngElement@@AAVRSenDocument@@@Z @ 171 NONAME ; class CSenCredential2 * CSenCredential2::NewL(class TDesC8 const &, class TDesC8 const &, class TDesC8 const &, class RArray<class Xml::RAttribute> const &, class TXmlEngElement &, class RSenDocument &)
	?NewL@CSenCredential2@@SAPAV1@XZ @ 172 NONAME ; class CSenCredential2 * CSenCredential2::NewL(void)
	?NewLC@CSenCredential2@@SAPAV1@ABV1@@Z @ 173 NONAME ; class CSenCredential2 * CSenCredential2::NewLC(class CSenCredential2 const &)
	?NewLC@CSenCredential2@@SAPAV1@ABVTDesC8@@00ABV?$RArray@VRAttribute@Xml@@@@@Z @ 174 NONAME ; class CSenCredential2 * CSenCredential2::NewLC(class TDesC8 const &, class TDesC8 const &, class TDesC8 const &, class RArray<class Xml::RAttribute> const &)
	?NewLC@CSenCredential2@@SAPAV1@ABVTDesC8@@00ABV?$RArray@VRAttribute@Xml@@@@AAVTXmlEngElement@@@Z @ 175 NONAME ; class CSenCredential2 * CSenCredential2::NewLC(class TDesC8 const &, class TDesC8 const &, class TDesC8 const &, class RArray<class Xml::RAttribute> const &, class TXmlEngElement &)
	?NewLC@CSenCredential2@@SAPAV1@ABVTDesC8@@00ABV?$RArray@VRAttribute@Xml@@@@AAVTXmlEngElement@@AAVRSenDocument@@@Z @ 176 NONAME ; class CSenCredential2 * CSenCredential2::NewLC(class TDesC8 const &, class TDesC8 const &, class TDesC8 const &, class RArray<class Xml::RAttribute> const &, class TXmlEngElement &, class RSenDocument &)
	?NewLC@CSenCredential2@@SAPAV1@XZ @ 177 NONAME ; class CSenCredential2 * CSenCredential2::NewLC(void)
	?OnStartElementL@CSenCredential2@@MAEXABVRTagInfo@Xml@@ABV?$RArray@VRAttribute@Xml@@@@H@Z @ 178 NONAME ; void CSenCredential2::OnStartElementL(class Xml::RTagInfo const &, class RArray<class Xml::RAttribute> const &, int)
	?PromptUserInfo@CSenXmlServiceDescription@@QAEHXZ @ 179 NONAME ; int CSenXmlServiceDescription::PromptUserInfo(void)
	?ProviderId@CSenXmlServiceDescription@@QAE?AVTPtrC8@@XZ @ 180 NONAME ; class TPtrC8 CSenXmlServiceDescription::ProviderId(void)
	?ServicePolicy@CSenXmlServiceDescription@@QAEPAVMSenServicePolicy@@XZ @ 181 NONAME ; class MSenServicePolicy * CSenXmlServiceDescription::ServicePolicy(void)
	?SetIdL@CSenCredential2@@AAEXABVTDesC8@@@Z @ 182 NONAME ; void CSenCredential2::SetIdL(class TDesC8 const &)
	?SetPolicyL@CSenXmlServiceDescription@@QAEHABVTDesC8@@000@Z @ 183 NONAME ; int CSenXmlServiceDescription::SetPolicyL(class TDesC8 const &, class TDesC8 const &, class TDesC8 const &, class TDesC8 const &)
	?SetPolicyL@CSenXmlServiceDescription@@QAEHABVTDesC8@@0@Z @ 184 NONAME ; int CSenXmlServiceDescription::SetPolicyL(class TDesC8 const &, class TDesC8 const &)
	?SetPolicyL@CSenXmlServiceDescription@@QAEHABVTDesC8@@@Z @ 185 NONAME ; int CSenXmlServiceDescription::SetPolicyL(class TDesC8 const &)
	?SetPromptUserInfoL@CSenXmlServiceDescription@@QAEXH@Z @ 186 NONAME ; void CSenXmlServiceDescription::SetPromptUserInfoL(int)
	?SetProviderIdL@CSenIdentityProvider@@QAEHABVTDesC8@@@Z @ 187 NONAME ; int CSenIdentityProvider::SetProviderIdL(class TDesC8 const &)
	?SetProviderIdL@CSenXmlServiceDescription@@QAEHABVTDesC8@@@Z @ 188 NONAME ; int CSenXmlServiceDescription::SetProviderIdL(class TDesC8 const &)
	?SetTransportCueL@CSenXmlServiceDescription@@QAEHABVTDesC8@@@Z @ 189 NONAME ; int CSenXmlServiceDescription::SetTransportCueL(class TDesC8 const &)
	?SetValidUntil@CSenCredential2@@UAEXAAVTTime@@@Z @ 190 NONAME ; void CSenCredential2::SetValidUntil(class TTime &)
	?TransportCue@CSenXmlServiceDescription@@QAE?AVTPtrC8@@XZ @ 191 NONAME ; class TPtrC8 CSenXmlServiceDescription::TransportCue(void)
	?ValidUntil@CSenCredential2@@UAEAAVTTime@@XZ @ 192 NONAME ; class TTime & CSenCredential2::ValidUntil(void)
	?BaseConstructL@CSenConsumerPolicy@@AAEXKH@Z @ 193 NONAME ; void CSenConsumerPolicy::BaseConstructL(unsigned long, int)
	?BaseConstructL@CSenPolicy@@IAEXABVTDesC8@@KH@Z @ 194 NONAME ; void CSenPolicy::BaseConstructL(class TDesC8 const &, unsigned long, int)
	?BaseConstructL@CSenProviderPolicy@@AAEXKH@Z @ 195 NONAME ; void CSenProviderPolicy::BaseConstructL(unsigned long, int)
	?ConsumerSnapId@CSenServicePattern@@QAEHAAK@Z @ 196 NONAME ; int CSenServicePattern::ConsumerSnapId(unsigned long &)
	?NewL@CSenConsumerPolicy@@SAPAV1@KH@Z @ 197 NONAME ; class CSenConsumerPolicy * CSenConsumerPolicy::NewL(unsigned long, int)
	?NewL@CSenPolicy@@SAPAV1@KH@Z @ 198 NONAME ; class CSenPolicy * CSenPolicy::NewL(unsigned long, int)
	?NewL@CSenProviderPolicy@@SAPAV1@KH@Z @ 199 NONAME ; class CSenProviderPolicy * CSenProviderPolicy::NewL(unsigned long, int)
	?NewLC@CSenConsumerPolicy@@SAPAV1@KH@Z @ 200 NONAME ; class CSenConsumerPolicy * CSenConsumerPolicy::NewLC(unsigned long, int)
	?NewLC@CSenPolicy@@SAPAV1@KH@Z @ 201 NONAME ; class CSenPolicy * CSenPolicy::NewLC(unsigned long, int)
	?NewLC@CSenProviderPolicy@@SAPAV1@KH@Z @ 202 NONAME ; class CSenProviderPolicy * CSenProviderPolicy::NewLC(unsigned long, int)
	?SetConsumerSnapIdL@CSenServicePattern@@QAEXK@Z @ 203 NONAME ; void CSenServicePattern::SetConsumerSnapIdL(unsigned long)
	?SetSnapIdL@CSenPolicy@@UAEXK@Z @ 204 NONAME ; void CSenPolicy::SetSnapIdL(unsigned long)
	?SetSnapIdL@CSenXmlServiceDescription@@QAEXK@Z @ 205 NONAME ; void CSenXmlServiceDescription::SetSnapIdL(unsigned long)
	?SnapId@CSenPolicy@@UAEHAAK@Z @ 206 NONAME ; int CSenPolicy::SnapId(unsigned long &)
	?SnapId@CSenXmlServiceDescription@@QAEHAAK@Z @ 207 NONAME ; int CSenXmlServiceDescription::SnapId(unsigned long &)
	?AccountExtensions@CSenIdentityProvider@@QAE?AVTPtrC8@@AAPAVCSenElement@@@Z @ 208 NONAME ; class TPtrC8 CSenIdentityProvider::AccountExtensions(class CSenElement * &)
	?SetAccountExtensionsL@CSenIdentityProvider@@QAEHABVTDesC8@@@Z @ 209 NONAME ; int CSenIdentityProvider::SetAccountExtensionsL(class TDesC8 const &)
	?SetTransportPropertiesL@CSenProviderPolicy@@QAEHABVTDesC8@@@Z @ 210 NONAME ; int CSenProviderPolicy::SetTransportPropertiesL(class TDesC8 const &)
	?SetTransportPropertiesL@CSenXmlServiceDescription@@QAEHABVTDesC8@@@Z @ 211 NONAME ; int CSenXmlServiceDescription::SetTransportPropertiesL(class TDesC8 const &)
	?TransportPropertiesL@CSenProviderPolicy@@QAEHAAPAVHBufC8@@@Z @ 212 NONAME ; int CSenProviderPolicy::TransportPropertiesL(class HBufC8 * &)
	?TransportPropertiesL@CSenXmlServiceDescription@@QAEHAAPAVHBufC8@@@Z @ 213 NONAME ; int CSenXmlServiceDescription::TransportPropertiesL(class HBufC8 * &)

