EXPORTS
	_ZN11THTTPHdrVal11SetDateTimeE9TDateTime @ 1 NONAME
	_ZN11THTTPHdrVal6SetIntEi @ 2 NONAME
	_ZN11THTTPHdrVal6SetStrE7RString @ 3 NONAME
	_ZN11THTTPHdrVal7SetStrFE8RStringF @ 4 NONAME
	_ZN11THTTPHdrValC1E7RString @ 5 NONAME
	_ZN11THTTPHdrValC1E8RStringF @ 6 NONAME
	_ZN11THTTPHdrValC1E9TDateTime @ 7 NONAME
	_ZN11THTTPHdrValC1Ei @ 8 NONAME
	_ZN11THTTPHdrValC1Ev @ 9 NONAME
	_ZN11THTTPHdrValC2E7RString @ 10 NONAME
	_ZN11THTTPHdrValC2E8RStringF @ 11 NONAME
	_ZN11THTTPHdrValC2E9TDateTime @ 12 NONAME
	_ZN11THTTPHdrValC2Ei @ 13 NONAME
	_ZN11THTTPHdrValC2Ev @ 14 NONAME
	_ZN12CHeaderField8RawDataLER6TPtrC8 @ 15 NONAME
	_ZN12RHTTPHeaders11RemoveFieldE8RStringF @ 16 NONAME
	_ZN12RHTTPHeaders12SetRawFieldLE8RStringFRK6TDesC8S3_ @ 17 NONAME
	_ZN12RHTTPHeaders15RemoveAllFieldsEv @ 18 NONAME
	_ZN12RHTTPHeaders15RemoveFieldPartE8RStringFi @ 19 NONAME
	_ZN12RHTTPHeaders9SetFieldLE8RStringF11THTTPHdrVal @ 20 NONAME
	_ZN12RHTTPHeaders9SetFieldLE8RStringF11THTTPHdrValS0_S1_ @ 21 NONAME
	_ZN12RHTTPHeaders9SetParamLE8RStringFS0_11THTTPHdrVali @ 22 NONAME
	_ZN12RUPnPMessage10RemoveBodyEv @ 23 NONAME
	_ZN12RUPnPMessage19GetHeaderCollectionEv @ 24 NONAME
	_ZN12RUPnPMessage7SetBodyER17MHTTPDataSupplier @ 25 NONAME
	_ZN16CHeaderFieldPart4NewLE11THTTPHdrVal @ 26 NONAME
	_ZN16CHeaderFieldPart9AddParamLEP17CHeaderFieldParam @ 27 NONAME
	_ZN17CHeaderFieldParam4NewLE8RStringF11THTTPHdrVal @ 28 NONAME
	_ZN17THTTPHdrFieldIter5FirstEv @ 29 NONAME
	_ZN17THTTPHdrFieldIterD1Ev @ 30 NONAME
	_ZN17THTTPHdrFieldIterD2Ev @ 31 NONAME
	_ZN17THTTPHdrFieldIterclEv @ 32 NONAME
	_ZN17THTTPHdrFieldIterppEv @ 33 NONAME
	_ZN18CUpnpRequestParser11ResetParserEv @ 34 NONAME
	_ZN18CUpnpRequestParser12ParseRequestER9RMemChunkP8CRequest @ 35 NONAME
	_ZN18CUpnpRequestParser4NewLER15MParserObserver @ 36 NONAME
	_ZN18CUpnpRequestParserD0Ev @ 37 NONAME
	_ZN18CUpnpRequestParserD1Ev @ 38 NONAME
	_ZN18CUpnpRequestParserD2Ev @ 39 NONAME
	_ZN19CUpnpResponseParser11ResetParserEv @ 40 NONAME
	_ZN19CUpnpResponseParser13ParseResponseER9RMemChunkP9CResponse @ 41 NONAME
	_ZN19CUpnpResponseParser4NewLER15MParserObserver @ 42 NONAME
	_ZN19CUpnpResponseParserD0Ev @ 43 NONAME
	_ZN19CUpnpResponseParserD1Ev @ 44 NONAME
	_ZN19CUpnpResponseParserD2Ev @ 45 NONAME
	_ZN20CUPnPMessageComposer17NotifyNewBodyDataEv @ 46 NONAME
	_ZN20CUpnpRequestComposer13ResetComposerEv @ 47 NONAME
	_ZN20CUpnpRequestComposer14ComposeRequestEP8CRequest @ 48 NONAME
	_ZN20CUpnpRequestComposer15RequestDataSentEv @ 49 NONAME
	_ZN20CUpnpRequestComposer4NewLER17MComposerObserver @ 50 NONAME
	_ZN20CUpnpRequestComposerD0Ev @ 51 NONAME
	_ZN20CUpnpRequestComposerD1Ev @ 52 NONAME
	_ZN20CUpnpRequestComposerD2Ev @ 53 NONAME
	_ZN20THeaderFieldPartIter5AtEndEv @ 54 NONAME
	_ZN20THeaderFieldPartIter5FirstEv @ 55 NONAME
	_ZN20THeaderFieldPartIterclEv @ 56 NONAME
	_ZN20THeaderFieldPartIterppEv @ 57 NONAME
	_ZN21CUpnpResponseComposer13ResetComposerEv @ 58 NONAME
	_ZN21CUpnpResponseComposer15ComposeResponseEP9CResponse @ 59 NONAME
	_ZN21CUpnpResponseComposer16ResponseDataSentEv @ 60 NONAME
	_ZN21CUpnpResponseComposer4NewLER17MComposerObserver @ 61 NONAME
	_ZN21CUpnpResponseComposerD0Ev @ 62 NONAME
	_ZN21CUpnpResponseComposerD1Ev @ 63 NONAME
	_ZN21CUpnpResponseComposerD2Ev @ 64 NONAME
	_ZN21THeaderFieldParamIter5AtEndEv @ 65 NONAME
	_ZN21THeaderFieldParamIter5FirstEv @ 66 NONAME
	_ZN21THeaderFieldParamIterD1Ev @ 67 NONAME
	_ZN21THeaderFieldParamIterD2Ev @ 68 NONAME
	_ZN21THeaderFieldParamIterclEv @ 69 NONAME
	_ZN21THeaderFieldParamIterppEv @ 70 NONAME
	_ZN8CRequest4NewLER12CHeaderCodecR11RStringPool @ 71 NONAME
	_ZN8CRequestD0Ev @ 72 NONAME
	_ZN8CRequestD1Ev @ 73 NONAME
	_ZN8CRequestD2Ev @ 74 NONAME
	_ZN8RRequest10SetVersionE8TVersion @ 75 NONAME
	_ZN8RRequest7SetURILERK6TUriC8 @ 76 NONAME
	_ZN8RRequest9SetMethodE8RStringF @ 77 NONAME
	_ZN9CResponse4NewLER12CHeaderCodecR11RStringPool @ 78 NONAME
	_ZN9CResponseD0Ev @ 79 NONAME
	_ZN9CResponseD1Ev @ 80 NONAME
	_ZN9CResponseD2Ev @ 81 NONAME
	_ZN9RResponse10SetVersionE8TVersion @ 82 NONAME
	_ZN9RResponse13SetStatusCodeEi @ 83 NONAME
	_ZN9RResponse13SetStatusTextE8RStringF @ 84 NONAME
	_ZNK11THTTPHdrVal3IntEv @ 85 NONAME
	_ZNK11THTTPHdrVal3StrEv @ 86 NONAME
	_ZNK11THTTPHdrVal4CopyEv @ 87 NONAME
	_ZNK11THTTPHdrVal4StrFEv @ 88 NONAME
	_ZNK11THTTPHdrVal4TypeEv @ 89 NONAME
	_ZNK11THTTPHdrVal8DateTimeEv @ 90 NONAME
	_ZNK11THTTPHdrValeqES_ @ 91 NONAME
	_ZNK11THTTPHdrValneES_ @ 92 NONAME
	_ZNK12RHTTPHeaders11FieldPartsLE8RStringF @ 93 NONAME
	_ZNK12RHTTPHeaders11GetRawFieldE8RStringFR6TPtrC8 @ 94 NONAME
	_ZNK12RHTTPHeaders6FieldsEv @ 95 NONAME
	_ZNK12RHTTPHeaders8GetFieldE8RStringFiR11THTTPHdrVal @ 96 NONAME
	_ZNK12RHTTPHeaders8GetParamE8RStringFS0_R11THTTPHdrVali @ 97 NONAME
	_ZNK12RUPnPMessage4BodyEv @ 98 NONAME
	_ZNK12RUPnPMessage7HasBodyEv @ 99 NONAME
	_ZNK16CHeaderFieldPart10ParametersEv @ 100 NONAME
	_ZNK16CHeaderFieldPart13NumParametersEv @ 101 NONAME
	_ZNK16CHeaderFieldPart5ValueEv @ 102 NONAME
	_ZNK17CHeaderFieldParam4NameEv @ 103 NONAME
	_ZNK17CHeaderFieldParam5ValueEv @ 104 NONAME
	_ZNK17THTTPHdrFieldIter5AtEndEv @ 105 NONAME
	_ZNK8RRequest3URIEv @ 106 NONAME
	_ZNK8RRequest6MethodEv @ 107 NONAME
	_ZNK8RRequest8IsHTTP10Ev @ 108 NONAME
	_ZNK9RResponse10StatusCodeEv @ 109 NONAME
	_ZNK9RResponse10StatusTextEv @ 110 NONAME
	_ZNK9RResponse8IsHTTP10Ev @ 111 NONAME
	_ZTI12CHeaderField @ 112 NONAME
	_ZTI16CHeaderFieldPart @ 113 NONAME
	_ZTI17CHeaderFieldParam @ 114 NONAME
	_ZTI18CUpnpRequestParser @ 115 NONAME
	_ZTI19CUpnpResponseParser @ 116 NONAME
	_ZTI20CUPnPMessageComposer @ 117 NONAME
	_ZTI20CUpnpRequestComposer @ 118 NONAME
	_ZTI21CUpnpResponseComposer @ 119 NONAME
	_ZTI8CHeaders @ 120 NONAME
	_ZTI8CRequest @ 121 NONAME
	_ZTI9CResponse @ 122 NONAME
	_ZTV12CHeaderField @ 123 NONAME
	_ZTV16CHeaderFieldPart @ 124 NONAME
	_ZTV17CHeaderFieldParam @ 125 NONAME
	_ZTV18CUpnpRequestParser @ 126 NONAME
	_ZTV19CUpnpResponseParser @ 127 NONAME
	_ZTV20CUPnPMessageComposer @ 128 NONAME
	_ZTV20CUpnpRequestComposer @ 129 NONAME
	_ZTV21CUpnpResponseComposer @ 130 NONAME
	_ZTV8CHeaders @ 131 NONAME
	_ZTV8CRequest @ 132 NONAME
	_ZTV9CResponse @ 133 NONAME

