EXPORTS
	_ZN5QJson10Serializer9serializeERK8QVariant @ 1 NONAME
	_ZN5QJson10Serializer9serializeERK8QVariantP9QIODevicePb @ 2 NONAME
	_ZN5QJson10SerializerC1Ev @ 3 NONAME
	_ZN5QJson10SerializerC2Ev @ 4 NONAME
	_ZN5QJson10SerializerD1Ev @ 5 NONAME
	_ZN5QJson10SerializerD2Ev @ 6 NONAME
	_ZN5QJson13QObjectHelper16qobject2qvariantEPK7QObjectRK11QStringList @ 7 NONAME
	_ZN5QJson13QObjectHelper16qvariant2qobjectERK4QMapI7QString8QVariantEP7QObject @ 8 NONAME
	_ZN5QJson13QObjectHelperC1Ev @ 9 NONAME
	_ZN5QJson13QObjectHelperC2Ev @ 10 NONAME
	_ZN5QJson13QObjectHelperD1Ev @ 11 NONAME
	_ZN5QJson13QObjectHelperD2Ev @ 12 NONAME
	_ZN5QJson14ParserRunnable11qt_metacallEN11QMetaObject4CallEiPPv @ 13 NONAME
	_ZN5QJson14ParserRunnable11qt_metacastEPKc @ 14 NONAME
	_ZN5QJson14ParserRunnable15parsingFinishedERK8QVariantbRK7QString @ 15 NONAME
	_ZN5QJson14ParserRunnable16staticMetaObjectE @ 16 NONAME DATA 16
	_ZN5QJson14ParserRunnable19getStaticMetaObjectEv @ 17 NONAME
	_ZN5QJson14ParserRunnable3runEv @ 18 NONAME
	_ZN5QJson14ParserRunnable7setDataERK10QByteArray @ 19 NONAME
	_ZN5QJson14ParserRunnableC1EP7QObject @ 20 NONAME
	_ZN5QJson14ParserRunnableC2EP7QObject @ 21 NONAME
	_ZN5QJson14ParserRunnableD0Ev @ 22 NONAME
	_ZN5QJson14ParserRunnableD1Ev @ 23 NONAME
	_ZN5QJson14ParserRunnableD2Ev @ 24 NONAME
	_ZN5QJson18SerializerRunnable11qt_metacallEN11QMetaObject4CallEiPPv @ 25 NONAME
	_ZN5QJson18SerializerRunnable11qt_metacastEPKc @ 26 NONAME
	_ZN5QJson18SerializerRunnable13setJsonObjectERK8QVariant @ 27 NONAME
	_ZN5QJson18SerializerRunnable15parsingFinishedERK10QByteArraybRK7QString @ 28 NONAME
	_ZN5QJson18SerializerRunnable16staticMetaObjectE @ 29 NONAME DATA 16
	_ZN5QJson18SerializerRunnable19getStaticMetaObjectEv @ 30 NONAME
	_ZN5QJson18SerializerRunnable3runEv @ 31 NONAME
	_ZN5QJson18SerializerRunnableC1EP7QObject @ 32 NONAME
	_ZN5QJson18SerializerRunnableC2EP7QObject @ 33 NONAME
	_ZN5QJson18SerializerRunnableD0Ev @ 34 NONAME
	_ZN5QJson18SerializerRunnableD1Ev @ 35 NONAME
	_ZN5QJson18SerializerRunnableD2Ev @ 36 NONAME
	_ZN5QJson6Parser5parseEP9QIODevicePb @ 37 NONAME
	_ZN5QJson6Parser5parseERK10QByteArrayPb @ 38 NONAME
	_ZN5QJson6ParserC1Ev @ 39 NONAME
	_ZN5QJson6ParserC2Ev @ 40 NONAME
	_ZN5QJson6ParserD1Ev @ 41 NONAME
	_ZN5QJson6ParserD2Ev @ 42 NONAME
	_ZNK5QJson14ParserRunnable10metaObjectEv @ 43 NONAME
	_ZNK5QJson18SerializerRunnable10metaObjectEv @ 44 NONAME
	_ZNK5QJson6Parser11errorStringEv @ 45 NONAME
	_ZNK5QJson6Parser9errorLineEv @ 46 NONAME
	_ZTIN5QJson14ParserRunnableE @ 47 NONAME
	_ZTIN5QJson18SerializerRunnableE @ 48 NONAME
	_ZTVN5QJson14ParserRunnableE @ 49 NONAME
	_ZTVN5QJson18SerializerRunnableE @ 50 NONAME
	_ZThn8_N5QJson14ParserRunnable3runEv @ 51 NONAME
	_ZThn8_N5QJson14ParserRunnableD0Ev @ 52 NONAME
	_ZThn8_N5QJson14ParserRunnableD1Ev @ 53 NONAME
	_ZThn8_N5QJson18SerializerRunnable3runEv @ 54 NONAME
	_ZThn8_N5QJson18SerializerRunnableD0Ev @ 55 NONAME
	_ZThn8_N5QJson18SerializerRunnableD1Ev @ 56 NONAME

