EXPORTS
	??0CSaslMechanism@@IAE@XZ @ 1 NONAME ; protected: __thiscall CSaslMechanism::CSaslMechanism(void)
	??0CSenInternalServiceConsumer@@IAE@W4TDescriptionClassType@MSenServiceDescription@@AAVCSIF@@@Z @ 2 NONAME ; protected: __thiscall CSenInternalServiceConsumer::CSenInternalServiceConsumer(enum MSenServiceDescription::TDescriptionClassType,class CSIF &)
	??0CSenServiceSession@@IAE@W4TDescriptionClassType@MSenServiceDescription@@AAVMSIF@@@Z @ 3 NONAME ; protected: __thiscall CSenServiceSession::CSenServiceSession(enum MSenServiceDescription::TDescriptionClassType,class MSIF &)
	??0CSenWebServiceSession@@IAE@W4TDescriptionClassType@MSenServiceDescription@@AAVMSIF@@@Z @ 4 NONAME ; protected: __thiscall CSenWebServiceSession::CSenWebServiceSession(enum MSenServiceDescription::TDescriptionClassType,class MSIF &)
	??1CSaslMechanism@@UAE@XZ @ 5 NONAME ; public: virtual __thiscall CSaslMechanism::~CSaslMechanism(void)
	??1CSenInternalServiceConsumer@@UAE@XZ @ 6 NONAME ; public: virtual __thiscall CSenInternalServiceConsumer::~CSenInternalServiceConsumer(void)
	??1CSenServiceSession@@UAE@XZ @ 7 NONAME ; public: virtual __thiscall CSenServiceSession::~CSenServiceSession(void)
	??1CSenWebServiceSession@@UAE@XZ @ 8 NONAME ; public: virtual __thiscall CSenWebServiceSession::~CSenWebServiceSession(void)
	?Account@CSaslMechanism@@UAEAAVCSenIdentityProvider@@XZ @ 9 NONAME ; public: virtual class CSenIdentityProvider & __thiscall CSaslMechanism::Account(void)
	?AddConsumerL@CSenWebServiceSession@@UAEHAAVMSenRemoteServiceConsumer@@@Z @ 10 NONAME ; public: virtual int __thiscall CSenWebServiceSession::AddConsumerL(class MSenRemoteServiceConsumer &)
	?AddCredentialL@CSenWebServiceSession@@UAEHAAVCSenCredential@@@Z @ 11 NONAME ; public: virtual int __thiscall CSenWebServiceSession::AddCredentialL(class CSenCredential &)
	?AddFacetL@CSenServiceSession@@UAEHABVCSenFacet@@@Z @ 12 NONAME ; public: virtual int __thiscall CSenServiceSession::AddFacetL(class CSenFacet const &)
	?AsServiceDescription@CSenServiceSession@@UAEAAVMSenServiceDescription@@XZ @ 13 NONAME ; public: virtual class MSenServiceDescription & __thiscall CSenServiceSession::AsServiceDescription(void)
	?BaseConstructL@CSenServiceSession@@IAEXXZ @ 14 NONAME ; protected: void __thiscall CSenServiceSession::BaseConstructL(void)
	?ClearPasswordL@CSaslMechanism@@UAEXXZ @ 15 NONAME ; public: virtual void __thiscall CSaslMechanism::ClearPasswordL(void)
	?ClientServerInterval@CSenWebServiceSession@@UAE?AVTTimeIntervalMicroSeconds@@XZ @ 16 NONAME ; public: virtual class TTimeIntervalMicroSeconds __thiscall CSenWebServiceSession::ClientServerInterval(void)
	?CompleteServerMessagesOnOffL@CSenServiceSession@@UAEHABH@Z @ 17 NONAME ; public: virtual int __thiscall CSenServiceSession::CompleteServerMessagesOnOffL(int const &)
	?ComputeStatusL@CSenServiceSession@@UAEHXZ @ 18 NONAME ; public: virtual int __thiscall CSenServiceSession::ComputeStatusL(void)
	?ComputeStatusL@CSenWebServiceSession@@UAEHXZ @ 19 NONAME ; public: virtual int __thiscall CSenWebServiceSession::ComputeStatusL(void)
	?ConstructL@CSenInternalServiceConsumer@@IAEXXZ @ 20 NONAME ; protected: void __thiscall CSenInternalServiceConsumer::ConstructL(void)
	?ConstructL@CSenWebServiceSession@@IAEXXZ @ 21 NONAME ; protected: void __thiscall CSenWebServiceSession::ConstructL(void)
	?ConstructSecurityTokenL@CSenWebServiceSession@@UAEHAAVCSenCredential@@AAPAVHBufC8@@@Z @ 22 NONAME ; public: virtual int __thiscall CSenWebServiceSession::ConstructSecurityTokenL(class CSenCredential &,class HBufC8 * &)
	?Contract@CSenServiceSession@@UAE?AVTPtrC8@@XZ @ 23 NONAME ; public: virtual class TPtrC8 __thiscall CSenServiceSession::Contract(void)
	?Contract@CSenWebServiceSession@@UAE?AVTPtrC8@@XZ @ 24 NONAME ; public: virtual class TPtrC8 __thiscall CSenWebServiceSession::Contract(void)
	?Endpoint@CSenServiceSession@@UAE?AVTPtrC8@@XZ @ 25 NONAME ; public: virtual class TPtrC8 __thiscall CSenServiceSession::Endpoint(void)
	?Endpoint@CSenWebServiceSession@@UAE?AVTPtrC8@@XZ @ 26 NONAME ; public: virtual class TPtrC8 __thiscall CSenWebServiceSession::Endpoint(void)
	?FacetValue@CSenServiceSession@@UAEHAAVTDesC8@@AAPAVHBufC8@@@Z @ 27 NONAME ; public: virtual int __thiscall CSenServiceSession::FacetValue(class TDesC8 &,class HBufC8 * &)
	?FacetsL@CSenServiceSession@@UAEHAAV?$RPointerArray@VCSenFacet@@@@@Z @ 28 NONAME ; public: virtual int __thiscall CSenServiceSession::FacetsL(class RPointerArray<class CSenFacet> &)
	?Framework@CSenInternalServiceConsumer@@IAEAAVCSIF@@XZ @ 29 NONAME ; protected: class CSIF & __thiscall CSenInternalServiceConsumer::Framework(void)
	?FrameworkId@CSenWebServiceSession@@UAE?AVTPtrC8@@XZ @ 30 NONAME ; public: virtual class TPtrC8 __thiscall CSenWebServiceSession::FrameworkId(void)
	?FrameworkVersion@CSenWebServiceSession@@UAE?AVTPtrC8@@XZ @ 31 NONAME ; public: virtual class TPtrC8 __thiscall CSenWebServiceSession::FrameworkVersion(void)
	?Consumer@CSenWebServiceSession@@UAEPAVMSenRemoteServiceConsumer@@XZ @ 32 NONAME ; public: virtual class MSenRemoteServiceConsumer * __thiscall CSenWebServiceSession::Consumer(void)
	?Consumers@CSenWebServiceSession@@UBEHAAV?$RPointerArray@VMSenRemoteServiceConsumer@@@@@Z @ 33 NONAME ; public: virtual int __thiscall CSenWebServiceSession::Consumers(class RPointerArray<class MSenRemoteServiceConsumer> &)const 
	?HandleErrorL@CSenInternalServiceConsumer@@UAEHABVTDesC8@@HH0@Z @ 34 NONAME ; public: virtual int __thiscall CSenInternalServiceConsumer::HandleErrorL(class TDesC8 const &,int,int,class TDesC8 const &)
	?HandleSoapFaultL@CSenWebServiceSession@@UAEHAAVCSenSoapMessage@@HHAAVMSenRemoteServiceConsumer@@PAVMSenProperties@@@Z @ 35 NONAME ; public: virtual int __thiscall CSenWebServiceSession::HandleSoapFaultL(class CSenSoapMessage &,int,int,class MSenRemoteServiceConsumer &,class MSenProperties *)
	?HandleSoapFaultL@CSenWebServiceSession@@UAEHAAVCSenSoapMessage@@AAPAVHBufC8@@@Z @ 36 NONAME ; public: virtual int __thiscall CSenWebServiceSession::HandleSoapFaultL(class CSenSoapMessage &,class HBufC8 * &)
	?SendErrorToConsumerL@CSenWebServiceSession@@UAEHHABVTDesC8@@HAAVMSenRemoteServiceConsumer@@PAVMSenProperties@@@Z @ 37 NONAME ; public: virtual int __thiscall CSenWebServiceSession::SendErrorToConsumerL(int,class TDesC8 const &,int,class MSenRemoteServiceConsumer &,class MSenProperties *)
	?HandleMessageL@CSenInternalServiceConsumer@@UAEHABVTDesC8@@H0@Z @ 38 NONAME ; public: virtual int __thiscall CSenInternalServiceConsumer::HandleMessageL(class TDesC8 const &,int,class TDesC8 const &)
	?SendToConsumerL@CSenWebServiceSession@@UAEHABVTDesC8@@HAAVMSenRemoteServiceConsumer@@PAVMSenProperties@@@Z @ 39 NONAME ; public: virtual int __thiscall CSenWebServiceSession::SendToConsumerL(class TDesC8 const &,int,class MSenRemoteServiceConsumer &,class MSenProperties *)
	?HasConsumer@CSenWebServiceSession@@QBEHXZ @ 40 NONAME ; public: int __thiscall CSenWebServiceSession::HasConsumer(void)const 
	?HasFacetL@CSenServiceSession@@UAEHABVTDesC8@@AAH@Z @ 41 NONAME ; public: virtual int __thiscall CSenServiceSession::HasFacetL(class TDesC8 const &,int &)
	?Id@CSenInternalServiceConsumer@@UBEABVTDesC8@@XZ @ 42 NONAME ; public: virtual class TDesC8 const & __thiscall CSenInternalServiceConsumer::Id(void)const 
	?InitFrom@CSaslMechanism@@UAEXV1@@Z @ 43 NONAME ; public: virtual void __thiscall CSaslMechanism::InitFrom(class CSaslMechanism)
	?InitializeFromL@CSenServiceSession@@UAEHAAVMSenServiceDescription@@@Z @ 44 NONAME ; public: virtual int __thiscall CSenServiceSession::InitializeFromL(class MSenServiceDescription &)
	?InitializeFromL@CSenWebServiceSession@@UAEHAAVMSenServiceDescription@@@Z @ 45 NONAME ; public: virtual int __thiscall CSenWebServiceSession::InitializeFromL(class MSenServiceDescription &)
	?IsExpiredL@CSenWebServiceSession@@UAEHXZ @ 46 NONAME ; public: virtual int __thiscall CSenWebServiceSession::IsExpiredL(void)
	?IsPasswordFromUser@CSaslMechanism@@UAEHXZ @ 47 NONAME ; public: virtual int __thiscall CSaslMechanism::IsPasswordFromUser(void)
	?IsReadyL@CSenInternalServiceConsumer@@UAEHXZ @ 48 NONAME ; public: virtual int __thiscall CSenInternalServiceConsumer::IsReadyL(void)
	?IsReadyL@CSenServiceSession@@UAEHXZ @ 49 NONAME ; public: virtual int __thiscall CSenServiceSession::IsReadyL(void)
	?IsReadyL@CSenWebServiceSession@@UAEHXZ @ 50 NONAME ; public: virtual int __thiscall CSenWebServiceSession::IsReadyL(void)
	?Log@CSenInternalServiceConsumer@@QBEPAVRFileLogger@@XZ @ 51 NONAME ; public: class RFileLogger * __thiscall CSenInternalServiceConsumer::Log(void)const 
	?Log@CSenServiceSession@@IBEPAVRFileLogger@@XZ @ 52 NONAME ; protected: class RFileLogger * __thiscall CSenServiceSession::Log(void)const 
	?Matches@CSenServiceSession@@UAEHAAVMSenServiceDescription@@@Z @ 53 NONAME ; public: virtual int __thiscall CSenServiceSession::Matches(class MSenServiceDescription &)
	?MaxAttempts@CSaslMechanism@@UAEHXZ @ 54 NONAME ; public: virtual int __thiscall CSaslMechanism::MaxAttempts(void)
	?MessageForSendingL@CSenWebServiceSession@@UAEHABVTDesC8@@0AAPAVCSenSoapMessage@@@Z @ 55 NONAME ; public: virtual int __thiscall CSenWebServiceSession::MessageForSendingL(class TDesC8 const &,class TDesC8 const &,class CSenSoapMessage * &)
	?NewL@CSaslMechanism@@SAPAV1@XZ @ 56 NONAME ; public: static class CSaslMechanism * __cdecl CSaslMechanism::NewL(void)
	?NewLC@CSaslMechanism@@SAPAV1@XZ @ 57 NONAME ; public: static class CSaslMechanism * __cdecl CSaslMechanism::NewLC(void)
	?NewMessageL@CSenWebServiceSession@@UAEHAAPAVCSenSoapMessage@@@Z @ 58 NONAME ; public: virtual int __thiscall CSenWebServiceSession::NewMessageL(class CSenSoapMessage * &)
	?ParseMessageL@CSenWebServiceSession@@UAEHAAVCSenSoapMessage@@@Z @ 59 NONAME ; public: virtual int __thiscall CSenWebServiceSession::ParseMessageL(class CSenSoapMessage &)
	?ParseResponseL@CSenServiceSession@@UAEHABVTDesC8@@AAPAVHBufC8@@@Z @ 60 NONAME ; public: virtual int __thiscall CSenServiceSession::ParseResponseL(class TDesC8 const &,class HBufC8 * &)
	?ParseResponseL@CSenWebServiceSession@@UAEHABVTDesC8@@AAPAVCSenSoapMessage@@@Z @ 61 NONAME ; public: virtual int __thiscall CSenWebServiceSession::ParseResponseL(class TDesC8 const &,class CSenSoapMessage * &)
	?ParseResponseL@CSenWebServiceSession@@UAEHABVTDesC8@@AAPAVHBufC8@@@Z @ 62 NONAME ; public: virtual int __thiscall CSenWebServiceSession::ParseResponseL(class TDesC8 const &,class HBufC8 * &)
	?Password8L@CSaslMechanism@@UAEPAVHBufC8@@XZ @ 63 NONAME ; public: virtual class HBufC8 * __thiscall CSaslMechanism::Password8L(void)
	?Identifier@CSenInternalServiceConsumer@@UBEAAVCSenIdentifier@@XZ @ 64 NONAME ; public: virtual class CSenIdentifier & __thiscall CSenInternalServiceConsumer::Identifier(void)const 
	?RemoteConsumerL@CSenServiceSession@@UAEPAVMSenRemoteServiceConsumer@@ABVTDesC8@@@Z @ 65 NONAME ; public: virtual class MSenRemoteServiceConsumer * __thiscall CSenServiceSession::RemoteConsumerL(class TDesC8 const &)
	?RemoveFacet@CSenServiceSession@@UAEHABVTDesC8@@@Z @ 66 NONAME ; public: virtual int __thiscall CSenServiceSession::RemoveFacet(class TDesC8 const &)
	?SaveL@CSenServiceSession@@UAEXXZ @ 67 NONAME ; public: virtual void __thiscall CSenServiceSession::SaveL(void)
	?ScoreMatchL@CSenServiceSession@@UAEHAAVMSenServiceDescription@@@Z @ 68 NONAME ; public: virtual int __thiscall CSenServiceSession::ScoreMatchL(class MSenServiceDescription &)
	?SendL@CSenServiceSession@@UAEHABVTDesC8@@0AAVMSenRemoteServiceConsumer@@AAH@Z @ 69 NONAME ; public: virtual int __thiscall CSenServiceSession::SendL(class TDesC8 const &,class TDesC8 const &,class MSenRemoteServiceConsumer &,int &)
	?SendL@CSenWebServiceSession@@UAEHABVTDesC8@@0AAVMSenRemoteServiceConsumer@@AAH@Z @ 70 NONAME ; public: virtual int __thiscall CSenWebServiceSession::SendL(class TDesC8 const &,class TDesC8 const &,class MSenRemoteServiceConsumer &,int &)
	?SendMessageToConsumerL@CSenWebServiceSession@@UAEHAAVCSenSoapMessage@@HAAVMSenRemoteServiceConsumer@@PAVMSenProperties@@@Z @ 71 NONAME ; public: virtual int __thiscall CSenWebServiceSession::SendMessageToConsumerL(class CSenSoapMessage &,int,class MSenRemoteServiceConsumer &,class MSenProperties *)
	?SendSoapL@CSenWebServiceSession@@UAEHABVTDesC8@@0AAVMSenRemoteServiceConsumer@@AAH@Z @ 72 NONAME ; public: virtual int __thiscall CSenWebServiceSession::SendSoapL(class TDesC8 const &,class TDesC8 const &,class MSenRemoteServiceConsumer &,int &)
	?SetClientServerInterval@CSenWebServiceSession@@UAEXVTTimeIntervalMicroSeconds@@@Z @ 73 NONAME ; public: virtual void __thiscall CSenWebServiceSession::SetClientServerInterval(class TTimeIntervalMicroSeconds)
	?SetContractL@CSenWebServiceSession@@UAEXABVTDesC8@@@Z @ 74 NONAME ; public: virtual void __thiscall CSenWebServiceSession::SetContractL(class TDesC8 const &)
	?SetEndPointL@CSenWebServiceSession@@UAEXABVTDesC8@@@Z @ 75 NONAME ; public: virtual void __thiscall CSenWebServiceSession::SetEndPointL(class TDesC8 const &)
	?SetFacetL@CSenServiceSession@@UAEHABVCSenFacet@@@Z @ 76 NONAME ; public: virtual int __thiscall CSenServiceSession::SetFacetL(class CSenFacet const &)
	?SetFrameworkHeadersL@CSenWebServiceSession@@UAEXAAVCSenSoapMessage@@@Z @ 77 NONAME ; public: virtual void __thiscall CSenWebServiceSession::SetFrameworkHeadersL(class CSenSoapMessage &)
	?SetIdentity@CSaslMechanism@@UAEXPAVCSenIdentityProvider@@PAVMSenIdentityManager@@@Z @ 78 NONAME ; public: virtual void __thiscall CSaslMechanism::SetIdentity(class CSenIdentityProvider *,class MSenIdentityManager *)
	?SetSecurityL@CSenWebServiceSession@@UAEXABVTDesC8@@@Z @ 79 NONAME ; public: virtual void __thiscall CSenWebServiceSession::SetSecurityL(class TDesC8 const &)
	?SetSessionL@CSenInternalServiceConsumer@@UAEHAAVMSenRemoteServiceSession@@@Z @ 80 NONAME ; public: virtual int __thiscall CSenInternalServiceConsumer::SetSessionL(class MSenRemoteServiceSession &)
	?SetStatusL@CSenServiceSession@@UAEHXZ @ 81 NONAME ; public: virtual int __thiscall CSenServiceSession::SetStatusL(void)
    ?HandleErrorL@CSenWebServiceSession@@UAEHHABVTDesC8@@HAAVMSenRemoteServiceConsumer@@PAVMSenProperties@@@Z @ 82 NONAME ; public: virtual int __thiscall CSenWebServiceSession::HandleErrorL(int,class TDesC8 const &,int,class MSenRemoteServiceConsumer &,class MSenProperties *)
	?SetStatusL@CSenInternalServiceConsumer@@UAEXH@Z @ 83 NONAME ; public: virtual void __thiscall CSenInternalServiceConsumer::SetStatusL(int)
	?SetTransforms@CSaslMechanism@@UAEXV?$RPointerArray@VCSenPasswordTransform@@@@@Z @ 84 NONAME ; public: virtual void __thiscall CSaslMechanism::SetTransforms(class RPointerArray<class CSenPasswordTransform>)
	?SetUserNameL@CSenWebServiceSession@@UAEHAAVTDesC8@@@Z @ 85 NONAME ; public: virtual int __thiscall CSenWebServiceSession::SetUserNameL(class TDesC8 &)
	?StartTransaction@CSenWebServiceSession@@UAEXXZ @ 86 NONAME ; public: virtual void __thiscall CSenWebServiceSession::StartTransaction(void)
	?StatusL@CSenServiceSession@@UAEHXZ @ 87 NONAME ; public: virtual int __thiscall CSenServiceSession::StatusL(void)
	?SubmitL@CSenServiceSession@@UAEHABVTDesC8@@0AAVMSenRemoteServiceConsumer@@AAPAVHBufC8@@@Z @ 88 NONAME ; public: virtual int __thiscall CSenServiceSession::SubmitL(class TDesC8 const &,class TDesC8 const &,class MSenRemoteServiceConsumer &,class HBufC8 * &)
	?SubmitL@CSenWebServiceSession@@UAEHABVTDesC8@@0AAVMSenRemoteServiceConsumer@@AAPAVHBufC8@@@Z @ 89 NONAME ; public: virtual int __thiscall CSenWebServiceSession::SubmitL(class TDesC8 const &,class TDesC8 const &,class MSenRemoteServiceConsumer &,class HBufC8 * &)
	?SubmitSoapL@CSenWebServiceSession@@UAEHABVTDesC8@@0AAVMSenRemoteServiceConsumer@@AAPAVHBufC8@@@Z @ 90 NONAME ; public: virtual int __thiscall CSenWebServiceSession::SubmitSoapL(class TDesC8 const &,class TDesC8 const &,class MSenRemoteServiceConsumer &,class HBufC8 * &)
	?TransactionCompleted@CSenWebServiceSession@@UAEXXZ @ 91 NONAME ; public: virtual void __thiscall CSenWebServiceSession::TransactionCompleted(void)
	?TransformL@CSaslMechanism@@UBEPAVHBufC8@@VTPtrC8@@@Z @ 92 NONAME ; public: virtual class HBufC8 * __thiscall CSaslMechanism::TransformL(class TPtrC8)const 
	?ValidUntilL@CSenWebServiceSession@@UAEABVTTime@@XZ @ 93 NONAME ; public: virtual class TTime const & __thiscall CSenWebServiceSession::ValidUntilL(void)
	?WriteAsXMLToL@CSenWebServiceSession@@UAEXAAVRWriteStream@@@Z @ 94 NONAME ; public: virtual void __thiscall CSenWebServiceSession::WriteAsXMLToL(class RWriteStream &)
	?WriteExtensionsAsXMLToL@CSenServiceSession@@UAEXAAVRWriteStream@@@Z @ 95 NONAME ; public: virtual void __thiscall CSenServiceSession::WriteExtensionsAsXMLToL(class RWriteStream &)
	?XmlReader@CSenWebServiceSession@@UAEPAVCSenXmlReader@@XZ @ 96 NONAME ; public: virtual class CSenXmlReader * __thiscall CSenWebServiceSession::XmlReader(void)
	?SetTransportPropertiesL@CSenServiceSession@@UAEHABVTDesC8@@AAVMSenRemoteServiceConsumer@@@Z @ 97 NONAME ; public: virtual int __thiscall CSenServiceSession::SetTransportPropertiesL(class TDesC8 const &,class MSenRemoteServiceConsumer &)
	?DescriptionClassType@CSenServiceSession@@UAE?AW4TDescriptionClassType@MSenServiceDescription@@XZ @ 98 NONAME ; public: virtual enum MSenServiceDescription::TDescriptionClassType __thiscall CSenServiceSession::DescriptionClassType(void)
	?FrameworkId@CSenServiceSession@@UAE?AVTPtrC8@@XZ @ 99 NONAME ; public: virtual class TPtrC8 __thiscall CSenServiceSession::FrameworkId(void)
	??0CSenHandlerBase@@IAE@XZ @ 100 NONAME ; protected: __thiscall CSenHandlerBase::CSenHandlerBase(void)
	??0CSenLayeredTransportProperties@@IAE@XZ @ 101 NONAME ; protected: __thiscall CSenLayeredTransportProperties::CSenLayeredTransportProperties(void)
	??0CSenSyncRequester@@IAE@AAVMSenTransport@@AAVMSenCoreServiceManager@@@Z @ 102 NONAME ; protected: __thiscall CSenSyncRequester::CSenSyncRequester(class MSenTransport &,class MSenCoreServiceManager &)
	??1CSenHandlerBase@@UAE@XZ @ 103 NONAME ; public: virtual __thiscall CSenHandlerBase::~CSenHandlerBase(void)
	??1CSenLayeredTransportProperties@@UAE@XZ @ 104 NONAME ; public: virtual __thiscall CSenLayeredTransportProperties::~CSenLayeredTransportProperties(void)
	??1CSenSyncRequester@@UAE@XZ @ 105 NONAME ; public: virtual __thiscall CSenSyncRequester::~CSenSyncRequester(void)
	?AsUtf8L@CSenLayeredTransportProperties@@UAEPAVHBufC8@@W4TSenPropertiesLayer@MSenLayeredProperties@@@Z @ 106 NONAME ; public: virtual class HBufC8 * __thiscall CSenLayeredTransportProperties::AsUtf8L(enum MSenLayeredProperties::TSenPropertiesLayer)
	?AsUtf8L@CSenLayeredTransportProperties@@UAEPAVHBufC8@@XZ @ 107 NONAME ; public: virtual class HBufC8 * __thiscall CSenLayeredTransportProperties::AsUtf8L(void)
	?AsUtf8LC@CSenLayeredTransportProperties@@UAEPAVHBufC8@@W4TSenPropertiesLayer@MSenLayeredProperties@@@Z @ 108 NONAME ; public: virtual class HBufC8 * __thiscall CSenLayeredTransportProperties::AsUtf8LC(enum MSenLayeredProperties::TSenPropertiesLayer)
	?AsUtf8LC@CSenLayeredTransportProperties@@UAEPAVHBufC8@@XZ @ 109 NONAME ; public: virtual class HBufC8 * __thiscall CSenLayeredTransportProperties::AsUtf8LC(void)
	?AsXmlL@CSenHandlerBase@@UAEPAVHBufC8@@XZ @ 110 NONAME ; public: virtual class HBufC8 * __thiscall CSenHandlerBase::AsXmlL(void)
	?BaseConstructL@CSenLayeredTransportProperties@@MAEXABVCSenElement@@PAVRStringPool@@@Z @ 111 NONAME ; protected: virtual void __thiscall CSenLayeredTransportProperties::BaseConstructL(class CSenElement const &,class RStringPool *)
	?BaseConstructL@CSenLayeredTransportProperties@@MAEXABVTDesC8@@000PAVCSenXmlReader@@PAVRStringPool@@@Z @ 112 NONAME ; protected: virtual void __thiscall CSenLayeredTransportProperties::BaseConstructL(class TDesC8 const &,class TDesC8 const &,class TDesC8 const &,class TDesC8 const &,class CSenXmlReader *,class RStringPool *)
	?BaseConstructL@CSenLayeredTransportProperties@@MAEXABVTDesC8@@00PAVCSenXmlReader@@PAVRStringPool@@@Z @ 113 NONAME ; protected: virtual void __thiscall CSenLayeredTransportProperties::BaseConstructL(class TDesC8 const &,class TDesC8 const &,class TDesC8 const &,class CSenXmlReader *,class RStringPool *)
	?BaseConstructL@CSenLayeredTransportProperties@@MAEXABVTDesC8@@0PAVCSenXmlReader@@PAVRStringPool@@@Z @ 114 NONAME ; protected: virtual void __thiscall CSenLayeredTransportProperties::BaseConstructL(class TDesC8 const &,class TDesC8 const &,class CSenXmlReader *,class RStringPool *)
	?BaseConstructL@CSenSyncRequester@@IAEXXZ @ 115 NONAME ; protected: void __thiscall CSenSyncRequester::BaseConstructL(void)
	?BoolPropertyL@CSenLayeredTransportProperties@@UAEHABVTDesC8@@AAH@Z @ 116 NONAME ; public: virtual int __thiscall CSenLayeredTransportProperties::BoolPropertyL(class TDesC8 const &,int &)
	?BoolPropertyL@CSenLayeredTransportProperties@@UAEHABVTDesC8@@AAHW4TSenPropertiesLayer@MSenLayeredProperties@@@Z @ 117 NONAME ; public: virtual int __thiscall CSenLayeredTransportProperties::BoolPropertyL(class TDesC8 const &,int &,enum MSenLayeredProperties::TSenPropertiesLayer)
	?ExpandToL@CSenLayeredTransportProperties@@UAEXW4TSenPropertiesLayer@MSenLayeredProperties@@@Z @ 118 NONAME ; public: virtual void __thiscall CSenLayeredTransportProperties::ExpandToL(enum MSenLayeredProperties::TSenPropertiesLayer)
	?IntPropertyL@CSenLayeredTransportProperties@@UAEHABVTDesC8@@AAH@Z @ 119 NONAME ; public: virtual int __thiscall CSenLayeredTransportProperties::IntPropertyL(class TDesC8 const &,int &)
	?IntPropertyL@CSenLayeredTransportProperties@@UAEHABVTDesC8@@AAHW4TSenPropertiesLayer@MSenLayeredProperties@@@Z @ 120 NONAME ; public: virtual int __thiscall CSenLayeredTransportProperties::IntPropertyL(class TDesC8 const &,int &,enum MSenLayeredProperties::TSenPropertiesLayer)
	?NewL@CSenLayeredHttpTransportProperties@@SAPAV1@AAVRStringPool@@@Z @ 121 NONAME ; public: static class CSenLayeredHttpTransportProperties * __cdecl CSenLayeredHttpTransportProperties::NewL(class RStringPool &)
	?NewL@CSenLayeredHttpTransportProperties@@SAPAV1@ABVCSenElement@@@Z @ 122 NONAME ; public: static class CSenLayeredHttpTransportProperties * __cdecl CSenLayeredHttpTransportProperties::NewL(class CSenElement const &)
	?NewL@CSenLayeredHttpTransportProperties@@SAPAV1@ABVCSenElement@@AAVRStringPool@@@Z @ 123 NONAME ; public: static class CSenLayeredHttpTransportProperties * __cdecl CSenLayeredHttpTransportProperties::NewL(class CSenElement const &,class RStringPool &)
	?NewL@CSenLayeredHttpTransportProperties@@SAPAV1@ABVTDesC8@@AAVCSenXmlReader@@@Z @ 124 NONAME ; public: static class CSenLayeredHttpTransportProperties * __cdecl CSenLayeredHttpTransportProperties::NewL(class TDesC8 const &,class CSenXmlReader &)
	?NewL@CSenLayeredHttpTransportProperties@@SAPAV1@ABVTDesC8@@AAVCSenXmlReader@@AAVRStringPool@@@Z @ 125 NONAME ; public: static class CSenLayeredHttpTransportProperties * __cdecl CSenLayeredHttpTransportProperties::NewL(class TDesC8 const &,class CSenXmlReader &,class RStringPool &)
	?NewL@CSenLayeredHttpTransportProperties@@SAPAV1@XZ @ 126 NONAME ; public: static class CSenLayeredHttpTransportProperties * __cdecl CSenLayeredHttpTransportProperties::NewL(void)
	?NewL@CSenLayeredTransportProperties@@SAPAV1@AAVRStringPool@@@Z @ 127 NONAME ; public: static class CSenLayeredTransportProperties * __cdecl CSenLayeredTransportProperties::NewL(class RStringPool &)
	?NewL@CSenLayeredTransportProperties@@SAPAV1@ABVCSenElement@@@Z @ 128 NONAME ; public: static class CSenLayeredTransportProperties * __cdecl CSenLayeredTransportProperties::NewL(class CSenElement const &)
	?NewL@CSenLayeredTransportProperties@@SAPAV1@ABVCSenElement@@AAVRStringPool@@@Z @ 129 NONAME ; public: static class CSenLayeredTransportProperties * __cdecl CSenLayeredTransportProperties::NewL(class CSenElement const &,class RStringPool &)
	?NewL@CSenLayeredTransportProperties@@SAPAV1@ABVTDesC8@@AAVCSenXmlReader@@@Z @ 130 NONAME ; public: static class CSenLayeredTransportProperties * __cdecl CSenLayeredTransportProperties::NewL(class TDesC8 const &,class CSenXmlReader &)
	?NewL@CSenLayeredTransportProperties@@SAPAV1@ABVTDesC8@@AAVCSenXmlReader@@AAVRStringPool@@@Z @ 131 NONAME ; public: static class CSenLayeredTransportProperties * __cdecl CSenLayeredTransportProperties::NewL(class TDesC8 const &,class CSenXmlReader &,class RStringPool &)
	?NewL@CSenLayeredTransportProperties@@SAPAV1@XZ @ 132 NONAME ; public: static class CSenLayeredTransportProperties * __cdecl CSenLayeredTransportProperties::NewL(void)
	?NewL@CSenSyncRequester@@SAPAV1@AAVMSenTransport@@AAVMSenCoreServiceManager@@@Z @ 133 NONAME ; public: static class CSenSyncRequester * __cdecl CSenSyncRequester::NewL(class MSenTransport &,class MSenCoreServiceManager &)
	?NewLC@CSenLayeredHttpTransportProperties@@SAPAV1@AAVRStringPool@@@Z @ 134 NONAME ; public: static class CSenLayeredHttpTransportProperties * __cdecl CSenLayeredHttpTransportProperties::NewLC(class RStringPool &)
	?NewLC@CSenLayeredHttpTransportProperties@@SAPAV1@ABVCSenElement@@@Z @ 135 NONAME ; public: static class CSenLayeredHttpTransportProperties * __cdecl CSenLayeredHttpTransportProperties::NewLC(class CSenElement const &)
	?NewLC@CSenLayeredHttpTransportProperties@@SAPAV1@ABVCSenElement@@AAVRStringPool@@@Z @ 136 NONAME ; public: static class CSenLayeredHttpTransportProperties * __cdecl CSenLayeredHttpTransportProperties::NewLC(class CSenElement const &,class RStringPool &)
	?NewLC@CSenLayeredHttpTransportProperties@@SAPAV1@ABVTDesC8@@AAVCSenXmlReader@@@Z @ 137 NONAME ; public: static class CSenLayeredHttpTransportProperties * __cdecl CSenLayeredHttpTransportProperties::NewLC(class TDesC8 const &,class CSenXmlReader &)
	?NewLC@CSenLayeredHttpTransportProperties@@SAPAV1@ABVTDesC8@@AAVCSenXmlReader@@AAVRStringPool@@@Z @ 138 NONAME ; public: static class CSenLayeredHttpTransportProperties * __cdecl CSenLayeredHttpTransportProperties::NewLC(class TDesC8 const &,class CSenXmlReader &,class RStringPool &)
	?NewLC@CSenLayeredHttpTransportProperties@@SAPAV1@XZ @ 139 NONAME ; public: static class CSenLayeredHttpTransportProperties * __cdecl CSenLayeredHttpTransportProperties::NewLC(void)
	?NewLC@CSenLayeredTransportProperties@@SAPAV1@AAVRStringPool@@@Z @ 140 NONAME ; public: static class CSenLayeredTransportProperties * __cdecl CSenLayeredTransportProperties::NewLC(class RStringPool &)
	?NewLC@CSenLayeredTransportProperties@@SAPAV1@ABVCSenElement@@@Z @ 141 NONAME ; public: static class CSenLayeredTransportProperties * __cdecl CSenLayeredTransportProperties::NewLC(class CSenElement const &)
	?NewLC@CSenLayeredTransportProperties@@SAPAV1@ABVCSenElement@@AAVRStringPool@@@Z @ 142 NONAME ; public: static class CSenLayeredTransportProperties * __cdecl CSenLayeredTransportProperties::NewLC(class CSenElement const &,class RStringPool &)
	?NewLC@CSenLayeredTransportProperties@@SAPAV1@ABVTDesC8@@AAVCSenXmlReader@@@Z @ 143 NONAME ; public: static class CSenLayeredTransportProperties * __cdecl CSenLayeredTransportProperties::NewLC(class TDesC8 const &,class CSenXmlReader &)
	?NewLC@CSenLayeredTransportProperties@@SAPAV1@ABVTDesC8@@AAVCSenXmlReader@@AAVRStringPool@@@Z @ 144 NONAME ; public: static class CSenLayeredTransportProperties * __cdecl CSenLayeredTransportProperties::NewLC(class TDesC8 const &,class CSenXmlReader &,class RStringPool &)
	?NewLC@CSenLayeredTransportProperties@@SAPAV1@XZ @ 145 NONAME ; public: static class CSenLayeredTransportProperties * __cdecl CSenLayeredTransportProperties::NewLC(void)
	?NewLC@CSenSyncRequester@@SAPAV1@AAVMSenTransport@@AAVMSenCoreServiceManager@@@Z @ 146 NONAME ; public: static class CSenSyncRequester * __cdecl CSenSyncRequester::NewLC(class MSenTransport &,class MSenCoreServiceManager &)
	?ProcessHandlerContextL@CSenHandlerBase@@MAEXAAVMSenHandlerContext@@@Z @ 147 NONAME ; protected: virtual void __thiscall CSenHandlerBase::ProcessHandlerContextL(class MSenHandlerContext &)
	?PropertiesByTypeL@CSenLayeredTransportProperties@@UAEHABVTDesC8@@AAV?$RPointerArray@VMSenProperty@@@@@Z @ 148 NONAME ; public: virtual int __thiscall CSenLayeredTransportProperties::PropertiesByTypeL(class TDesC8 const &,class RPointerArray<class MSenProperty> &)
	?PropertiesClassType@CSenLayeredTransportProperties@@UAE?AW4TSenPropertiesClassType@MSenProperties@@XZ @ 149 NONAME ; public: virtual enum MSenProperties::TSenPropertiesClassType __thiscall CSenLayeredTransportProperties::PropertiesClassType(void)
	?PropertyL@CSenLayeredTransportProperties@@UAEHABVTDesC8@@AAPAVMSenProperty@@@Z @ 150 NONAME ; public: virtual int __thiscall CSenLayeredTransportProperties::PropertyL(class TDesC8 const &,class MSenProperty * &)
	?PropertyL@CSenLayeredTransportProperties@@UAEHABVTDesC8@@AAPAVMSenProperty@@W4TSenPropertiesLayer@MSenLayeredProperties@@@Z @ 151 NONAME ; public: virtual int __thiscall CSenLayeredTransportProperties::PropertyL(class TDesC8 const &,class MSenProperty * &,enum MSenLayeredProperties::TSenPropertiesLayer)
	?PropertyL@CSenLayeredTransportProperties@@UAEHABVTDesC8@@AAVTPtrC8@@1@Z @ 152 NONAME ; public: virtual int __thiscall CSenLayeredTransportProperties::PropertyL(class TDesC8 const &,class TPtrC8 &,class TPtrC8 &)
	?PropertyL@CSenLayeredTransportProperties@@UAEHABVTDesC8@@AAVTPtrC8@@@Z @ 153 NONAME ; public: virtual int __thiscall CSenLayeredTransportProperties::PropertyL(class TDesC8 const &,class TPtrC8 &)
	?PropertyL@CSenLayeredTransportProperties@@UAEHABVTDesC8@@AAVTPtrC8@@W4TSenPropertiesLayer@MSenLayeredProperties@@@Z @ 154 NONAME ; public: virtual int __thiscall CSenLayeredTransportProperties::PropertyL(class TDesC8 const &,class TPtrC8 &,enum MSenLayeredProperties::TSenPropertiesLayer)
	?ReadFromL@CSenLayeredTransportProperties@@UAEXABVTDesC8@@@Z @ 155 NONAME ; public: virtual void __thiscall CSenLayeredTransportProperties::ReadFromL(class TDesC8 const &)
	?ReadFromL@CSenLayeredTransportProperties@@UAEXABVTDesC8@@W4TSenPropertiesLayer@MSenLayeredProperties@@@Z @ 156 NONAME ; public: virtual void __thiscall CSenLayeredTransportProperties::ReadFromL(class TDesC8 const &,enum MSenLayeredProperties::TSenPropertiesLayer)
	?SetBoolPropertyL@CSenLayeredTransportProperties@@UAEHABVTDesC8@@H@Z @ 157 NONAME ; public: virtual int __thiscall CSenLayeredTransportProperties::SetBoolPropertyL(class TDesC8 const &,int)
	?SetBoolPropertyL@CSenLayeredTransportProperties@@UAEHABVTDesC8@@HW4TSenPropertiesLayer@MSenLayeredProperties@@@Z @ 158 NONAME ; public: virtual int __thiscall CSenLayeredTransportProperties::SetBoolPropertyL(class TDesC8 const &,int,enum MSenLayeredProperties::TSenPropertiesLayer)
	?SetIntPropertyL@CSenLayeredTransportProperties@@UAEHABVTDesC8@@H@Z @ 159 NONAME ; public: virtual int __thiscall CSenLayeredTransportProperties::SetIntPropertyL(class TDesC8 const &,int)
	?SetIntPropertyL@CSenLayeredTransportProperties@@UAEHABVTDesC8@@HW4TSenPropertiesLayer@MSenLayeredProperties@@@Z @ 160 NONAME ; public: virtual int __thiscall CSenLayeredTransportProperties::SetIntPropertyL(class TDesC8 const &,int,enum MSenLayeredProperties::TSenPropertiesLayer)
	?SetPropertyL@CSenLayeredTransportProperties@@UAEHABVTDesC8@@00@Z @ 161 NONAME ; public: virtual int __thiscall CSenLayeredTransportProperties::SetPropertyL(class TDesC8 const &,class TDesC8 const &,class TDesC8 const &)
	?SetPropertyL@CSenLayeredTransportProperties@@UAEHABVTDesC8@@0@Z @ 162 NONAME ; public: virtual int __thiscall CSenLayeredTransportProperties::SetPropertyL(class TDesC8 const &,class TDesC8 const &)
	?SetPropertyL@CSenLayeredTransportProperties@@UAEHABVTDesC8@@0W4TSenPropertiesLayer@MSenLayeredProperties@@@Z @ 163 NONAME ; public: virtual int __thiscall CSenLayeredTransportProperties::SetPropertyL(class TDesC8 const &,class TDesC8 const &,enum MSenLayeredProperties::TSenPropertiesLayer)
	?SetReader@CSenLayeredTransportProperties@@UAEXAAVCSenXmlReader@@@Z @ 164 NONAME ; public: virtual void __thiscall CSenLayeredTransportProperties::SetReader(class CSenXmlReader &)
	?ShrinkTo@CSenLayeredTransportProperties@@UAEHW4TSenPropertiesLayer@MSenLayeredProperties@@@Z @ 165 NONAME ; public: virtual int __thiscall CSenLayeredTransportProperties::ShrinkTo(enum MSenLayeredProperties::TSenPropertiesLayer)
	?TopLayer@CSenLayeredTransportProperties@@UAE?AW4TSenPropertiesLayer@MSenLayeredProperties@@XZ @ 166 NONAME ; public: virtual enum MSenLayeredProperties::TSenPropertiesLayer __thiscall CSenLayeredTransportProperties::TopLayer(void)
	?TransportPropertiesL@CSenServiceSession@@UAEHAAPAVHBufC8@@AAVMSenRemoteServiceConsumer@@@Z @ 167 NONAME ; public: virtual int __thiscall CSenServiceSession::TransportPropertiesL(class HBufC8 * &,class MSenRemoteServiceConsumer &)
	?WriteAsXMLToL@CSenHandlerBase@@UAEXAAVRWriteStream@@@Z @ 168 NONAME ; public: virtual void __thiscall CSenHandlerBase::WriteAsXMLToL(class RWriteStream &)
	?WriteToL@CSenLayeredTransportProperties@@UAEXAAVRWriteStream@@@Z @ 169 NONAME ; public: virtual void __thiscall CSenLayeredTransportProperties::WriteToL(class RWriteStream &)
	?WriteToL@CSenLayeredTransportProperties@@UAEXAAVRWriteStream@@W4TSenPropertiesLayer@MSenLayeredProperties@@@Z @ 170 NONAME ; public: virtual void __thiscall CSenLayeredTransportProperties::WriteToL(class RWriteStream &,enum MSenLayeredProperties::TSenPropertiesLayer)
	?Hostlet@CSenServiceSession@@UBEPAVMSenRemoteHostlet@@XZ @ 171 NONAME ; public: virtual class MSenRemoteHostlet * __thiscall CSenServiceSession::Hostlet(void)const 
	?RemoveConsumerL@CSenServiceSession@@UAEHAAVMSenRemoteServiceConsumer@@@Z @ 172 NONAME ; public: virtual int __thiscall CSenServiceSession::RemoveConsumerL(class MSenRemoteServiceConsumer &)
	?SetHostletL@CSenServiceSession@@UAEHPAVMSenRemoteHostlet@@@Z @ 173 NONAME ; public: virtual int __thiscall CSenServiceSession::SetHostletL(class MSenRemoteHostlet *)
	?ChunkByTxnIdL@CSenInternalServiceConsumer@@UAEHHAAPAVCSenChunk@@@Z @ 174 NONAME ; public: virtual int __thiscall CSenInternalServiceConsumer::ChunkByTxnIdL(int,class CSenChunk * &)
	?SetTransportL@CSenServiceSession@@UAEXPAVCSenTransportBase@@@Z @ 175 NONAME ; public: virtual void __thiscall CSenServiceSession::SetTransportL(class CSenTransportBase *)
	?Transport@CSenServiceSession@@UBEPAVMSenTransport@@XZ @ 176 NONAME ; public: virtual class MSenTransport * __thiscall CSenServiceSession::Transport(void)const 
	?TransportL@CSenServiceSession@@UAEAAVMSenTransport@@AAVMSenRemoteServiceConsumer@@@Z @ 177 NONAME ; public: virtual class MSenTransport & __thiscall CSenServiceSession::TransportL(class MSenRemoteServiceConsumer &)
	?DeviceIDL@CSenLayeredTransportProperties@@UAEHAAVTPtrC8@@@Z @ 178 NONAME ; public: virtual int __thiscall CSenLayeredTransportProperties::DeviceIDL(class TPtrC8 &)
	?IapIdL@CSenLayeredTransportProperties@@UAEHAAK@Z @ 179 NONAME ; public: virtual int __thiscall CSenLayeredTransportProperties::IapIdL(unsigned long &)
	?ProxyHostL@CSenLayeredTransportProperties@@UAEHAAVTPtrC8@@@Z @ 180 NONAME ; public: virtual int __thiscall CSenLayeredTransportProperties::ProxyHostL(class TPtrC8 &)
	?ProxyPortL@CSenLayeredTransportProperties@@UAEHAAH@Z @ 181 NONAME ; public: virtual int __thiscall CSenLayeredTransportProperties::ProxyPortL(int &)
	?ProxyUsageL@CSenLayeredTransportProperties@@UAEHAAH@Z @ 182 NONAME ; public: virtual int __thiscall CSenLayeredTransportProperties::ProxyUsageL(int &)
	?UserAgentL@CSenLayeredTransportProperties@@UAEHAAVTPtrC8@@@Z @ 183 NONAME ; public: virtual int __thiscall CSenLayeredTransportProperties::UserAgentL(class TPtrC8 &)
	??0CSenContext@@IAE@W4TContextDirection@SenContext@@@Z @ 184 NONAME ; protected: __thiscall CSenContext::CSenContext(enum SenContext::TContextDirection)
	??0CSenTransportContext@@IAE@XZ @ 185 NONAME ; protected: __thiscall CSenTransportContext::CSenTransportContext(void)
	??1CSenContext@@UAE@XZ @ 186 NONAME ; public: virtual __thiscall CSenContext::~CSenContext(void)
	??1CSenContextItem@@UAE@XZ @ 187 NONAME ; public: virtual __thiscall CSenContextItem::~CSenContextItem(void)
	??1CSenTransportContext@@UAE@XZ @ 188 NONAME ; public: virtual __thiscall CSenTransportContext::~CSenTransportContext(void)
	?BaseConstructL@CSenContext@@IAEXXZ @ 189 NONAME ; protected: void __thiscall CSenContext::BaseConstructL(void)
	?BaseConstructL@CSenTransportContext@@IAEXAAVMSenCoreServiceManager@@AAVCSenXmlServiceDescription@@PAVCSenServiceSession@@@Z @ 190 NONAME ; protected: void __thiscall CSenTransportContext::BaseConstructL(class MSenCoreServiceManager &,class CSenXmlServiceDescription &,class CSenServiceSession *)
	?HasSuperClass@CSenInternalServiceConsumer@@UAEHW4TDescriptionClassType@MSenServiceDescription@@@Z @ 191 NONAME ; public: virtual int __thiscall CSenInternalServiceConsumer::HasSuperClass(enum MSenServiceDescription::TDescriptionClassType)
	?HasSuperClass@CSenServiceSession@@UAEHW4TDescriptionClassType@MSenServiceDescription@@@Z @ 192 NONAME ; public: virtual int __thiscall CSenServiceSession::HasSuperClass(enum MSenServiceDescription::TDescriptionClassType)
	?HasSuperClass@CSenWebServiceSession@@UAEHW4TDescriptionClassType@MSenServiceDescription@@@Z @ 193 NONAME ; public: virtual int __thiscall CSenWebServiceSession::HasSuperClass(enum MSenServiceDescription::TDescriptionClassType)
	?NewL@CSenContext@@SAPAV1@W4TContextDirection@SenContext@@@Z @ 194 NONAME ; public: static class CSenContext * __cdecl CSenContext::NewL(enum SenContext::TContextDirection)
	?NewL@CSenContextItem@@SAPAV1@AAVCSenElement@@@Z @ 195 NONAME ; public: static class CSenContextItem * __cdecl CSenContextItem::NewL(class CSenElement &)
	?NewL@CSenContextItem@@SAPAV1@AAVCSenXmlReader@@@Z @ 196 NONAME ; public: static class CSenContextItem * __cdecl CSenContextItem::NewL(class CSenXmlReader &)
	?NewL@CSenContextItem@@SAPAV1@AAVCSenXmlServiceDescription@@@Z @ 197 NONAME ; public: static class CSenContextItem * __cdecl CSenContextItem::NewL(class CSenXmlServiceDescription &)
	?NewL@CSenContextItem@@SAPAV1@AAVMSenCoreServiceManager@@@Z @ 198 NONAME ; public: static class CSenContextItem * __cdecl CSenContextItem::NewL(class MSenCoreServiceManager &)
	?NewL@CSenContextItem@@SAPAV1@AAVMSenProperties@@@Z @ 199 NONAME ; public: static class CSenContextItem * __cdecl CSenContextItem::NewL(class MSenProperties &)
	?NewL@CSenContextItem@@SAPAV1@AAVMSenRemoteHostlet@@@Z @ 200 NONAME ; public: static class CSenContextItem * __cdecl CSenContextItem::NewL(class MSenRemoteHostlet &)
	?NewL@CSenContextItem@@SAPAV1@AAVMSenRemoteServiceConsumer@@@Z @ 201 NONAME ; public: static class CSenContextItem * __cdecl CSenContextItem::NewL(class MSenRemoteServiceConsumer &)
	?NewL@CSenContextItem@@SAPAV1@ABVTDesC8@@@Z @ 202 NONAME ; public: static class CSenContextItem * __cdecl CSenContextItem::NewL(class TDesC8 const &)
	?NewL@CSenContextItem@@SAPAV1@H@Z @ 203 NONAME ; public: static class CSenContextItem * __cdecl CSenContextItem::NewL(int)
	?NewL@CSenContextItem@@SAPAV1@I@Z @ 204 NONAME ; public: static class CSenContextItem * __cdecl CSenContextItem::NewL(unsigned int)
	?NewL@CSenContextItem@@SAPAV1@PAH@Z @ 205 NONAME ; public: static class CSenContextItem * __cdecl CSenContextItem::NewL(int *)
	?NewL@CSenContextItem@@SAPAV1@PAI@Z @ 206 NONAME ; public: static class CSenContextItem * __cdecl CSenContextItem::NewL(unsigned int *)
	?NewL@CSenContextItem@@SAPAV1@PAVCSenElement@@@Z @ 207 NONAME ; public: static class CSenContextItem * __cdecl CSenContextItem::NewL(class CSenElement *)
	?NewL@CSenContextItem@@SAPAV1@PAVCSenLayeredXmlProperties@@@Z @ 208 NONAME ; public: static class CSenContextItem * __cdecl CSenContextItem::NewL(class CSenLayeredXmlProperties *)
	?NewL@CSenContextItem@@SAPAV1@PAVCSenXmlProperties@@@Z @ 209 NONAME ; public: static class CSenContextItem * __cdecl CSenContextItem::NewL(class CSenXmlProperties *)
	?NewL@CSenContextItem@@SAPAV1@PAVCSenXmlReader@@@Z @ 210 NONAME ; public: static class CSenContextItem * __cdecl CSenContextItem::NewL(class CSenXmlReader *)
	?NewL@CSenContextItem@@SAPAV1@PAVCSenXmlServiceDescription@@@Z @ 211 NONAME ; public: static class CSenContextItem * __cdecl CSenContextItem::NewL(class CSenXmlServiceDescription *)
	?NewL@CSenContextItem@@SAPAV1@PAVTDesC8@@@Z @ 212 NONAME ; public: static class CSenContextItem * __cdecl CSenContextItem::NewL(class TDesC8 *)
	?NewL@CSenContextItem@@SAPAV1@PAX@Z @ 213 NONAME ; public: static class CSenContextItem * __cdecl CSenContextItem::NewL(void *)
	?NewL@CSenTransportContext@@SAPAV1@AAVMSenCoreServiceManager@@AAVCSenXmlServiceDescription@@@Z @ 214 NONAME ; public: static class CSenTransportContext * __cdecl CSenTransportContext::NewL(class MSenCoreServiceManager &,class CSenXmlServiceDescription &)
	?NewL@CSenTransportContext@@SAPAV1@AAVMSenCoreServiceManager@@AAVCSenXmlServiceDescription@@AAVCSenServiceSession@@@Z @ 215 NONAME ; public: static class CSenTransportContext * __cdecl CSenTransportContext::NewL(class MSenCoreServiceManager &,class CSenXmlServiceDescription &,class CSenServiceSession &)
	?NewLC@CSenContext@@SAPAV1@W4TContextDirection@SenContext@@@Z @ 216 NONAME ; public: static class CSenContext * __cdecl CSenContext::NewLC(enum SenContext::TContextDirection)
	?NewLC@CSenContextItem@@SAPAV1@AAVCSenElement@@@Z @ 217 NONAME ; public: static class CSenContextItem * __cdecl CSenContextItem::NewLC(class CSenElement &)
	?NewLC@CSenContextItem@@SAPAV1@AAVCSenXmlReader@@@Z @ 218 NONAME ; public: static class CSenContextItem * __cdecl CSenContextItem::NewLC(class CSenXmlReader &)
	?NewLC@CSenContextItem@@SAPAV1@AAVCSenXmlServiceDescription@@@Z @ 219 NONAME ; public: static class CSenContextItem * __cdecl CSenContextItem::NewLC(class CSenXmlServiceDescription &)
	?NewLC@CSenContextItem@@SAPAV1@AAVMSenCoreServiceManager@@@Z @ 220 NONAME ; public: static class CSenContextItem * __cdecl CSenContextItem::NewLC(class MSenCoreServiceManager &)
	?NewLC@CSenContextItem@@SAPAV1@AAVMSenProperties@@@Z @ 221 NONAME ; public: static class CSenContextItem * __cdecl CSenContextItem::NewLC(class MSenProperties &)
	?NewLC@CSenContextItem@@SAPAV1@AAVMSenRemoteHostlet@@@Z @ 222 NONAME ; public: static class CSenContextItem * __cdecl CSenContextItem::NewLC(class MSenRemoteHostlet &)
	?NewLC@CSenContextItem@@SAPAV1@AAVMSenRemoteServiceConsumer@@@Z @ 223 NONAME ; public: static class CSenContextItem * __cdecl CSenContextItem::NewLC(class MSenRemoteServiceConsumer &)
	?NewLC@CSenContextItem@@SAPAV1@ABVTDesC8@@@Z @ 224 NONAME ; public: static class CSenContextItem * __cdecl CSenContextItem::NewLC(class TDesC8 const &)
	?NewLC@CSenContextItem@@SAPAV1@H@Z @ 225 NONAME ; public: static class CSenContextItem * __cdecl CSenContextItem::NewLC(int)
	?NewLC@CSenContextItem@@SAPAV1@I@Z @ 226 NONAME ; public: static class CSenContextItem * __cdecl CSenContextItem::NewLC(unsigned int)
	?NewLC@CSenContextItem@@SAPAV1@PAH@Z @ 227 NONAME ; public: static class CSenContextItem * __cdecl CSenContextItem::NewLC(int *)
	?NewLC@CSenContextItem@@SAPAV1@PAI@Z @ 228 NONAME ; public: static class CSenContextItem * __cdecl CSenContextItem::NewLC(unsigned int *)
	?NewLC@CSenContextItem@@SAPAV1@PAVCSenElement@@@Z @ 229 NONAME ; public: static class CSenContextItem * __cdecl CSenContextItem::NewLC(class CSenElement *)
	?NewLC@CSenContextItem@@SAPAV1@PAVCSenLayeredXmlProperties@@@Z @ 230 NONAME ; public: static class CSenContextItem * __cdecl CSenContextItem::NewLC(class CSenLayeredXmlProperties *)
	?NewLC@CSenContextItem@@SAPAV1@PAVCSenXmlProperties@@@Z @ 231 NONAME ; public: static class CSenContextItem * __cdecl CSenContextItem::NewLC(class CSenXmlProperties *)
	?NewLC@CSenContextItem@@SAPAV1@PAVCSenXmlReader@@@Z @ 232 NONAME ; public: static class CSenContextItem * __cdecl CSenContextItem::NewLC(class CSenXmlReader *)
	?NewLC@CSenContextItem@@SAPAV1@PAVCSenXmlServiceDescription@@@Z @ 233 NONAME ; public: static class CSenContextItem * __cdecl CSenContextItem::NewLC(class CSenXmlServiceDescription *)
	?NewLC@CSenContextItem@@SAPAV1@PAVTDesC8@@@Z @ 234 NONAME ; public: static class CSenContextItem * __cdecl CSenContextItem::NewLC(class TDesC8 *)
	?NewLC@CSenContextItem@@SAPAV1@PAX@Z @ 235 NONAME ; public: static class CSenContextItem * __cdecl CSenContextItem::NewLC(void *)
	?NewLC@CSenTransportContext@@SAPAV1@AAVMSenCoreServiceManager@@AAVCSenXmlServiceDescription@@@Z @ 236 NONAME ; public: static class CSenTransportContext * __cdecl CSenTransportContext::NewLC(class MSenCoreServiceManager &,class CSenXmlServiceDescription &)
	?NewLC@CSenTransportContext@@SAPAV1@AAVMSenCoreServiceManager@@AAVCSenXmlServiceDescription@@AAVCSenServiceSession@@@Z @ 237 NONAME ; public: static class CSenTransportContext * __cdecl CSenTransportContext::NewLC(class MSenCoreServiceManager &,class CSenXmlServiceDescription &,class CSenServiceSession &)
	?ActionL@CSenLayeredTransportProperties@@UAEHAAVTPtrC8@@@Z @ 238 NONAME ; public: virtual int __thiscall CSenLayeredTransportProperties::ActionL(class TPtrC8 &)
	

