EXPORTS
	_Z19CreateDeviceBridgeLv @ 1 NONAME
	_ZTIN3KJS10DeviceFuncE @ 2 NONAME ; #<TI>#
	_ZTIN3KJS12DeviceLiwMapE @ 3 NONAME ; #<TI>#
	_ZTIN3KJS13DeviceLiwPeerE @ 4 NONAME ; #<TI>#
	_ZTIN3KJS13ServiceObjectE @ 5 NONAME ; #<TI>#
	_ZTIN3KJS17CDeviceLiwBindingE @ 6 NONAME ; #<TI>#
	_ZTIN3KJS17DeviceLiwIterableE @ 7 NONAME ; #<TI>#
	_ZTIN3KJS17ServiceObjectFuncE @ 8 NONAME ; #<TI>#
	_ZTIN3KJS18DeviceLiwInterfaceE @ 9 NONAME ; #<TI>#
	_ZTIN3KJS19ServiceEventHandlerE @ 10 NONAME ; #<TI>#
	_ZTIN3KJS21DeviceLiwIterableFuncE @ 11 NONAME ; #<TI>#
	_ZTIN3KJS22DeviceLiwInterfaceFuncE @ 12 NONAME ; #<TI>#
	_ZTIN3KJS6DeviceE @ 13 NONAME ; #<TI>#
	_ZTVN3KJS10DeviceFuncE @ 14 NONAME ; #<VT>#
	_ZTVN3KJS12DeviceLiwMapE @ 15 NONAME ; #<VT>#
	_ZTVN3KJS13DeviceLiwPeerE @ 16 NONAME ; #<VT>#
	_ZTVN3KJS13ServiceObjectE @ 17 NONAME ; #<VT>#
	_ZTVN3KJS17CDeviceLiwBindingE @ 18 NONAME ; #<VT>#
	_ZTVN3KJS17DeviceLiwIterableE @ 19 NONAME ; #<VT>#
	_ZTVN3KJS17ServiceObjectFuncE @ 20 NONAME ; #<VT>#
	_ZTVN3KJS18DeviceLiwInterfaceE @ 21 NONAME ; #<VT>#
	_ZTVN3KJS19ServiceEventHandlerE @ 22 NONAME ; #<VT>#
	_ZTVN3KJS21DeviceLiwIterableFuncE @ 23 NONAME ; #<VT>#
	_ZTVN3KJS22DeviceLiwInterfaceFuncE @ 24 NONAME ; #<VT>#
	_ZTVN3KJS6DeviceE @ 25 NONAME ; #<VT>#
	_ZTIN3KJS16DeviceLiwMapFuncE @ 26 NONAME ; #<TI>#
	_ZTVN3KJS16DeviceLiwMapFuncE @ 27 NONAME ; #<VT>#
	_ZTIN3KJS15DeviceLiwResultE @ 28 NONAME ; #<TI>#
	_ZTIN3KJS19DeviceLiwResultFuncE @ 29 NONAME ; #<TI>#
	_ZTVN3KJS15DeviceLiwResultE @ 30 NONAME ; #<VT>#
	_ZTVN3KJS19DeviceLiwResultFuncE @ 31 NONAME ; #<VT>#

