EXPORTS
	?ConstructL@CGOomMonitorPluginBase@@QAEXXZ @ 1 NONAME ; void CGOomMonitorPluginBase::ConstructL(void)
	?SetGOomPriority@RGOomMonitorSession@@QAEXW4TGOomPriority@1@@Z @ 2 NONAME ; void RGOomMonitorSession::SetGOomPriority(enum RGOomMonitorSession::TGOomPriority)
	?RequestFreeMemory@RGOomMonitorSession@@QAEXHAAVTRequestStatus@@@Z @ 3 NONAME ; void RGOomMonitorSession::RequestFreeMemory(int, class TRequestStatus &)
	?Connect@RGOomMonitorSession@@QAEHXZ @ 4 NONAME ; int RGOomMonitorSession::Connect(void)
	?WsSession@CGOomMonitorPluginBase@@QAEAAVRWsSession@@XZ @ 5 NONAME ; class RWsSession & CGOomMonitorPluginBase::WsSession(void)
	??0CGOomMonitorPluginBase@@QAE@XZ @ 6 NONAME ; CGOomMonitorPluginBase::CGOomMonitorPluginBase(void)
	?NewL@CAppGOomMonitorPlugin@@SAPAV1@VTUid@@@Z @ 7 NONAME ; class CAppGOomMonitorPlugin * CAppGOomMonitorPlugin::NewL(class TUid)
	?CancelRequestFreeMemory@RGOomMonitorSession@@QAEXXZ @ 8 NONAME ; void RGOomMonitorSession::CancelRequestFreeMemory(void)
	?ExtensionInterface@CGOomMonitorPluginBase@@UAEXVTUid@@AAPAX@Z @ 9 NONAME ; void CGOomMonitorPluginBase::ExtensionInterface(class TUid, void * &)
	?FsSession@CGOomMonitorPluginBase@@QAEAAVRFs@@XZ @ 10 NONAME ; class RFs & CGOomMonitorPluginBase::FsSession(void)
	?CreateGOOMWatcherThreadL@@YAXXZ @ 11 NONAME ; void CreateGOOMWatcherThreadL(void)
	?SetGMemoryMonitorTls@@YAXPAVCMemoryMonitor@@@Z @ 12 NONAME ; void SetGMemoryMonitorTls(class CMemoryMonitor *)
	?RequestFreeMemory@RGOomMonitorSession@@QAEHH@Z @ 13 NONAME ; int RGOomMonitorSession::RequestFreeMemory(int)
	?ThisAppIsNotExiting@RGOomMonitorSession@@QAEXH@Z @ 14 NONAME ; void RGOomMonitorSession::ThisAppIsNotExiting(int)
	?RequestOptionalRam@RGOomMonitorSession@@QAEXHHHAAVTRequestStatus@@@Z @ 15 NONAME ; void RGOomMonitorSession::RequestOptionalRam(int, int, int, class TRequestStatus &)
	?RequestOptionalRam@RGOomMonitorSession@@QAEHHHHAAH@Z @ 16 NONAME ; int RGOomMonitorSession::RequestOptionalRam(int, int, int, int &)
	??1CGOomMonitorPluginBase@@UAE@XZ @ 17 NONAME ; CGOomMonitorPluginBase::~CGOomMonitorPluginBase(void)
	?ApplicationAboutToStart@RGOomMonitorSession@@QAEXABVTUid@@@Z @ 18 NONAME ; void RGOomMonitorSession::ApplicationAboutToStart(class TUid const &)
	?IsConnected@RGOomMonitorSession@@QAEHXZ @ 19 NONAME ; int RGOomMonitorSession::IsConnected(void)
	?UsesAbsoluteMemTargets@RGOomMonitorSession@@QAEXH@Z @ 20 NONAME ; void RGOomMonitorSession::UsesAbsoluteMemTargets(int)
	?Connect@RGOomMonitorSession@@QAEHAAVTRequestStatus@@@Z @ 21 NONAME ; int RGOomMonitorSession::Connect(class TRequestStatus &)
	?AppAboutToStart@RGOomMonitorSession@@QAEXAAVTRequestStatus@@ABVTUid@@@Z @ 22 NONAME ; void RGOomMonitorSession::AppAboutToStart(class TRequestStatus &, class TUid const &)
	?MemoryAllocationsComplete@RGOomMonitorSession@@QAEXXZ @ 23 NONAME ; void RGOomMonitorSession::MemoryAllocationsComplete(void)
	?RequestHWRendering@RGOomMonitorSession@@QAEHXZ @ 24 NONAME ; int RGOomMonitorSession::RequestHWRendering(void)

