EXPORTS
	_Z22StartDownloadMgrServerPv @ 1 NONAME
	_ZN13RHttpDownload15GetIntAttributeEjRl @ 2 NONAME
	_ZN13RHttpDownload15SetIntAttributeEjl @ 3 NONAME
	_ZN13RHttpDownload16GetBoolAttributeEjRi @ 4 NONAME
	_ZN13RHttpDownload16SetBoolAttributeEji @ 5 NONAME
	_ZN13RHttpDownload18GetStringAttributeEjR5TDes8 @ 6 NONAME
	_ZN13RHttpDownload18GetStringAttributeEjR6TDes16 @ 7 NONAME
	_ZN13RHttpDownload18SetStringAttributeEjRK6TDesC8 @ 8 NONAME
	_ZN13RHttpDownload18SetStringAttributeEjRK7TDesC16 @ 9 NONAME
	_ZN13RHttpDownload4MoveEv @ 10 NONAME
	_ZN13RHttpDownload5PauseEv @ 11 NONAME
	_ZN13RHttpDownload5ResetEv @ 12 NONAME
	_ZN13RHttpDownload5StartEv @ 13 NONAME
	_ZN13RHttpDownload6DeleteEv @ 14 NONAME
	_ZN16RHttpDownloadMgr10DisconnectEv @ 15 NONAME
	_ZN16RHttpDownloadMgr12AddObserverLER24MHttpDownloadMgrObserver @ 16 NONAME
	_ZN16RHttpDownloadMgr14RemoveObserverER24MHttpDownloadMgrObserver @ 17 NONAME
	_ZN16RHttpDownloadMgr15CreateDownloadLERK6TDesC8Ri @ 18 NONAME
	_ZN16RHttpDownloadMgr15GetIntAttributeEjRl @ 19 NONAME
	_ZN16RHttpDownloadMgr15SetIntAttributeEjl @ 20 NONAME
	_ZN16RHttpDownloadMgr16GetBoolAttributeEjRi @ 21 NONAME
	_ZN16RHttpDownloadMgr16SetBoolAttributeEji @ 22 NONAME
	_ZN16RHttpDownloadMgr18GetStringAttributeEjR5TDes8 @ 23 NONAME
	_ZN16RHttpDownloadMgr18GetStringAttributeEjR6TDes16 @ 24 NONAME
	_ZN16RHttpDownloadMgr18SetStringAttributeEjRK6TDesC8 @ 25 NONAME
	_ZN16RHttpDownloadMgr18SetStringAttributeEjRK7TDesC16 @ 26 NONAME
	_ZN16RHttpDownloadMgr22SetDefaultIntAttributeEjl @ 27 NONAME
	_ZN16RHttpDownloadMgr23SetDefaultBoolAttributeEji @ 28 NONAME
	_ZN16RHttpDownloadMgr25SetDefaultStringAttributeEjRK6TDesC8 @ 29 NONAME
	_ZN16RHttpDownloadMgr25SetDefaultStringAttributeEjRK7TDesC16 @ 30 NONAME
	_ZN16RHttpDownloadMgr5CloseEv @ 31 NONAME
	_ZN16RHttpDownloadMgr8ConnectLE4TUidR24MHttpDownloadMgrObserveri @ 32 NONAME
	_ZN16RHttpDownloadMgr8PauseAllEv @ 33 NONAME
	_ZN16RHttpDownloadMgr8ResetAllEv @ 34 NONAME
	_ZN16RHttpDownloadMgr8StartAllEv @ 35 NONAME
	_ZN16RHttpDownloadMgr9DeleteAllEv @ 36 NONAME
	_ZN16RHttpDownloadMgrC1Ev @ 37 NONAME
	_ZN16RHttpDownloadMgrC2Ev @ 38 NONAME
	_ZNK16RHttpDownloadMgr16CurrentDownloadsEv @ 39 NONAME
	_ZNK16RHttpDownloadMgr7VersionEv @ 40 NONAME
	_ZN13RHttpDownload22GetFileHandleAttributeER5RFile @ 41 NONAME
	_ZN13RHttpDownload22SetFileHandleAttributeER5RFile @ 42 NONAME
	_ZN16RHttpDownloadMgr18CreateCodDownloadLERK6TDesC8S2_S2_P9CEikonEnvRi @ 43 NONAME
	_ZN16RHttpDownloadMgr12FindDownloadERK6TDesC8S2_ @ 44 NONAME
	_ZN16RHttpDownloadMgr15CreateDownloadLERK6TDesC8 @ 45 NONAME
	_ZN16RHttpDownloadMgr25CreateClientSideDownloadLEiRi @ 46 NONAME
	_ZN16RHttpDownloadMgr18SetNextUriObserverEP31MHttpDownloadMgrNextUriObserver @ 47 NONAME
	_ZN22RHttpDownloadMgrApiExt17AttachToDownloadLEl @ 48 NONAME
	_ZN22RHttpDownloadMgrApiExtC1Ev @ 49 NONAME
	_ZN22RHttpDownloadMgrApiExtC2Ev @ 50 NONAME
	_ZN13RHttpDownload15GetIntAttributeEjRKlRl @ 51 NONAME
	_ZN13RHttpDownload16GetBoolAttributeEjRKlRi @ 52 NONAME
	_ZN13RHttpDownload18GetStringAttributeEjRKlR5TDes8 @ 53 NONAME
	_ZN13RHttpDownload18GetStringAttributeEjRKlR6TDes16 @ 54 NONAME
	_ZN13RHttpDownload18SetStringAttributeEjRKlRK7TDesC16 @ 55 NONAME
	_ZN13RHttpDownload21SetTrackDataAttributeEiRK6TDesC8 @ 56 NONAME
	_ZN13RHttpDownload24SetDownloadDataAttributeERK6TDesC8 @ 57 NONAME

