EXPORTS
	?MinValue@CUpnpStateVariable@@QAEHXZ @ 1 NONAME ; int CUpnpStateVariable::MinValue(void)
	?SoapAction@CUpnpSoapMessage@@QAE?BVTPtrC8@@XZ @ 2 NONAME ; class TPtrC8 const CUpnpSoapMessage::SoapAction(void)
	?DefaultValue@CUpnpStateVariable@@QAE?BVTPtrC8@@XZ @ 3 NONAME ; class TPtrC8 const CUpnpStateVariable::DefaultValue(void)
	?ServiceList@CUpnpDevice@@QAEAAV?$RPointerArray@VCUpnpService@@@@XZ @ 4 NONAME ; class RPointerArray<class CUpnpService> & CUpnpDevice::ServiceList(void)
	?EventingLC@RUpnpGenaMessageFactory@@SAPAVCUpnpGenaMessage@@ABVTDesC8@@AAVTInetAddr@@0K@Z @ 5 NONAME ; class CUpnpGenaMessage * RUpnpGenaMessageFactory::EventingLC(class TDesC8 const &, class TInetAddr &, class TDesC8 const &, unsigned long)
	?DestinationAddr@CUpnpAction@@QBE?AVTInetAddr@@XZ @ 6 NONAME ; class TInetAddr CUpnpAction::DestinationAddr(void) const
	?SoapResponseL@RUpnpSoapMessageFactory@@SAPAVCUpnpSoapMessage@@PAVCUpnpAction@@@Z @ 7 NONAME ; class CUpnpSoapMessage * RUpnpSoapMessageFactory::SoapResponseL(class CUpnpAction *)
	?NewLC@CUpnpDispatcher@@SAPAV1@PAVMUpnpDiscoveryObserver@@@Z @ 8 NONAME ; class CUpnpDispatcher * CUpnpDispatcher::NewLC(class MUpnpDiscoveryObserver *)
	?NewL@CUpnpAction@@SAPAV1@ABVTDesC8@@@Z @ 9 NONAME ; class CUpnpAction * CUpnpAction::NewL(class TDesC8 const &)
	?StateVariableEvented@CUpnpServiceImplementation@@UAEXABVTDesC8@@@Z @ 10 NONAME ; void CUpnpServiceImplementation::StateVariableEvented(class TDesC8 const &)
	?StartL@CUpnpSilentDeviceImplementation@@UAEXH@Z @ 11 NONAME ; void CUpnpSilentDeviceImplementation::StartL(int)
	?SetControlUrl@CUpnpService@@QAEXPAVHBufC8@@@Z @ 12 NONAME ; void CUpnpService::SetControlUrl(class HBufC8 *)
	?WaitServiceDescriptionCount@CUpnpDevice@@QAEHXZ @ 13 NONAME ; int CUpnpDevice::WaitServiceDescriptionCount(void)
	?SubcribersAmount@CUpnpServiceImplementation@@QAEHXZ @ 14 NONAME ; int CUpnpServiceImplementation::SubcribersAmount(void)
	??1CUpnpService@@UAE@XZ @ 15 NONAME ; CUpnpService::~CUpnpService(void)
	?SetDescriptionPropertyL@CUpnpDeviceImplementationBase@@QAEXABVTDesC8@@0@Z @ 16 NONAME ; void CUpnpDeviceImplementationBase::SetDescriptionPropertyL(class TDesC8 const &, class TDesC8 const &)
	?DeviceList@CUpnpDevice@@QAEAAV?$RPointerArray@VCUpnpDevice@@@@XZ @ 17 NONAME ; class RPointerArray<class CUpnpDevice> & CUpnpDevice::DeviceList(void)
	?BaseConstructL@CUpnpServiceImplementation@@IAEXABVTDesC16@@ABVTDesC8@@@Z @ 18 NONAME ; void CUpnpServiceImplementation::BaseConstructL(class TDesC16 const &, class TDesC8 const &)
	?SetServiceDescriptionUrl@CUpnpService@@QAEXPAVHBufC8@@@Z @ 19 NONAME ; void CUpnpService::SetServiceDescriptionUrl(class HBufC8 *)
	?SendL@CUpnpServiceImplementation@@IAEXPAVCUpnpAction@@W4TUpnpErrorCode@@@Z @ 20 NONAME ; void CUpnpServiceImplementation::SendL(class CUpnpAction *, enum TUpnpErrorCode)
	?GetAction@CUpnpService@@QAEHAAPAVCUpnpAction@@ABVTDesC8@@@Z @ 21 NONAME ; int CUpnpService::GetAction(class CUpnpAction * &, class TDesC8 const &)
	?ControlUrl@CUpnpService@@QAE?BVTPtrC8@@XZ @ 22 NONAME ; class TPtrC8 const CUpnpService::ControlUrl(void)
	?WaitServiceDescriptionRemoveSessionId@CUpnpDevice@@QAEXH@Z @ 23 NONAME ; void CUpnpDevice::WaitServiceDescriptionRemoveSessionId(int)
	?Argument@CUpnpAction@@QAEPAVCUpnpArgument@@ABVTDesC8@@@Z @ 24 NONAME ; class CUpnpArgument * CUpnpAction::Argument(class TDesC8 const &)
	?ResubscribeL@RUpnpGenaMessageFactory@@SAPAVCUpnpGenaMessage@@ABVTDesC8@@AAVTInetAddr@@0@Z @ 25 NONAME ; class CUpnpGenaMessage * RUpnpGenaMessageFactory::ResubscribeL(class TDesC8 const &, class TInetAddr &, class TDesC8 const &)
	?AttachL@CUpnpContentHandlersController@@QAEXABVTDesC8@@AAVCUpnpService@@@Z @ 26 NONAME ; void CUpnpContentHandlersController::AttachL(class TDesC8 const &, class CUpnpService &)
	?Seq@CUpnpGenaMessage@@QAEABVTDesC8@@XZ @ 27 NONAME ; class TDesC8 const & CUpnpGenaMessage::Seq(void)
	?SetDeviceNetwork@CUpnpDevice@@QAEXW4TUpnpDeviceNetwork@1@@Z @ 28 NONAME ; void CUpnpDevice::SetDeviceNetwork(enum CUpnpDevice::TUpnpDeviceNetwork)
	?Type@CUpnpStateVariable@@QAE?AW4TArgumentType@@XZ @ 29 NONAME ; enum TArgumentType CUpnpStateVariable::Type(void)
	?StopHttpServer@CUpnpDispatcher@@QAEXXZ @ 30 NONAME ; void CUpnpDispatcher::StopHttpServer(void)
	?SaveL@CUpnpDeviceDescriptionStore@@QAEXXZ @ 31 NONAME ; void CUpnpDeviceDescriptionStore::SaveL(void)
	??1CUpnpSoapMessage@@UAE@XZ @ 32 NONAME ; CUpnpSoapMessage::~CUpnpSoapMessage(void)
	?SoapRequestL@RUpnpSoapMessageFactory@@SAPAVCUpnpSoapMessage@@PAVCUpnpAction@@@Z @ 33 NONAME ; class CUpnpSoapMessage * RUpnpSoapMessageFactory::SoapRequestL(class CUpnpAction *)
	?ConcatWithUrlBaseL@CUpnpDevice@@QAEPAVHBufC8@@ABVTDesC8@@@Z @ 34 NONAME ; class HBufC8 * CUpnpDevice::ConcatWithUrlBaseL(class TDesC8 const &)
	?UpdateIconL@CUpnpDeviceDescriptionStore@@QAEXABVCUpnpIcon@@@Z @ 35 NONAME ; void CUpnpDeviceDescriptionStore::UpdateIconL(class CUpnpIcon const &)
	?Sid@CUpnpGenaMessage@@QAEAAVTDesC8@@XZ @ 36 NONAME ; class TDesC8 & CUpnpGenaMessage::Sid(void)
	?UpdateDevicesL@CUpnpDispatcher@@QAEXH@Z @ 37 NONAME ; void CUpnpDispatcher::UpdateDevicesL(int)
	?Width@CUpnpIcon@@QBEHXZ @ 38 NONAME ; int CUpnpIcon::Width(void) const
	?Path@CUpnpService@@QAEABVTDesC8@@XZ @ 39 NONAME ; class TDesC8 const & CUpnpService::Path(void)
	?IconListL@CUpnpDeviceDescriptionStore@@QAE?AV?$RPointerArray@VCUpnpIcon@@@@XZ @ 40 NONAME ; class RPointerArray<class CUpnpIcon> CUpnpDeviceDescriptionStore::IconListL(void)
	?SessionId@CUpnpAction@@QBEHXZ @ 41 NONAME ; int CUpnpAction::SessionId(void) const
	??1CUpnpGenaMessage@@UAE@XZ @ 42 NONAME ; CUpnpGenaMessage::~CUpnpGenaMessage(void)
	?StopL@CUpnpDeviceImplementation@@UAEXXZ @ 43 NONAME ; void CUpnpDeviceImplementation::StopL(void)
	?SendL@CUpnpServiceImplementation@@UAEXPAVCUpnpHttpMessage@@@Z @ 44 NONAME ; void CUpnpServiceImplementation::SendL(class CUpnpHttpMessage *)
	?SetAddress@CUpnpDevice@@QAEXABVTInetAddr@@@Z @ 45 NONAME ; void CUpnpDevice::SetAddress(class TInetAddr const &)
	?MimeType@CUpnpIcon@@QBE?BVTPtrC8@@XZ @ 46 NONAME ; class TPtrC8 const CUpnpIcon::MimeType(void) const
	?EventedStateVariables@CUpnpServiceImplementation@@QAEAAV?$RPointerArray@VCUpnpStateVariable@@@@XZ @ 47 NONAME ; class RPointerArray<class CUpnpStateVariable> & CUpnpServiceImplementation::EventedStateVariables(void)
	?SubscribeResponseL@RUpnpGenaMessageFactory@@SAPAVCUpnpGenaMessage@@HABVTInetAddr@@ABVTDesC8@@1@Z @ 48 NONAME ; class CUpnpGenaMessage * RUpnpGenaMessageFactory::SubscribeResponseL(int, class TInetAddr const &, class TDesC8 const &, class TDesC8 const &)
	?MessageReceivedLD@CUpnpServiceImplementation@@UAEXPAVCUpnpHttpMessage@@@Z @ 49 NONAME ; void CUpnpServiceImplementation::MessageReceivedLD(class CUpnpHttpMessage *)
	?SubscribeResponseL@RUpnpGenaMessageFactory@@SAPAVCUpnpGenaMessage@@HABVTInetAddr@@HABVTDesC8@@1@Z @ 50 NONAME ; class CUpnpGenaMessage * RUpnpGenaMessageFactory::SubscribeResponseL(int, class TInetAddr const &, int, class TDesC8 const &, class TDesC8 const &)
	?StateVariableList@CUpnpService@@QBE?AV?$RPointerArray@VCUpnpStateVariable@@@@XZ @ 51 NONAME ; class RPointerArray<class CUpnpStateVariable> CUpnpService::StateVariableList(void) const
	?NewL@CUpnpGenaMessage@@SAPAV1@ABVTInetAddr@@@Z @ 52 NONAME ; class CUpnpGenaMessage * CUpnpGenaMessage::NewL(class TInetAddr const &)
	?RemoveIconsL@CUpnpDeviceDescriptionStore@@QAEXXZ @ 53 NONAME ; void CUpnpDeviceDescriptionStore::RemoveIconsL(void)
	?UpdateActionWithOKResponseL@CUpnpContentHandlersController@@QAEXPAVCUpnpSoapMessage@@PAVCUpnpAction@@@Z @ 54 NONAME ; void CUpnpContentHandlersController::UpdateActionWithOKResponseL(class CUpnpSoapMessage *, class CUpnpAction *)
	?Nt@CUpnpGenaMessage@@QAEAAVTDesC8@@XZ @ 55 NONAME ; class TDesC8 & CUpnpGenaMessage::Nt(void)
	?RemoveCustomer@CUpnpDispatcher@@QAEXABVMUpnpDispatcherCustomer@@@Z @ 56 NONAME ; void CUpnpDispatcher::RemoveCustomer(class MUpnpDispatcherCustomer const &)
	?SetExpired@CUpnpDevice@@QAEXH@Z @ 57 NONAME ; void CUpnpDevice::SetExpired(int)
	?RemoveTagL@CUpnpDeviceDescriptionStore@@QAEXABVTDesC8@@@Z @ 58 NONAME ; void CUpnpDeviceDescriptionStore::RemoveTagL(class TDesC8 const &)
	?ServiceDescriptionUrl@CUpnpDevice@@QAE?BVTPtrC8@@ABVTDesC8@@@Z @ 59 NONAME ; class TPtrC8 const CUpnpDevice::ServiceDescriptionUrl(class TDesC8 const &)
	?ParseSilentDeviceImplL@CUpnpContentHandlersController@@QAEPAVCUpnpSilentDeviceImplementation@@ABVTDesC8@@@Z @ 60 NONAME ; class CUpnpSilentDeviceImplementation * CUpnpContentHandlersController::ParseSilentDeviceImplL(class TDesC8 const &)
	?SubscriptionUrl@CUpnpService@@QAE?BVTPtrC8@@XZ @ 61 NONAME ; class TPtrC8 const CUpnpService::SubscriptionUrl(void)
	?ServiceId@CUpnpDevice@@QAE?BVTPtrC8@@ABVTDesC8@@@Z @ 62 NONAME ; class TPtrC8 const CUpnpDevice::ServiceId(class TDesC8 const &)
	?WaitServiceDescriptionL@CUpnpDevice@@QAEXH@Z @ 63 NONAME ; void CUpnpDevice::WaitServiceDescriptionL(int)
	?SendMessageL@CUpnpDispatcher@@QAEXPAVCUpnpHttpMessage@@AAVMUpnpDispatcherCustomer@@H@Z @ 64 NONAME ; void CUpnpDispatcher::SendMessageL(class CUpnpHttpMessage *, class MUpnpDispatcherCustomer &, int)
	?SendL@CUpnpServiceImplementation@@QAEXPAVCUpnpSoapMessage@@W4TUpnpErrorCode@@@Z @ 65 NONAME ; void CUpnpServiceImplementation::SendL(class CUpnpSoapMessage *, enum TUpnpErrorCode)
	?ParseDeviceL@CUpnpContentHandlersController@@QAEXABVTDesC8@@PAVCUpnpDevice@@@Z @ 66 NONAME ; void CUpnpContentHandlersController::ParseDeviceL(class TDesC8 const &, class CUpnpDevice *)
	?SetValueL@CUpnpStateVariable@@QAEXABVTDesC8@@H@Z @ 67 NONAME ; void CUpnpStateVariable::SetValueL(class TDesC8 const &, int)
	?InetAddress@CUpnpDeviceDescriptionRequest@@QAEXAAVTInetAddr@@@Z @ 68 NONAME ; void CUpnpDeviceDescriptionRequest::InetAddress(class TInetAddr &)
	?SendL@CUpnpHttpClientEngine@@QAEXAAVCUpnpHttpTransaction@@@Z @ 69 NONAME ; void CUpnpHttpClientEngine::SendL(class CUpnpHttpTransaction &)
	?AddIcon@CUpnpDevice@@QAE?AW4TIconAdd@1@H@Z @ 70 NONAME ; enum CUpnpDevice::TIconAdd CUpnpDevice::AddIcon(int)
	?UnsubscribeL@RUpnpGenaMessageFactory@@SAPAVCUpnpGenaMessage@@ABVTDesC8@@AAVTInetAddr@@0@Z @ 71 NONAME ; class CUpnpGenaMessage * RUpnpGenaMessageFactory::UnsubscribeL(class TDesC8 const &, class TInetAddr &, class TDesC8 const &)
	?SubscribeL@RUpnpGenaMessageFactory@@SAPAVCUpnpGenaMessage@@ABVTDesC8@@AAVTInetAddr@@0@Z @ 72 NONAME ; class CUpnpGenaMessage * RUpnpGenaMessageFactory::SubscribeL(class TDesC8 const &, class TInetAddr &, class TDesC8 const &)
	?ParseSilentDeviceImplL@CUpnpContentHandlersController@@QAEXABVTDesC8@@PAVCUpnpSilentDeviceImplementation@@@Z @ 73 NONAME ; void CUpnpContentHandlersController::ParseSilentDeviceImplL(class TDesC8 const &, class CUpnpSilentDeviceImplementation *)
	??0CUpnpServiceImplementation@@QAE@AAVCUpnpDevice@@@Z @ 74 NONAME ; CUpnpServiceImplementation::CUpnpServiceImplementation(class CUpnpDevice &)
	?AddIconL@CUpnpDevice@@QAEXPAVCUpnpIcon@@@Z @ 75 NONAME ; void CUpnpDevice::AddIconL(class CUpnpIcon *)
	?Value@CUpnpStateVariable@@QAE?BVTPtrC8@@XZ @ 76 NONAME ; class TPtrC8 const CUpnpStateVariable::Value(void)
	?Error@CUpnpAction@@QBEHXZ @ 77 NONAME ; int CUpnpAction::Error(void) const
	?AddLocalDeviceL@CUpnpDispatcher@@QAEXABVTDesC8@@00ABVCDesC8Array@@H@Z @ 78 NONAME ; void CUpnpDispatcher::AddLocalDeviceL(class TDesC8 const &, class TDesC8 const &, class TDesC8 const &, class CDesC8Array const &, int)
	?WaitIconL@CUpnpDevice@@QAEXH@Z @ 79 NONAME ; void CUpnpDevice::WaitIconL(int)
	?SoapResponseL@RUpnpSoapMessageFactory@@SAPAVCUpnpSoapMessage@@PAVCUpnpAction@@W4TUpnpErrorCode@@ABVTDesC8@@@Z @ 80 NONAME ; class CUpnpSoapMessage * RUpnpSoapMessageFactory::SoapResponseL(class CUpnpAction *, enum TUpnpErrorCode, class TDesC8 const &)
	?SetSubscriptionUrl@CUpnpService@@QAEXPAVHBufC8@@@Z @ 81 NONAME ; void CUpnpService::SetSubscriptionUrl(class HBufC8 *)
	?Address@CUpnpService@@QAE?AVTInetAddr@@XZ @ 82 NONAME ; class TInetAddr CUpnpService::Address(void)
	??1CUpnpHttpTransaction@@UAE@XZ @ 83 NONAME ; CUpnpHttpTransaction::~CUpnpHttpTransaction(void)
	?GetUserAgentL@CUpnpSettings@@SAPAVHBufC8@@XZ @ 84 NONAME ; class HBufC8 * CUpnpSettings::GetUserAgentL(void)
	?AddCustomer@CUpnpDispatcher@@QAEXABVMUpnpDispatcherCustomer@@@Z @ 85 NONAME ; void CUpnpDispatcher::AddCustomer(class MUpnpDispatcherCustomer const &)
	?Request@CUpnpHttpTransaction@@QAEPAVCUpnpHttpMessage@@XZ @ 86 NONAME ; class CUpnpHttpMessage * CUpnpHttpTransaction::Request(void)
	?SetPropertyL@CUpnpDeviceDescriptionStore@@QAEXABVTDesC8@@00@Z @ 87 NONAME ; void CUpnpDeviceDescriptionStore::SetPropertyL(class TDesC8 const &, class TDesC8 const &, class TDesC8 const &)
	?Step@CUpnpStateVariable@@QAEHXZ @ 88 NONAME ; int CUpnpStateVariable::Step(void)
	?Address@CUpnpDevice@@UAE?AVTInetAddr@@XZ @ 89 NONAME ; class TInetAddr CUpnpDevice::Address(void)
	?UrlBase@CUpnpDevice@@QAE?BVTPtrC8@@XZ @ 90 NONAME ; class TPtrC8 const CUpnpDevice::UrlBase(void)
	?Sender@CUpnpAction@@QAEAAVTInetAddr@@XZ @ 91 NONAME ; class TInetAddr & CUpnpAction::Sender(void)
	?Depth@CUpnpIcon@@QBEHXZ @ 92 NONAME ; int CUpnpIcon::Depth(void) const
	??1CUpnpDeviceImplementation@@UAE@XZ @ 93 NONAME ; CUpnpDeviceImplementation::~CUpnpDeviceImplementation(void)
	?ParseServiceL@CUpnpContentHandlersController@@QAEXABVTDesC8@@PAVCUpnpService@@@Z @ 94 NONAME ; void CUpnpContentHandlersController::ParseServiceL(class TDesC8 const &, class CUpnpService *)
	?Remote@CUpnpDevice@@QBEHXZ @ 95 NONAME ; int CUpnpDevice::Remote(void) const
	?Get@CUpnpSettings@@QAEHIAAVTDes16@@@Z @ 96 NONAME ; int CUpnpSettings::Get(unsigned int, class TDes16 &)
	?ConstructL@CUpnpService@@IAEXABVTDesC8@@0@Z @ 97 NONAME ; void CUpnpService::ConstructL(class TDesC8 const &, class TDesC8 const &)
	?AddIconL@CUpnpDeviceImplementationBase@@QAEXABVCUpnpIcon@@@Z @ 98 NONAME ; void CUpnpDeviceImplementationBase::AddIconL(class CUpnpIcon const &)
	?SetUrlL@CUpnpIcon@@QAEXABVTDesC8@@@Z @ 99 NONAME ; void CUpnpIcon::SetUrlL(class TDesC8 const &)
	?GetAllDevices@CUpnpDevice@@QAEXAAV?$RPointerArray@VCUpnpDevice@@@@@Z @ 100 NONAME ; void CUpnpDevice::GetAllDevices(class RPointerArray<class CUpnpDevice> &)
	?Address@CUpnpDeviceImplementationBase@@UAE?AVTInetAddr@@XZ @ 101 NONAME ; class TInetAddr CUpnpDeviceImplementationBase::Address(void)
	?Uri@CUpnpDeviceDescriptionRequest@@QAE?AVTPtrC8@@XZ @ 102 NONAME ; class TPtrC8 CUpnpDeviceDescriptionRequest::Uri(void)
	?SetStateVariableL@CUpnpServiceImplementation@@QAEXABVTDesC8@@0H@Z @ 103 NONAME ; void CUpnpServiceImplementation::SetStateVariableL(class TDesC8 const &, class TDesC8 const &, int)
	?NewL@CUpnpDeviceDescriptionStore@@SAPAV1@ABVTDesC16@@@Z @ 104 NONAME ; class CUpnpDeviceDescriptionStore * CUpnpDeviceDescriptionStore::NewL(class TDesC16 const &)
	?SetNameL@CUpnpStateVariable@@QAEXABVTDesC8@@@Z @ 105 NONAME ; void CUpnpStateVariable::SetNameL(class TDesC8 const &)
	?GetIapL@CUpnpSettings@@SAHXZ @ 106 NONAME ; int CUpnpSettings::GetIapL(void)
	?RemoveDescriptionPropertyL@CUpnpDeviceImplementationBase@@QAEXABVTDesC8@@@Z @ 107 NONAME ; void CUpnpDeviceImplementationBase::RemoveDescriptionPropertyL(class TDesC8 const &)
	?ParseDeviceImplL@CUpnpContentHandlersController@@QAEXABVTDesC8@@PAVCUpnpDeviceImplementation@@@Z @ 108 NONAME ; void CUpnpContentHandlersController::ParseDeviceImplL(class TDesC8 const &, class CUpnpDeviceImplementation *)
	?StartL@CUpnpDeviceImplementation@@UAEXH@Z @ 109 NONAME ; void CUpnpDeviceImplementation::StartL(int)
	?SetValueL@CUpnpArgument@@QAEXABVTDesC8@@@Z @ 110 NONAME ; void CUpnpArgument::SetValueL(class TDesC8 const &)
	?DescriptionUrlAddressL@CUpnpDevice@@QBE?AVTInetAddr@@XZ @ 111 NONAME ; class TInetAddr CUpnpDevice::DescriptionUrlAddressL(void) const
	?ServiceType@CUpnpSoapMessage@@QAE?BVTPtrC8@@XZ @ 112 NONAME ; class TPtrC8 const CUpnpSoapMessage::ServiceType(void)
	?Callback@CUpnpGenaMessage@@QAEAAVTDesC8@@XZ @ 113 NONAME ; class TDesC8 & CUpnpGenaMessage::Callback(void)
	?SetDispatcher@CUpnpServiceImplementation@@QAEXPAVCUpnpDispatcher@@@Z @ 114 NONAME ; void CUpnpServiceImplementation::SetDispatcher(class CUpnpDispatcher *)
	?AddEventVariable@CUpnpServiceImplementation@@QAEXABVCUpnpStateVariable@@H@Z @ 115 NONAME ; void CUpnpServiceImplementation::AddEventVariable(class CUpnpStateVariable const &, int)
	?SetDestinationAddr@CUpnpAction@@QAEXABVTInetAddr@@@Z @ 116 NONAME ; void CUpnpAction::SetDestinationAddr(class TInetAddr const &)
	?ServiceDescriptionUrl@CUpnpService@@QAE?BVTPtrC8@@XZ @ 117 NONAME ; class TPtrC8 const CUpnpService::ServiceDescriptionUrl(void)
	?Local@CUpnpAction@@QBEHXZ @ 118 NONAME ; int CUpnpAction::Local(void) const
	?SetPropertyL@CUpnpDeviceDescriptionStore@@QAEXABVTDesC8@@0@Z @ 119 NONAME ; void CUpnpDeviceDescriptionStore::SetPropertyL(class TDesC8 const &, class TDesC8 const &)
	?Nts@CUpnpGenaMessage@@QAEAAVTDesC8@@XZ @ 120 NONAME ; class TDesC8 & CUpnpGenaMessage::Nts(void)
	??0CUpnpService@@IAE@AAVCUpnpDevice@@@Z @ 121 NONAME ; CUpnpService::CUpnpService(class CUpnpDevice &)
	??0CUpnpHttpTransaction@@IAE@PAVCUpnpHttpMessage@@@Z @ 122 NONAME ; CUpnpHttpTransaction::CUpnpHttpTransaction(class CUpnpHttpMessage *)
	?Set@CUpnpSettings@@QAEHIABVTDesC16@@@Z @ 123 NONAME ; int CUpnpSettings::Set(unsigned int, class TDesC16 const &)
	?RemoveIconsL@CUpnpDeviceImplementationBase@@QAEXXZ @ 124 NONAME ; void CUpnpDeviceImplementationBase::RemoveIconsL(void)
	?UpdateActionWithErrorResponseL@CUpnpContentHandlersController@@QAEXPAVCUpnpSoapMessage@@PAVCUpnpAction@@@Z @ 125 NONAME ; void CUpnpContentHandlersController::UpdateActionWithErrorResponseL(class CUpnpSoapMessage *, class CUpnpAction *)
	?Get@CUpnpSettings@@QAEHIAAH@Z @ 126 NONAME ; int CUpnpSettings::Get(unsigned int, int &)
	?DeviceNetwork@CUpnpDevice@@QBE?AW4TUpnpDeviceNetwork@1@XZ @ 127 NONAME ; enum CUpnpDevice::TUpnpDeviceNetwork CUpnpDevice::DeviceNetwork(void) const
	?AddAllowedValueL@CUpnpStateVariable@@QAEXABVTDesC8@@@Z @ 128 NONAME ; void CUpnpStateVariable::AddAllowedValueL(class TDesC8 const &)
	?SoapResponseL@RUpnpSoapMessageFactory@@SAPAVCUpnpSoapMessage@@PAV2@W4TUpnpErrorCode@@@Z @ 129 NONAME ; class CUpnpSoapMessage * RUpnpSoapMessageFactory::SoapResponseL(class CUpnpSoapMessage *, enum TUpnpErrorCode)
	?AddTagL@CUpnpDeviceDescriptionStore@@QAE?AVTXmlEngElement@@ABVTDesC8@@@Z @ 130 NONAME ; class TXmlEngElement CUpnpDeviceDescriptionStore::AddTagL(class TDesC8 const &)
	?SetTypeL@CUpnpStateVariable@@QAEXABVTDesC8@@@Z @ 131 NONAME ; void CUpnpStateVariable::SetTypeL(class TDesC8 const &)
	??0CUpnpGenaMessage@@AAE@XZ @ 132 NONAME ; CUpnpGenaMessage::CUpnpGenaMessage(void)
	?StopIPFiltering@CUpnpDispatcher@@QAEXXZ @ 133 NONAME ; void CUpnpDispatcher::StopIPFiltering(void)
	?StopFilteringL@CUpnpDispatcher@@QAEXABVTDesC8@@@Z @ 134 NONAME ; void CUpnpDispatcher::StopFilteringL(class TDesC8 const &)
	?AllowedValuesLC@CUpnpStateVariable@@QAEPAVCDesC8Array@@XZ @ 135 NONAME ; class CDesC8Array * CUpnpStateVariable::AllowedValuesLC(void)
	??1CUpnpIcon@@UAE@XZ @ 136 NONAME ; CUpnpIcon::~CUpnpIcon(void)
	?ParseDeviceL@CUpnpContentHandlersController@@QAEPAVCUpnpDevice@@ABVTDesC8@@@Z @ 137 NONAME ; class CUpnpDevice * CUpnpContentHandlersController::ParseDeviceL(class TDesC8 const &)
	?NewL@CUpnpDevice@@SAPAV1@PBVTUpnpDevice@@ABV?$RPointerArray@VTUpnpService@@@@@Z @ 138 NONAME ; class CUpnpDevice * CUpnpDevice::NewL(class TUpnpDevice const *, class RPointerArray<class TUpnpService> const &)
	?ArgumentList@CUpnpAction@@QAEAAV?$RPointerArray@VCUpnpArgument@@@@XZ @ 139 NONAME ; class RPointerArray<class CUpnpArgument> & CUpnpAction::ArgumentList(void)
	?Timeout@CUpnpGenaMessage@@QAEAAVTDesC8@@XZ @ 140 NONAME ; class TDesC8 & CUpnpGenaMessage::Timeout(void)
	?GetDefaultValue@CUpnpStateVariable@@QAEXAAH@Z @ 141 NONAME ; void CUpnpStateVariable::GetDefaultValue(int &)
	?Name@CUpnpAction@@QAEAAVTDesC8@@XZ @ 142 NONAME ; class TDesC8 & CUpnpAction::Name(void)
	?Url@CUpnpIcon@@QBE?BVTPtrC8@@XZ @ 143 NONAME ; class TPtrC8 const CUpnpIcon::Url(void) const
	?SetStateVariableL@CUpnpService@@QAEXABVTDesC8@@0@Z @ 144 NONAME ; void CUpnpService::SetStateVariableL(class TDesC8 const &, class TDesC8 const &)
	?AddStateVariableL@CUpnpService@@QAEXPAVCUpnpStateVariable@@@Z @ 145 NONAME ; void CUpnpService::AddStateVariableL(class CUpnpStateVariable *)
	?HttpServerAddress@CUpnpDispatcher@@QAE?AVTInetAddr@@XZ @ 146 NONAME ; class TInetAddr CUpnpDispatcher::HttpServerAddress(void)
	?StateVariable@CUpnpService@@QAEPAVCUpnpStateVariable@@ABVTDesC8@@@Z @ 147 NONAME ; class CUpnpStateVariable * CUpnpService::StateVariable(class TDesC8 const &)
	?NewL@CUpnpIcon@@SAPAV1@XZ @ 148 NONAME ; class CUpnpIcon * CUpnpIcon::NewL(void)
	?SetArgumentL@CUpnpAction@@QAEHABVTDesC8@@0@Z @ 149 NONAME ; int CUpnpAction::SetArgumentL(class TDesC8 const &, class TDesC8 const &)
	?WaitServiceDescriptionSessionId@CUpnpDevice@@QAEHH@Z @ 150 NONAME ; int CUpnpDevice::WaitServiceDescriptionSessionId(int)
	?RemoveIconL@CUpnpDeviceImplementationBase@@QAEXABVTDesC8@@@Z @ 151 NONAME ; void CUpnpDeviceImplementationBase::RemoveIconL(class TDesC8 const &)
	?ResubscribeL@RUpnpGenaMessageFactory@@SAPAVCUpnpGenaMessage@@ABVTDesC8@@AAVTInetAddr@@00@Z @ 152 NONAME ; class CUpnpGenaMessage * RUpnpGenaMessageFactory::ResubscribeL(class TDesC8 const &, class TInetAddr &, class TDesC8 const &, class TDesC8 const &)
	??1CUpnpHttpClientEngine@@UAE@XZ @ 153 NONAME ; CUpnpHttpClientEngine::~CUpnpHttpClientEngine(void)
	?DescriptionFile@CUpnpDeviceDescriptionStore@@QAEABVTDesC16@@XZ @ 154 NONAME ; class TDesC16 const & CUpnpDeviceDescriptionStore::DescriptionFile(void)
	?RemoveIconL@CUpnpDeviceDescriptionStore@@QAEXABVTDesC8@@@Z @ 155 NONAME ; void CUpnpDeviceDescriptionStore::RemoveIconL(class TDesC8 const &)
	?NewL@CUpnpSettings@@SAPAV1@VTUid@@@Z @ 156 NONAME ; class CUpnpSettings * CUpnpSettings::NewL(class TUid)
	?ServiceIdL@CUpnpDevice@@QAEAAVCDesC8Array@@XZ @ 157 NONAME ; class CDesC8Array & CUpnpDevice::ServiceIdL(void)
	?DestinationPath@CUpnpAction@@QAEABVTDesC8@@XZ @ 158 NONAME ; class TDesC8 const & CUpnpAction::DestinationPath(void)
	?SetDestinationPathL@CUpnpAction@@QAEXABVTDesC8@@@Z @ 159 NONAME ; void CUpnpAction::SetDestinationPathL(class TDesC8 const &)
	?SearchL@CUpnpDispatcher@@QAEXABVTDesC8@@@Z @ 160 NONAME ; void CUpnpDispatcher::SearchL(class TDesC8 const &)
	?Icons@CUpnpDevice@@QAEAAV?$RPointerArray@VCUpnpIcon@@@@XZ @ 161 NONAME ; class RPointerArray<class CUpnpIcon> & CUpnpDevice::Icons(void)
	?IsAdded@CUpnpService@@QAEHXZ @ 162 NONAME ; int CUpnpService::IsAdded(void)
	?MaxValue@CUpnpStateVariable@@QAEHXZ @ 163 NONAME ; int CUpnpStateVariable::MaxValue(void)
	?DescriptionUrl@CUpnpDevice@@QBEABVTDesC8@@XZ @ 164 NONAME ; class TDesC8 const & CUpnpDevice::DescriptionUrl(void) const
	?GetIconlistElementL@CUpnpDeviceDescriptionStore@@AAE?AVTXmlEngElement@@XZ @ 165 NONAME ; class TXmlEngElement CUpnpDeviceDescriptionStore::GetIconlistElementL(void)
	?NewLC@CUpnpGenaMessage@@SAPAV1@ABVTInetAddr@@@Z @ 166 NONAME ; class CUpnpGenaMessage * CUpnpGenaMessage::NewLC(class TInetAddr const &)
	?ServiceType@CUpnpAction@@QAEAAVTDesC8@@XZ @ 167 NONAME ; class TDesC8 & CUpnpAction::ServiceType(void)
	?Service@CUpnpAction@@QAEAAVCUpnpService@@XZ @ 168 NONAME ; class CUpnpService & CUpnpAction::Service(void)
	?AddIconL@CUpnpDeviceDescriptionStore@@QAEXABVCUpnpIcon@@@Z @ 169 NONAME ; void CUpnpDeviceDescriptionStore::AddIconL(class CUpnpIcon const &)
	?ArgumentValue@CUpnpAction@@QAEABVTDesC8@@ABV2@@Z @ 170 NONAME ; class TDesC8 const & CUpnpAction::ArgumentValue(class TDesC8 const &)
	?NewL@CUpnpIcon@@SAPAV1@ABVTDesC16@@HHHABVTDesC8@@@Z @ 171 NONAME ; class CUpnpIcon * CUpnpIcon::NewL(class TDesC16 const &, int, int, int, class TDesC8 const &)
	?DeviceType@CUpnpDevice@@QAE?BVTPtrC8@@XZ @ 172 NONAME ; class TPtrC8 const CUpnpDevice::DeviceType(void)
	?Name@CUpnpStateVariable@@QAE?BVTPtrC8@@XZ @ 173 NONAME ; class TPtrC8 const CUpnpStateVariable::Name(void)
	?Type@CUpnpArgument@@QAE?AW4TArgumentType@@XZ @ 174 NONAME ; enum TArgumentType CUpnpArgument::Type(void)
	?NewL@CUpnpSoapMessage@@SAPAV1@AAVTDesC8@@ABVTInetAddr@@@Z @ 175 NONAME ; class CUpnpSoapMessage * CUpnpSoapMessage::NewL(class TDesC8 &, class TInetAddr const &)
	?Path@CUpnpServiceImplementation@@UAEABVTDesC8@@XZ @ 176 NONAME ; class TDesC8 const & CUpnpServiceImplementation::Path(void)
	?CloneL@CUpnpDevice@@QAEPAV1@XZ @ 177 NONAME ; class CUpnpDevice * CUpnpDevice::CloneL(void)
	?Eventable@CUpnpStateVariable@@QAE?BVTPtrC8@@XZ @ 178 NONAME ; class TPtrC8 const CUpnpStateVariable::Eventable(void)
	?InternalizeL@CUpnpIcon@@QAEXAAVRReadStream@@@Z @ 179 NONAME ; void CUpnpIcon::InternalizeL(class RReadStream &)
	?ServiceType@CUpnpService@@QAEABVTDesC8@@XZ @ 180 NONAME ; class TDesC8 const & CUpnpService::ServiceType(void)
	??1CUpnpAction@@UAE@XZ @ 181 NONAME ; CUpnpAction::~CUpnpAction(void)
	?GetActionList@CUpnpService@@QAEXAAV?$RPointerArray@VCUpnpAction@@@@@Z @ 182 NONAME ; void CUpnpService::GetActionList(class RPointerArray<class CUpnpAction> &)
	?NewLC@CUpnpHttpClientEngine@@SAPAV1@AAVMUpnpHttpClientObserver@@H@Z @ 183 NONAME ; class CUpnpHttpClientEngine * CUpnpHttpClientEngine::NewLC(class MUpnpHttpClientObserver &, int)
	??1CUpnpServiceImplementation@@UAE@XZ @ 184 NONAME ; CUpnpServiceImplementation::~CUpnpServiceImplementation(void)
	?RelatedStateVariable@CUpnpArgument@@QAEAAVTDesC8@@XZ @ 185 NONAME ; class TDesC8 & CUpnpArgument::RelatedStateVariable(void)
	?GetIconBufferPtr@CUpnpIcon@@QBEABVTPtr8@@XZ @ 186 NONAME ; class TPtr8 const & CUpnpIcon::GetIconBufferPtr(void) const
	?GetProperty@CUpnpDevice@@QAE?AVTPtrC8@@ABVTDesC8@@@Z @ 187 NONAME ; class TPtrC8 CUpnpDevice::GetProperty(class TDesC8 const &)
	?SetEventableL@CUpnpStateVariable@@QAEXABVTDesC8@@@Z @ 188 NONAME ; void CUpnpStateVariable::SetEventableL(class TDesC8 const &)
	?DescriptionProperty@CUpnpDevice@@QAE?BVTPtrC8@@ABVTDesC8@@@Z @ 189 NONAME ; class TPtrC8 const CUpnpDevice::DescriptionProperty(class TDesC8 const &)
	?DescriptionUrlPath@CUpnpDevice@@QBE?BVTPtrC8@@XZ @ 190 NONAME ; class TPtrC8 const CUpnpDevice::DescriptionUrlPath(void) const
	?NewL@CUpnpIcon@@SAPAV1@ABVTDesC16@@ABVTDesC8@@HHH1@Z @ 191 NONAME ; class CUpnpIcon * CUpnpIcon::NewL(class TDesC16 const &, class TDesC8 const &, int, int, int, class TDesC8 const &)
	??1CUpnpDeviceImplementationBase@@UAE@XZ @ 192 NONAME ; CUpnpDeviceImplementationBase::~CUpnpDeviceImplementationBase(void)
	?NewL@CUpnpDeviceImplementation@@SAPAV1@ABVTDesC8@@AAVCUpnpDeviceDescriptionStore@@AAVMUpnpDeviceDescriptionProvider@@@Z @ 193 NONAME ; class CUpnpDeviceImplementation * CUpnpDeviceImplementation::NewL(class TDesC8 const &, class CUpnpDeviceDescriptionStore &, class MUpnpDeviceDescriptionProvider &)
	?SetUrlBaseL@CUpnpDevice@@QAEXABVTDesC8@@@Z @ 194 NONAME ; void CUpnpDevice::SetUrlBaseL(class TDesC8 const &)
	?Property@CUpnpDeviceDescriptionStore@@QAE?AVTPtrC8@@ABVTDesC8@@@Z @ 195 NONAME ; class TPtrC8 CUpnpDeviceDescriptionStore::Property(class TDesC8 const &)
	?AddServiceL@CUpnpDevice@@QAE?AW4TServiceAdd@1@HPAVCUpnpService@@@Z @ 196 NONAME ; enum CUpnpDevice::TServiceAdd CUpnpDevice::AddServiceL(int, class CUpnpService *)
	?Response@CUpnpHttpTransaction@@QAEPAVCUpnpHttpMessage@@XZ @ 197 NONAME ; class CUpnpHttpMessage * CUpnpHttpTransaction::Response(void)
	?ArgumentType@CUpnpAction@@QAEHABVTDesC8@@@Z @ 198 NONAME ; int CUpnpAction::ArgumentType(class TDesC8 const &)
	?NewLC@CUpnpAction@@SAPAV1@AAV1@AAVCUpnpService@@@Z @ 199 NONAME ; class CUpnpAction * CUpnpAction::NewLC(class CUpnpAction &, class CUpnpService &)
	?ToDes8L@CUpnpIcon@@QBEPAVHBufC8@@XZ @ 200 NONAME ; class HBufC8 * CUpnpIcon::ToDes8L(void) const
	?Height@CUpnpIcon@@QBEHXZ @ 201 NONAME ; int CUpnpIcon::Height(void) const
	?Alive@CUpnpDevice@@QBEHXZ @ 202 NONAME ; int CUpnpDevice::Alive(void) const
	?SetVariableMaxEventRate@CUpnpServiceImplementation@@QAEXABVTDesC8@@H@Z @ 203 NONAME ; void CUpnpServiceImplementation::SetVariableMaxEventRate(class TDesC8 const &, int)
	?Direction@CUpnpArgument@@QBEHXZ @ 204 NONAME ; int CUpnpArgument::Direction(void) const
	?NewL@CUpnpSilentDeviceImplementation@@SAPAV1@ABVTDesC8@@AAVCUpnpDeviceDescriptionStore@@AAVMUpnpDeviceDescriptionProvider@@@Z @ 205 NONAME ; class CUpnpSilentDeviceImplementation * CUpnpSilentDeviceImplementation::NewL(class TDesC8 const &, class CUpnpDeviceDescriptionStore &, class MUpnpDeviceDescriptionProvider &)
	?Expired@CUpnpDevice@@QBEHXZ @ 206 NONAME ; int CUpnpDevice::Expired(void) const
	?UpdateIconL@CUpnpDeviceImplementationBase@@QAEXABVCUpnpIcon@@@Z @ 207 NONAME ; void CUpnpDeviceImplementationBase::UpdateIconL(class CUpnpIcon const &)
	?StopL@CUpnpDeviceImplementation@@QAEXW4TStopMode@1@@Z @ 208 NONAME ; void CUpnpDeviceImplementation::StopL(enum CUpnpDeviceImplementation::TStopMode)
	?ServiceTypesL@CUpnpDevice@@QAEAAVCDesC8Array@@XZ @ 209 NONAME ; class CDesC8Array & CUpnpDevice::ServiceTypesL(void)
	?StopL@CUpnpSilentDeviceImplementation@@UAEXXZ @ 210 NONAME ; void CUpnpSilentDeviceImplementation::StopL(void)
	?GetFileBufferSizeL@CUpnpSettings@@SAHXZ @ 211 NONAME ; int CUpnpSettings::GetFileBufferSizeL(void)
	?GetL@CUpnpSettings@@QAEPAVHBufC8@@I@Z @ 212 NONAME ; class HBufC8 * CUpnpSettings::GetL(unsigned int)
	?StateVariableValue@CUpnpServiceImplementation@@QAE?BVTPtrC8@@ABVTDesC8@@@Z @ 213 NONAME ; class TPtrC8 const CUpnpServiceImplementation::StateVariableValue(class TDesC8 const &)
	?IsEmbeddDevice@CUpnpDevice@@QAEHXZ @ 214 NONAME ; int CUpnpDevice::IsEmbeddDevice(void)
	?Property@CUpnpDeviceDescriptionStore@@QAE?AVTPtrC8@@ABVTDesC8@@0@Z @ 215 NONAME ; class TPtrC8 CUpnpDeviceDescriptionStore::Property(class TDesC8 const &, class TDesC8 const &)
	?SetSender@CUpnpAction@@QAEXABVTInetAddr@@@Z @ 216 NONAME ; void CUpnpAction::SetSender(class TInetAddr const &)
	?SetBitmapFilename@CUpnpIcon@@QAEXABVTDesC16@@@Z @ 217 NONAME ; void CUpnpIcon::SetBitmapFilename(class TDesC16 const &)
	?PresentationUrl@CUpnpDevice@@QAE?BVTPtrC8@@XZ @ 218 NONAME ; class TPtrC8 const CUpnpDevice::PresentationUrl(void)
	?StateVariable@CUpnpServiceImplementation@@QAEPAVCUpnpStateVariable@@ABVTDesC8@@@Z @ 219 NONAME ; class CUpnpStateVariable * CUpnpServiceImplementation::StateVariable(class TDesC8 const &)
	?RemoveCustomer@CUpnpDispatcher@@QAEXABVMUpnpDispatcherCustomer@@H@Z @ 220 NONAME ; void CUpnpDispatcher::RemoveCustomer(class MUpnpDispatcherCustomer const &, int)
	?NewL@CUpnpService@@SAPAV1@ABVTDesC8@@0AAVCUpnpDevice@@@Z @ 221 NONAME ; class CUpnpService * CUpnpService::NewL(class TDesC8 const &, class TDesC8 const &, class CUpnpDevice &)
	?Set@CUpnpSettings@@QAEHIAAH@Z @ 222 NONAME ; int CUpnpSettings::Set(unsigned int, int &)
	?NewL@CUpnpDispatcher@@SAPAV1@PAVMUpnpDiscoveryObserver@@@Z @ 223 NONAME ; class CUpnpDispatcher * CUpnpDispatcher::NewL(class MUpnpDiscoveryObserver *)
	??1CUpnpDispatcher@@UAE@XZ @ 224 NONAME ; CUpnpDispatcher::~CUpnpDispatcher(void)
	?NewL@CUpnpHttpClientEngine@@SAPAV1@AAVMUpnpHttpClientObserver@@H@Z @ 225 NONAME ; class CUpnpHttpClientEngine * CUpnpHttpClientEngine::NewL(class MUpnpHttpClientObserver &, int)
	?ActionName@CUpnpSoapMessage@@QAE?BVTPtrC8@@XZ @ 226 NONAME ; class TPtrC8 const CUpnpSoapMessage::ActionName(void)
	?Local@CUpnpDevice@@QBEHXZ @ 227 NONAME ; int CUpnpDevice::Local(void) const
	?NewL@CUpnpContentHandlersController@@SAPAV1@XZ @ 228 NONAME ; class CUpnpContentHandlersController * CUpnpContentHandlersController::NewL(void)
	?NewLC@CUpnpDeviceDescriptionStore@@SAPAV1@ABVTDesC16@@@Z @ 229 NONAME ; class CUpnpDeviceDescriptionStore * CUpnpDeviceDescriptionStore::NewLC(class TDesC16 const &)
	?Value@CUpnpArgument@@QAEAAVTDesC8@@XZ @ 230 NONAME ; class TDesC8 & CUpnpArgument::Value(void)
	?SetLocal@CUpnpAction@@QAEXH@Z @ 231 NONAME ; void CUpnpAction::SetLocal(int)
	?SetError@CUpnpAction@@QAEXH@Z @ 232 NONAME ; void CUpnpAction::SetError(int)
	?BitmapFilename@CUpnpIcon@@QBE?AV?$TBuf@$0BAA@@@XZ @ 233 NONAME ; class TBuf<256> CUpnpIcon::BitmapFilename(void) const
	?StopIPFiltering@CUpnpDeviceImplementationBase@@QAEXXZ @ 234 NONAME ; void CUpnpDeviceImplementationBase::StopIPFiltering(void)
	?ParseDeviceImplL@CUpnpContentHandlersController@@QAEPAVCUpnpDeviceImplementation@@ABVTDesC8@@@Z @ 235 NONAME ; class CUpnpDeviceImplementation * CUpnpContentHandlersController::ParseDeviceImplL(class TDesC8 const &)
	?SetValueL@CUpnpStateVariable@@QAEXHH@Z @ 236 NONAME ; void CUpnpStateVariable::SetValueL(int, int)
	?GetServerHeaderL@CUpnpSettings@@SAPAVHBufC8@@XZ @ 237 NONAME ; class HBufC8 * CUpnpSettings::GetServerHeaderL(void)
	?ParseServiceL@CUpnpContentHandlersController@@QAEPAVCUpnpService@@ABVTDesC8@@PAVCUpnpDevice@@@Z @ 238 NONAME ; class CUpnpService * CUpnpContentHandlersController::ParseServiceL(class TDesC8 const &, class CUpnpDevice *)
	?StartIPFilteringL@CUpnpDispatcher@@QAEXXZ @ 239 NONAME ; void CUpnpDispatcher::StartIPFilteringL(void)
	?SearchL@CUpnpDispatcher@@QAEXABVTDesC16@@@Z @ 240 NONAME ; void CUpnpDispatcher::SearchL(class TDesC16 const &)
	?StartIPFilteringL@CUpnpDeviceImplementationBase@@QAEXXZ @ 241 NONAME ; void CUpnpDeviceImplementationBase::StartIPFilteringL(void)
	?BaseConstructL@CUpnpHttpTransaction@@IAEXXZ @ 242 NONAME ; void CUpnpHttpTransaction::BaseConstructL(void)
	?UnsubscribeResponseL@RUpnpGenaMessageFactory@@SAPAVCUpnpGenaMessage@@HABVTInetAddr@@@Z @ 243 NONAME ; class CUpnpGenaMessage * RUpnpGenaMessageFactory::UnsubscribeResponseL(int, class TInetAddr const &)
	?DescriptionUrlPort@CUpnpDevice@@QBEHXZ @ 244 NONAME ; int CUpnpDevice::DescriptionUrlPort(void) const
	?SubscribeL@RUpnpGenaMessageFactory@@SAPAVCUpnpGenaMessage@@ABVTDesC8@@AAVTInetAddr@@00@Z @ 245 NONAME ; class CUpnpGenaMessage * RUpnpGenaMessageFactory::SubscribeL(class TDesC8 const &, class TInetAddr &, class TDesC8 const &, class TDesC8 const &)
	?NewLC@CUpnpContentHandlersController@@SAPAV1@XZ @ 246 NONAME ; class CUpnpContentHandlersController * CUpnpContentHandlersController::NewLC(void)
	?CreateActionLC@CUpnpService@@QAEPAVCUpnpAction@@ABVTDesC8@@@Z @ 247 NONAME ; class CUpnpAction * CUpnpService::CreateActionLC(class TDesC8 const &)
	?AddCustomerL@CUpnpDispatcher@@QAEXABVMUpnpDispatcherCustomer@@H@Z @ 248 NONAME ; void CUpnpDispatcher::AddCustomerL(class MUpnpDispatcherCustomer const &, int)
	?StartHttpServerL@CUpnpDispatcher@@QAEXHH@Z @ 249 NONAME ; void CUpnpDispatcher::StartHttpServerL(int, int)
	?SetLocal@CUpnpDevice@@QAEXH@Z @ 250 NONAME ; void CUpnpDevice::SetLocal(int)
	?SetAlive@CUpnpDevice@@QAEXH@Z @ 251 NONAME ; void CUpnpDevice::SetAlive(int)
	?Device@CUpnpService@@QAEAAVCUpnpDevice@@XZ @ 252 NONAME ; class CUpnpDevice & CUpnpService::Device(void)
	??1CUpnpSilentDeviceImplementation@@UAE@XZ @ 253 NONAME ; CUpnpSilentDeviceImplementation::~CUpnpSilentDeviceImplementation(void)
	?SetL@CUpnpSettings@@QAEHIABVTDesC8@@@Z @ 254 NONAME ; int CUpnpSettings::SetL(unsigned int, class TDesC8 const &)
	?SoapResponseL@RUpnpSoapMessageFactory@@SAPAVCUpnpSoapMessage@@PAVCUpnpAction@@W4TUpnpErrorCode@@@Z @ 255 NONAME ; class CUpnpSoapMessage * RUpnpSoapMessageFactory::SoapResponseL(class CUpnpAction *, enum TUpnpErrorCode)
	?Uuid@CUpnpDevice@@QAE?BVTPtrC8@@XZ @ 256 NONAME ; class TPtrC8 const CUpnpDevice::Uuid(void)
	?Name@CUpnpArgument@@QAEAAVTDesC8@@XZ @ 257 NONAME ; class TDesC8 & CUpnpArgument::Name(void)
	??1CUpnpDeviceDescription@@UAE@XZ @ 258 NONAME ; CUpnpDeviceDescription::~CUpnpDeviceDescription(void)
	??0CUpnpDeviceDescription@@QAE@XZ @ 259 NONAME ; CUpnpDeviceDescription::CUpnpDeviceDescription(void)
	?SetDescriptionUrlL@CUpnpDeviceDescription@@QAEXABVTDesC8@@@Z @ 260 NONAME ; void CUpnpDeviceDescription::SetDescriptionUrlL(class TDesC8 const &)

