EXPORTS
	_ZN13RAlfTfxClient13LoadTfxPluginERK4TUid @ 1 NONAME
	_ZN13RAlfTfxClient15UnloadTfxPluginERK4TUid @ 2 NONAME
	_ZN13RAlfTfxClient19SendSynchronousDataERK4TUidRK6TDesC8R5TDes8 @ 3 NONAME
	_ZN13RAlfTfxClient20SendAsynchronousDataERK4TUidRK6TDesC8R5TDes8R14TRequestStatus @ 4 NONAME
	_ZN13RAlfTfxClient22CancelAsynchronousDataERK4TUidi @ 5 NONAME
	_ZN13RAlfTfxClient4OpenEv @ 6 NONAME
	_ZN13RAlfTfxClient12PrepareFrameEj @ 7 NONAME
	_ZN17RAlfBridgerClient7ConnectEv @ 8 NONAME
	_ZN17RAlfBridgerClient9SendSynchEiRK6TDesC8 @ 9 NONAME
	_ZN17RAlfBridgerClient9SendSynchEiRK8TIpcArgs @ 10 NONAME
	_ZN17RAlfBridgerClient16SendAsynchronousEiRK8TIpcArgsR14TRequestStatus @ 11 NONAME
	_ZN17RAlfBridgerClient9SendBlindEiRK8TIpcArgs @ 12 NONAME
	_ZN16AlfServerStarter6StartLER14TRequestStatusi @ 13 NONAME
	_ZN19CAlfCompositionHost4NewLEii @ 14 NONAME
	_ZN21CAlfCompositionSource10SetOpacityEf @ 15 NONAME
	_ZN21CAlfCompositionSource11EnableAlphaEi @ 16 NONAME
	_ZN21CAlfCompositionSource11SetRotationEi @ 17 NONAME
	_ZN21CAlfCompositionSource12HandleEventLEiPv @ 18 NONAME
	_ZN21CAlfCompositionSource14EnableKeyboardEii @ 19 NONAME
	_ZN21CAlfCompositionSource14RemoveObserverER23MAlfCompositionObserver @ 20 NONAME
	_ZN21CAlfCompositionSource19SetIsBackgroundAnimEi @ 21 NONAME
	_ZN21CAlfCompositionSource21CreatePermissionTokenEii @ 22 NONAME
	_ZN21CAlfCompositionSource23AddCompositionObserverLER23MAlfCompositionObserveri @ 23 NONAME
	_ZN21CAlfCompositionSource4NewLER7RWindow @ 24 NONAME
	_ZN21CAlfCompositionSource9SetExtentERK5TRecti @ 25 NONAME
	_ZN21CAlfCompositionSource9SetZOrderERK25CAlfCompositionClientBaseii @ 26 NONAME
	_ZN21CAlfCompositionSourceD0Ev @ 27 NONAME
	_ZN21CAlfCompositionSourceD1Ev @ 28 NONAME
	_ZN21CAlfCompositionSourceD2Ev @ 29 NONAME
	_ZN25CAlfCompositionClientBase10SetHandleLEi @ 30 NONAME
	_ZN25CAlfCompositionClientBase12HandleEventLEiPv @ 31 NONAME
	_ZN25CAlfCompositionClientBase13RequestEventLEiP17RAlfBridgerClient @ 32 NONAME
	_ZN25CAlfCompositionClientBase8RunErrorEi @ 33 NONAME
	_ZN25CAlfCompositionClientBase9SendEventEiPKvi @ 34 NONAME
	_ZN25CAlfCompositionClientBaseD0Ev @ 35 NONAME
	_ZN25CAlfCompositionClientBaseD1Ev @ 36 NONAME
	_ZN25CAlfCompositionClientBaseD2Ev @ 37 NONAME
	_ZN26CAlfCompositionCntrlClient4NewLEP17RAlfBridgerClientP25MAlfCompositionController @ 38 NONAME
	_ZN26CAlfCompositionPixelSource4NewLER18MAlfBufferProviderP7RWindow @ 39 NONAME
	_ZN26CAlfCompositionPixelSource7SuspendEv @ 40 NONAME
	_ZN26CAlfCompositionPixelSource9ActivateLEv @ 41 NONAME
	_ZN26CAlfCompositionPixelSource9SetExtentERK5TRecti @ 42 NONAME
	_ZN26CAlfCompositionPixelSourceD0Ev @ 43 NONAME
	_ZN26CAlfCompositionPixelSourceD1Ev @ 44 NONAME
	_ZN26CAlfCompositionPixelSourceD2Ev @ 45 NONAME
	_ZTI21CAlfCompositionSource @ 46 NONAME
	_ZTI25CAlfCompositionClientBase @ 47 NONAME
	_ZTI26CAlfCompositionPixelSource @ 48 NONAME
	_ZTV21CAlfCompositionSource @ 49 NONAME
	_ZTV25CAlfCompositionClientBase @ 50 NONAME
	_ZTV26CAlfCompositionPixelSource @ 51 NONAME
	_ZThn32_N21CAlfCompositionSource10SetOpacityEf @ 52 NONAME
	_ZThn32_N21CAlfCompositionSource11EnableAlphaEi @ 53 NONAME
	_ZThn32_N21CAlfCompositionSource11SetRotationEi @ 54 NONAME
	_ZThn32_N21CAlfCompositionSource19SetIsBackgroundAnimEi @ 55 NONAME
	_ZThn32_N21CAlfCompositionSource9SetExtentERK5TRecti @ 56 NONAME
	_ZThn32_N26CAlfCompositionPixelSource9SetExtentERK5TRecti @ 57 NONAME
	_ZN26CAlfCompositionCntrlClientD0Ev @ 58 NONAME
	_ZN26CAlfCompositionCntrlClientD1Ev @ 59 NONAME
	_ZN26CAlfCompositionCntrlClientD2Ev @ 60 NONAME
	_ZN21CAlfCompositionSource13SetSourceRectERK5TRect @ 61 NONAME
	_ZThn32_N21CAlfCompositionSource13SetSourceRectERK5TRect @ 62 NONAME
	_ZN17RAlfBridgerClient38GetListOfInactiveWindowGroupsWSurfacesEP6RArrayIiE @ 63 NONAME
	_ZN26CAlfCompositionPixelSource4NewLER18MAlfBufferProvideriP7RWindow @ 64 NONAME
	_ZN26CAlfCompositionPixelSource13ActivateSyncLEv @ 65 NONAME
	_ZN17RAlfBridgerClient12EffectsCountEv @ 66 NONAME
	_ZN18CAlfEffectObserver18ActiveEffectsCountEv @ 67 NONAME
	_ZN18CAlfEffectObserver4NewLEv @ 68 NONAME
	_ZN18CAlfEffectObserverD0Ev @ 69 NONAME
	_ZN18CAlfEffectObserverD1Ev @ 70 NONAME
	_ZN18CAlfEffectObserverD2Ev @ 71 NONAME
	_ZN18CAlfEffectObserver18SubscribeCallbackLEPNS_18MAlfEffectObserverEii @ 72 NONAME
	_ZN17RAlfBridgerClient30GetListOfWindowGroupsWSurfacesEP6RArrayIiE @ 73 NONAME
	_ZN18CAlfEffectObserver20SetDistractionWindowERK15RWindowTreeNodei @ 74 NONAME
	_ZN17RAlfBridgerClient27GetOptionalGraphicsMemUsersEP6RArrayIiE @ 75 NONAME

