EXPORTS
	?ActivateNotificationsL@RHssInterface@@QAEXAAVMHssSrvNotifications@@@Z @ 1 NONAME ; void RHssInterface::ActivateNotificationsL(class MHssSrvNotifications &)
	?Cancel@RHssInterface@@QAEXI@Z @ 2 NONAME ; void RHssInterface::Cancel(unsigned int)
	?CancelLogin@RHssInterface@@QAEHXZ @ 3 NONAME ; int RHssInterface::CancelLogin(void)
	?CancelNotifications@RHssInterface@@QAEXXZ @ 4 NONAME ; void RHssInterface::CancelNotifications(void)
	?CancelStart@RHssInterface@@QAEHI@Z @ 5 NONAME ; int RHssInterface::CancelStart(unsigned int)
	?ChangeSettings@RHssInterface@@QAEHIABVTHssIapSettings@@@Z @ 6 NONAME ; int RHssInterface::ChangeSettings(unsigned int, class THssIapSettings const &)
	?CheckBackgroundScanL@RHssInterface@@QAEKXZ @ 7 NONAME ; unsigned long RHssInterface::CheckBackgroundScanL(void)
	?Close@RHssInterface@@QAEXXZ @ 8 NONAME ; void RHssInterface::Close(void)
	?CloseConnection@RHssInterface@@QAEXIAAVTRequestStatus@@@Z @ 9 NONAME ; void RHssInterface::CloseConnection(unsigned int, class TRequestStatus &)
	?Connect@RHssInterface@@QAEHXZ @ 10 NONAME ; int RHssInterface::Connect(void)
	?GetIap@RHssInterface@@QAEKVTIpcArgs@@@Z @ 11 NONAME ; unsigned long RHssInterface::GetIap(class TIpcArgs)
	?GetScanResults@RHssInterface@@QAEHAAVHssScanList@@@Z @ 12 NONAME ; int RHssInterface::GetScanResults(class HssScanList &)
	?Join@RHssInterface@@QAEHI@Z @ 13 NONAME ; int RHssInterface::Join(unsigned int)
	?LoginComplete@RHssInterface@@QAEHIH@Z @ 14 NONAME ; int RHssInterface::LoginComplete(unsigned int, int)
	?LogoutComplete@RHssInterface@@QAEHI@Z @ 15 NONAME ; int RHssInterface::LogoutComplete(unsigned int)
	?Register@RHssInterface@@QAEIVTUid@@ABVTDesC16@@I@Z @ 16 NONAME ; unsigned int RHssInterface::Register(class TUid, class TDesC16 const &, unsigned int)
	?SetUiState@RHssInterface@@QAEXII@Z @ 17 NONAME ; void RHssInterface::SetUiState(unsigned int, unsigned int)
	?ShutdownServerL@RHssInterface@@QAEHXZ @ 18 NONAME ; int RHssInterface::ShutdownServerL(void)
	?Start@RHssInterface@@QAEXIAAVTRequestStatus@@@Z @ 19 NONAME ; void RHssInterface::Start(unsigned int, class TRequestStatus &)
	?StartAgain@RHssInterface@@QAEXIAAVTRequestStatus@@@Z @ 20 NONAME ; void RHssInterface::StartAgain(unsigned int, class TRequestStatus &)
	?StartLogin@RHssInterface@@QAEXIIAAVTRequestStatus@@@Z @ 21 NONAME ; void RHssInterface::StartLogin(unsigned int, unsigned int, class TRequestStatus &)
	?Stop@RHssInterface@@QAEHI@Z @ 22 NONAME ; int RHssInterface::Stop(unsigned int)
	?UnRegister@RHssInterface@@QAEHIIVTUid@@@Z @ 23 NONAME ; int RHssInterface::UnRegister(unsigned int, unsigned int, class TUid)
	?StartBrowser@RHssInterface@@QAEXABVTDesC16@@IIAAVTRequestStatus@@@Z @ 24 NONAME ; void RHssInterface::StartBrowser(class TDesC16 const &, unsigned int, unsigned int, class TRequestStatus &)
	?GetConnectionBssid@RHssInterface@@QAEHAAV?$TBuf8@$05@@@Z @ 25 NONAME ; int RHssInterface::GetConnectionBssid(class TBuf8<6> &)
	?AddIapSsidList@RHssInterface@@QAEHIABV?$CArrayFixFlat@V?$TBuf8@$0CA@@@@@@Z @ 26 NONAME ; int RHssInterface::AddIapSsidList(unsigned int, class CArrayFixFlat<class TBuf8<32> > const &)
	?SetTimerValues@RHssInterface@@QAEHVTUid@@II@Z @ 27 NONAME ; int RHssInterface::SetTimerValues(class TUid, unsigned int, unsigned int)
	?GetClientIapsL@RHssInterface@@QAEXVTUid@@AAV?$RArray@I@@@Z @ 28 NONAME ; void RHssInterface::GetClientIapsL(class TUid, class RArray<unsigned int> &)

