EXPORTS
	?CreateL@CSenLogger@@SAHHHABVTDesC16@@0@Z @ 1 NONAME ; int CSenLogger::CreateL(int, int, class TDesC16 const &, class TDesC16 const &)
	?Destroy@CSenLogger@@SAXH@Z @ 2 NONAME ; void CSenLogger::Destroy(int)
	?Write@CSenLogger@@SAXHHABVTDesC16@@@Z @ 3 NONAME ; void CSenLogger::Write(int, int, class TDesC16 const &)
	?Write@CSenLogger@@SAXHHABVTDesC8@@@Z @ 4 NONAME ; void CSenLogger::Write(int, int, class TDesC8 const &)
	?WriteAll@CSenLogger@@SAXHHABVTDesC16@@@Z @ 5 NONAME ; void CSenLogger::WriteAll(int, int, class TDesC16 const &)
	?WriteAll@CSenLogger@@SAXHHABVTDesC8@@@Z @ 6 NONAME ; void CSenLogger::WriteAll(int, int, class TDesC8 const &)
	?WriteFormat@CSenLogger@@SAXHHV?$TRefByValue@$$CBVTDesC16@@@@AAY00PAC@Z @ 7 NONAME ; void CSenLogger::WriteFormat(int, int, class TRefByValue<class TDesC16 const >, signed char * [1] &)
	?WriteFormat@CSenLogger@@SAXHHV?$TRefByValue@$$CBVTDesC16@@@@ZZ @ 8 NONAME ; void CSenLogger::WriteFormat(int, int, class TRefByValue<class TDesC16 const >, ...)
	?WriteFormat@CSenLogger@@SAXHHV?$TRefByValue@$$CBVTDesC8@@@@AAY00PAC@Z @ 9 NONAME ; void CSenLogger::WriteFormat(int, int, class TRefByValue<class TDesC8 const >, signed char * [1] &)
	?WriteFormat@CSenLogger@@SAXHHV?$TRefByValue@$$CBVTDesC8@@@@ZZ @ 10 NONAME ; void CSenLogger::WriteFormat(int, int, class TRefByValue<class TDesC8 const >, ...)
	??0CSenLogger@@AAE@XZ @ 11 NONAME ; CSenLogger::CSenLogger(void)
	?WriteAllWithClientId@CSenLogger@@SAXHHHABVTDesC16@@@Z @ 12 NONAME ; void CSenLogger::WriteAllWithClientId(int, int, int, class TDesC16 const &)
	?WriteAllWithClientId@CSenLogger@@SAXHHHABVTDesC8@@@Z @ 13 NONAME ; void CSenLogger::WriteAllWithClientId(int, int, int, class TDesC8 const &)
	?WriteFormatWithClientId@CSenLogger@@SAXHHHV?$TRefByValue@$$CBVTDesC16@@@@AAY00PAC@Z @ 14 NONAME ; void CSenLogger::WriteFormatWithClientId(int, int, int, class TRefByValue<class TDesC16 const >, signed char * [1] &)
	?WriteFormatWithClientId@CSenLogger@@SAXHHHV?$TRefByValue@$$CBVTDesC16@@@@ZZ @ 15 NONAME ; void CSenLogger::WriteFormatWithClientId(int, int, int, class TRefByValue<class TDesC16 const >, ...)
	?WriteFormatWithClientId@CSenLogger@@SAXHHHV?$TRefByValue@$$CBVTDesC8@@@@AAY00PAC@Z @ 16 NONAME ; void CSenLogger::WriteFormatWithClientId(int, int, int, class TRefByValue<class TDesC8 const >, signed char * [1] &)
	?WriteFormatWithClientId@CSenLogger@@SAXHHHV?$TRefByValue@$$CBVTDesC8@@@@ZZ @ 17 NONAME ; void CSenLogger::WriteFormatWithClientId(int, int, int, class TRefByValue<class TDesC8 const >, ...)
	?WriteFormatWithClientIdToMainLogs@CSenLogger@@SAXHHV?$TRefByValue@$$CBVTDesC16@@@@AAY00PAC@Z @ 18 NONAME ; void CSenLogger::WriteFormatWithClientIdToMainLogs(int, int, class TRefByValue<class TDesC16 const >, signed char * [1] &)
	?WriteFormatWithClientIdToMainLogs@CSenLogger@@SAXHHV?$TRefByValue@$$CBVTDesC16@@@@ZZ @ 19 NONAME ; void CSenLogger::WriteFormatWithClientIdToMainLogs(int, int, class TRefByValue<class TDesC16 const >, ...)
	?WriteFormatWithClientIdToMainLogs@CSenLogger@@SAXHHV?$TRefByValue@$$CBVTDesC8@@@@AAY00PAC@Z @ 20 NONAME ; void CSenLogger::WriteFormatWithClientIdToMainLogs(int, int, class TRefByValue<class TDesC8 const >, signed char * [1] &)
	?WriteFormatWithClientIdToMainLogs@CSenLogger@@SAXHHV?$TRefByValue@$$CBVTDesC8@@@@ZZ @ 21 NONAME ; void CSenLogger::WriteFormatWithClientIdToMainLogs(int, int, class TRefByValue<class TDesC8 const >, ...)
	?WriteWithClientId@CSenLogger@@SAXHHHABVTDesC16@@@Z @ 22 NONAME ; void CSenLogger::WriteWithClientId(int, int, int, class TDesC16 const &)
	?WriteWithClientId@CSenLogger@@SAXHHHABVTDesC8@@@Z @ 23 NONAME ; void CSenLogger::WriteWithClientId(int, int, int, class TDesC8 const &)
	?CreateL@CSenLogger@@SAHHHABVTDesC16@@0W4TFileLoggingMode@@@Z @ 24 NONAME ; int CSenLogger::CreateL(int, int, class TDesC16 const &, class TDesC16 const &, enum TFileLoggingMode)

